
bin/main.elf:     file format elf32-littlearm


Disassembly of section .text:

08000000 <__boot_start>:
 8000000:	20005000 	.word	0x20005000
 8000004:	08000599 	.word	0x08000599
 8000008:	08000659 	.word	0x08000659
 800000c:	08000659 	.word	0x08000659
 8000010:	08000659 	.word	0x08000659
 8000014:	08000659 	.word	0x08000659
 8000018:	08000659 	.word	0x08000659
	...
 800002c:	08000659 	.word	0x08000659
 8000030:	08000659 	.word	0x08000659
 8000034:	00000000 	.word	0x00000000
 8000038:	0800055d 	.word	0x0800055d
 800003c:	0800056d 	.word	0x0800056d
 8000040:	08000659 	.word	0x08000659
 8000044:	08000659 	.word	0x08000659
 8000048:	08000659 	.word	0x08000659
 800004c:	08000659 	.word	0x08000659
 8000050:	08000659 	.word	0x08000659
 8000054:	08000659 	.word	0x08000659
 8000058:	08000659 	.word	0x08000659
 800005c:	08000659 	.word	0x08000659
 8000060:	08000659 	.word	0x08000659
 8000064:	08000659 	.word	0x08000659
 8000068:	08000659 	.word	0x08000659
 800006c:	08000659 	.word	0x08000659
 8000070:	08000659 	.word	0x08000659
 8000074:	08000659 	.word	0x08000659
 8000078:	08000659 	.word	0x08000659
 800007c:	08000659 	.word	0x08000659
 8000080:	08000659 	.word	0x08000659
 8000084:	08000659 	.word	0x08000659
 8000088:	08000659 	.word	0x08000659
 800008c:	08000659 	.word	0x08000659
 8000090:	08000659 	.word	0x08000659
 8000094:	08000659 	.word	0x08000659
 8000098:	08000659 	.word	0x08000659
 800009c:	08000659 	.word	0x08000659
 80000a0:	08000659 	.word	0x08000659
 80000a4:	08000659 	.word	0x08000659
 80000a8:	08000659 	.word	0x08000659
 80000ac:	08000659 	.word	0x08000659
 80000b0:	08000659 	.word	0x08000659
 80000b4:	08000659 	.word	0x08000659
 80000b8:	08000659 	.word	0x08000659
 80000bc:	08000659 	.word	0x08000659
 80000c0:	08000659 	.word	0x08000659
 80000c4:	08000659 	.word	0x08000659
 80000c8:	08000659 	.word	0x08000659
 80000cc:	08000659 	.word	0x08000659
 80000d0:	08000659 	.word	0x08000659
 80000d4:	08000659 	.word	0x08000659
 80000d8:	08000659 	.word	0x08000659
 80000dc:	08000659 	.word	0x08000659
 80000e0:	08000659 	.word	0x08000659
 80000e4:	08000659 	.word	0x08000659
 80000e8:	08000659 	.word	0x08000659
 80000ec:	08000659 	.word	0x08000659
 80000f0:	08000659 	.word	0x08000659
 80000f4:	08000659 	.word	0x08000659
 80000f8:	08000659 	.word	0x08000659
 80000fc:	08000659 	.word	0x08000659
 8000100:	08000659 	.word	0x08000659
 8000104:	08000659 	.word	0x08000659
 8000108:	08000659 	.word	0x08000659
 800010c:	08000659 	.word	0x08000659
 8000110:	08000659 	.word	0x08000659
 8000114:	08000659 	.word	0x08000659
 8000118:	08000659 	.word	0x08000659
 800011c:	08000659 	.word	0x08000659
 8000120:	08000659 	.word	0x08000659
 8000124:	08000659 	.word	0x08000659
 8000128:	08000659 	.word	0x08000659
 800012c:	08000659 	.word	0x08000659

08000130 <debug_Boot_Finished>:
 8000130:	4801      	ldr	r0, [pc, #4]	; (8000138 <debug_Boot_Finished+0x8>)
 8000132:	f000 b997 	b.w	8000464 <send_Str>
 8000136:	bf00      	nop
 8000138:	08000674 	.word	0x08000674

0800013c <debug_Erase_Error>:
 800013c:	4801      	ldr	r0, [pc, #4]	; (8000144 <debug_Erase_Error+0x8>)
 800013e:	f000 b991 	b.w	8000464 <send_Str>
 8000142:	bf00      	nop
 8000144:	0800068b 	.word	0x0800068b

08000148 <debug_User_Jump>:
 8000148:	4801      	ldr	r0, [pc, #4]	; (8000150 <debug_User_Jump+0x8>)
 800014a:	f000 b98b 	b.w	8000464 <send_Str>
 800014e:	bf00      	nop
 8000150:	080006fa 	.word	0x080006fa

08000154 <debug_Hex_Load>:
 8000154:	4801      	ldr	r0, [pc, #4]	; (800015c <debug_Hex_Load+0x8>)
 8000156:	f000 b985 	b.w	8000464 <send_Str>
 800015a:	bf00      	nop
 800015c:	080006a2 	.word	0x080006a2

08000160 <debug_Invalid_Record>:
 8000160:	4801      	ldr	r0, [pc, #4]	; (8000168 <debug_Invalid_Record+0x8>)
 8000162:	f000 b97f 	b.w	8000464 <send_Str>
 8000166:	bf00      	nop
 8000168:	080006e7 	.word	0x080006e7

0800016c <debug_Invalid_Checksum>:
 800016c:	4801      	ldr	r0, [pc, #4]	; (8000174 <debug_Invalid_Checksum+0x8>)
 800016e:	f000 b979 	b.w	8000464 <send_Str>
 8000172:	bf00      	nop
 8000174:	080006d3 	.word	0x080006d3

08000178 <debug_Write_Verify_Error>:
 8000178:	4801      	ldr	r0, [pc, #4]	; (8000180 <debug_Write_Verify_Error+0x8>)
 800017a:	f000 b973 	b.w	8000464 <send_Str>
 800017e:	bf00      	nop
 8000180:	08000712 	.word	0x08000712

08000184 <debug_Invalid_Address>:
 8000184:	4801      	ldr	r0, [pc, #4]	; (800018c <debug_Invalid_Address+0x8>)
 8000186:	f000 b96d 	b.w	8000464 <send_Str>
 800018a:	bf00      	nop
 800018c:	080006bb 	.word	0x080006bb

08000190 <unlock_Flash>:
 8000190:	4b06      	ldr	r3, [pc, #24]	; (80001ac <unlock_Flash+0x1c>)
 8000192:	681a      	ldr	r2, [r3, #0]
 8000194:	0611      	lsls	r1, r2, #24
 8000196:	d505      	bpl.n	80001a4 <unlock_Flash+0x14>
 8000198:	4a05      	ldr	r2, [pc, #20]	; (80001b0 <unlock_Flash+0x20>)
 800019a:	4906      	ldr	r1, [pc, #24]	; (80001b4 <unlock_Flash+0x24>)
 800019c:	6011      	str	r1, [r2, #0]
 800019e:	f101 3188 	add.w	r1, r1, #2290649224	; 0x88888888
 80001a2:	6011      	str	r1, [r2, #0]
 80001a4:	681a      	ldr	r2, [r3, #0]
 80001a6:	0612      	lsls	r2, r2, #24
 80001a8:	d4fc      	bmi.n	80001a4 <unlock_Flash+0x14>
 80001aa:	4770      	bx	lr
 80001ac:	40022010 	.word	0x40022010
 80001b0:	40022004 	.word	0x40022004
 80001b4:	45670123 	.word	0x45670123

080001b8 <lock_Flash>:
 80001b8:	4b04      	ldr	r3, [pc, #16]	; (80001cc <lock_Flash+0x14>)
 80001ba:	681a      	ldr	r2, [r3, #0]
 80001bc:	0612      	lsls	r2, r2, #24
 80001be:	bf5e      	ittt	pl
 80001c0:	681a      	ldrpl	r2, [r3, #0]
 80001c2:	f042 0280 	orrpl.w	r2, r2, #128	; 0x80
 80001c6:	601a      	strpl	r2, [r3, #0]
 80001c8:	4770      	bx	lr
 80001ca:	bf00      	nop
 80001cc:	40022010 	.word	0x40022010

080001d0 <wait_Flash>:
 80001d0:	bf00      	nop
 80001d2:	4a02      	ldr	r2, [pc, #8]	; (80001dc <wait_Flash+0xc>)
 80001d4:	6813      	ldr	r3, [r2, #0]
 80001d6:	07db      	lsls	r3, r3, #31
 80001d8:	d4fc      	bmi.n	80001d4 <wait_Flash+0x4>
 80001da:	4770      	bx	lr
 80001dc:	4002200c 	.word	0x4002200c

080001e0 <erase_Flash>:
 80001e0:	b5f8      	push	{r3, r4, r5, r6, r7, lr}
 80001e2:	4c1a      	ldr	r4, [pc, #104]	; (800024c <erase_Flash+0x6c>)
 80001e4:	f7ff ffd4 	bl	8000190 <unlock_Flash>
 80001e8:	f7ff fff2 	bl	80001d0 <wait_Flash>
 80001ec:	6823      	ldr	r3, [r4, #0]
 80001ee:	4d18      	ldr	r5, [pc, #96]	; (8000250 <erase_Flash+0x70>)
 80001f0:	f023 0301 	bic.w	r3, r3, #1
 80001f4:	041b      	lsls	r3, r3, #16
 80001f6:	0c1b      	lsrs	r3, r3, #16
 80001f8:	4e16      	ldr	r6, [pc, #88]	; (8000254 <erase_Flash+0x74>)
 80001fa:	4f17      	ldr	r7, [pc, #92]	; (8000258 <erase_Flash+0x78>)
 80001fc:	6023      	str	r3, [r4, #0]
 80001fe:	42b5      	cmp	r5, r6
 8000200:	6823      	ldr	r3, [r4, #0]
 8000202:	d308      	bcc.n	8000216 <erase_Flash+0x36>
 8000204:	f023 0302 	bic.w	r3, r3, #2
 8000208:	041b      	lsls	r3, r3, #16
 800020a:	0c1b      	lsrs	r3, r3, #16
 800020c:	6023      	str	r3, [r4, #0]
 800020e:	e8bd 40f8 	ldmia.w	sp!, {r3, r4, r5, r6, r7, lr}
 8000212:	f7ff bfd1 	b.w	80001b8 <lock_Flash>
 8000216:	f043 0302 	orr.w	r3, r3, #2
 800021a:	6023      	str	r3, [r4, #0]
 800021c:	603d      	str	r5, [r7, #0]
 800021e:	6823      	ldr	r3, [r4, #0]
 8000220:	f043 0340 	orr.w	r3, r3, #64	; 0x40
 8000224:	6023      	str	r3, [r4, #0]
 8000226:	f7ff ffd3 	bl	80001d0 <wait_Flash>
 800022a:	2300      	movs	r3, #0
 800022c:	58ea      	ldr	r2, [r5, r3]
 800022e:	3201      	adds	r2, #1
 8000230:	d002      	beq.n	8000238 <erase_Flash+0x58>
 8000232:	f7ff ff83 	bl	800013c <debug_Erase_Error>
 8000236:	e7fe      	b.n	8000236 <erase_Flash+0x56>
 8000238:	3304      	adds	r3, #4
 800023a:	f5b3 6f80 	cmp.w	r3, #1024	; 0x400
 800023e:	d1f5      	bne.n	800022c <erase_Flash+0x4c>
 8000240:	202e      	movs	r0, #46	; 0x2e
 8000242:	f000 f8f3 	bl	800042c <send_Char>
 8000246:	f505 6580 	add.w	r5, r5, #1024	; 0x400
 800024a:	e7d8      	b.n	80001fe <erase_Flash+0x1e>
 800024c:	40022010 	.word	0x40022010
 8000250:	08000800 	.word	0x08000800
 8000254:	08020000 	.word	0x08020000
 8000258:	40022014 	.word	0x40022014

0800025c <write_Flash>:
 800025c:	b508      	push	{r3, lr}
 800025e:	4b0a      	ldr	r3, [pc, #40]	; (8000288 <write_Flash+0x2c>)
 8000260:	4299      	cmp	r1, r3
 8000262:	d302      	bcc.n	800026a <write_Flash+0xe>
 8000264:	4b09      	ldr	r3, [pc, #36]	; (800028c <write_Flash+0x30>)
 8000266:	4299      	cmp	r1, r3
 8000268:	d902      	bls.n	8000270 <write_Flash+0x14>
 800026a:	f7ff ff8b 	bl	8000184 <debug_Invalid_Address>
 800026e:	e7fe      	b.n	800026e <write_Flash+0x12>
 8000270:	f7ff ffae 	bl	80001d0 <wait_Flash>
 8000274:	8008      	strh	r0, [r1, #0]
 8000276:	880b      	ldrh	r3, [r1, #0]
 8000278:	b29b      	uxth	r3, r3
 800027a:	4298      	cmp	r0, r3
 800027c:	d002      	beq.n	8000284 <write_Flash+0x28>
 800027e:	f7ff ff7b 	bl	8000178 <debug_Write_Verify_Error>
 8000282:	e7fe      	b.n	8000282 <write_Flash+0x26>
 8000284:	bd08      	pop	{r3, pc}
 8000286:	bf00      	nop
 8000288:	08000800 	.word	0x08000800
 800028c:	08020000 	.word	0x08020000

08000290 <get_Ihex>:
 8000290:	e92d 4ff0 	stmdb	sp!, {r4, r5, r6, r7, r8, r9, sl, fp, lr}
 8000294:	2400      	movs	r4, #0
 8000296:	4f48      	ldr	r7, [pc, #288]	; (80003b8 <get_Ihex+0x128>)
 8000298:	b0c3      	sub	sp, #268	; 0x10c
 800029a:	f7ff ff79 	bl	8000190 <unlock_Flash>
 800029e:	683b      	ldr	r3, [r7, #0]
 80002a0:	f8df 8118 	ldr.w	r8, [pc, #280]	; 80003bc <get_Ihex+0x12c>
 80002a4:	f043 0301 	orr.w	r3, r3, #1
 80002a8:	603b      	str	r3, [r7, #0]
 80002aa:	ae01      	add	r6, sp, #4
 80002ac:	f000 f8e4 	bl	8000478 <receive_Char>
 80002b0:	283a      	cmp	r0, #58	; 0x3a
 80002b2:	d1fb      	bne.n	80002ac <get_Ihex+0x1c>
 80002b4:	f000 f8ec 	bl	8000490 <char_Byte>
 80002b8:	2501      	movs	r5, #1
 80002ba:	f04f 0a00 	mov.w	sl, #0
 80002be:	ea04 0408 	and.w	r4, r4, r8
 80002c2:	7030      	strb	r0, [r6, #0]
 80002c4:	f896 9000 	ldrb.w	r9, [r6]
 80002c8:	f109 0303 	add.w	r3, r9, #3
 80002cc:	429d      	cmp	r5, r3
 80002ce:	dd23      	ble.n	8000318 <get_Ihex+0x88>
 80002d0:	202a      	movs	r0, #42	; 0x2a
 80002d2:	f000 f8ab 	bl	800042c <send_Char>
 80002d6:	f000 f8db 	bl	8000490 <char_Byte>
 80002da:	eb10 0f0a 	cmn.w	r0, sl
 80002de:	4605      	mov	r5, r0
 80002e0:	d123      	bne.n	800032a <get_Ihex+0x9a>
 80002e2:	f7ff ff43 	bl	800016c <debug_Invalid_Checksum>
 80002e6:	4650      	mov	r0, sl
 80002e8:	f000 f8ac 	bl	8000444 <send_Byte>
 80002ec:	2020      	movs	r0, #32
 80002ee:	f000 f89d 	bl	800042c <send_Char>
 80002f2:	4628      	mov	r0, r5
 80002f4:	f000 f8a6 	bl	8000444 <send_Byte>
 80002f8:	2504      	movs	r5, #4
 80002fa:	7871      	ldrb	r1, [r6, #1]
 80002fc:	f896 a002 	ldrb.w	sl, [r6, #2]
 8000300:	78f3      	ldrb	r3, [r6, #3]
 8000302:	ea4a 2a01 	orr.w	sl, sl, r1, lsl #8
 8000306:	ea4a 0a04 	orr.w	sl, sl, r4
 800030a:	2b05      	cmp	r3, #5
 800030c:	d82f      	bhi.n	800036e <get_Ihex+0xde>
 800030e:	e8df f003 	tbb	[pc, r3]
 8000312:	410e      	.short	0x410e
 8000314:	3f242e2e 	.word	0x3f242e2e
 8000318:	f000 f8ba 	bl	8000490 <char_Byte>
 800031c:	5570      	strb	r0, [r6, r5]
 800031e:	4482      	add	sl, r0
 8000320:	3501      	adds	r5, #1
 8000322:	fa5f fa8a 	uxtb.w	sl, sl
 8000326:	b2ad      	uxth	r5, r5
 8000328:	e7cc      	b.n	80002c4 <get_Ihex+0x34>
 800032a:	2500      	movs	r5, #0
 800032c:	e7e5      	b.n	80002fa <get_Ihex+0x6a>
 800032e:	f04f 0b00 	mov.w	fp, #0
 8000332:	fa5f f38b 	uxtb.w	r3, fp
 8000336:	454b      	cmp	r3, r9
 8000338:	eb0a 040b 	add.w	r4, sl, fp
 800033c:	d302      	bcc.n	8000344 <get_Ihex+0xb4>
 800033e:	2d00      	cmp	r5, #0
 8000340:	d0b4      	beq.n	80002ac <get_Ihex+0x1c>
 8000342:	e017      	b.n	8000374 <get_Ihex+0xe4>
 8000344:	4433      	add	r3, r6
 8000346:	7958      	ldrb	r0, [r3, #5]
 8000348:	791b      	ldrb	r3, [r3, #4]
 800034a:	4621      	mov	r1, r4
 800034c:	ea43 2000 	orr.w	r0, r3, r0, lsl #8
 8000350:	f7ff ff84 	bl	800025c <write_Flash>
 8000354:	f10b 0b02 	add.w	fp, fp, #2
 8000358:	e7eb      	b.n	8000332 <get_Ihex+0xa2>
 800035a:	7974      	ldrb	r4, [r6, #5]
 800035c:	7931      	ldrb	r1, [r6, #4]
 800035e:	0424      	lsls	r4, r4, #16
 8000360:	fa1f fa8a 	uxth.w	sl, sl
 8000364:	ea44 6401 	orr.w	r4, r4, r1, lsl #24
 8000368:	ea44 040a 	orr.w	r4, r4, sl
 800036c:	e7e7      	b.n	800033e <get_Ihex+0xae>
 800036e:	f7ff fef7 	bl	8000160 <debug_Invalid_Record>
 8000372:	2503      	movs	r5, #3
 8000374:	205e      	movs	r0, #94	; 0x5e
 8000376:	f000 f859 	bl	800042c <send_Char>
 800037a:	683b      	ldr	r3, [r7, #0]
 800037c:	f023 0301 	bic.w	r3, r3, #1
 8000380:	04db      	lsls	r3, r3, #19
 8000382:	0cdb      	lsrs	r3, r3, #19
 8000384:	603b      	str	r3, [r7, #0]
 8000386:	f7ff ff17 	bl	80001b8 <lock_Flash>
 800038a:	2d02      	cmp	r5, #2
 800038c:	d010      	beq.n	80003b0 <get_Ihex+0x120>
 800038e:	e7fe      	b.n	800038e <get_Ihex+0xfe>
 8000390:	4654      	mov	r4, sl
 8000392:	e7d4      	b.n	800033e <get_Ihex+0xae>
 8000394:	205e      	movs	r0, #94	; 0x5e
 8000396:	f000 f849 	bl	800042c <send_Char>
 800039a:	683b      	ldr	r3, [r7, #0]
 800039c:	f023 0301 	bic.w	r3, r3, #1
 80003a0:	04db      	lsls	r3, r3, #19
 80003a2:	0cdb      	lsrs	r3, r3, #19
 80003a4:	603b      	str	r3, [r7, #0]
 80003a6:	b043      	add	sp, #268	; 0x10c
 80003a8:	e8bd 4ff0 	ldmia.w	sp!, {r4, r5, r6, r7, r8, r9, sl, fp, lr}
 80003ac:	f7ff bf04 	b.w	80001b8 <lock_Flash>
 80003b0:	b043      	add	sp, #268	; 0x10c
 80003b2:	e8bd 8ff0 	ldmia.w	sp!, {r4, r5, r6, r7, r8, r9, sl, fp, pc}
 80003b6:	bf00      	nop
 80003b8:	40022010 	.word	0x40022010
 80003bc:	ffff0000 	.word	0xffff0000

080003c0 <loader>:
 80003c0:	b508      	push	{r3, lr}
 80003c2:	4815      	ldr	r0, [pc, #84]	; (8000418 <loader+0x58>)
 80003c4:	f000 f84e 	bl	8000464 <send_Str>
 80003c8:	4b14      	ldr	r3, [pc, #80]	; (800041c <loader+0x5c>)
 80003ca:	4915      	ldr	r1, [pc, #84]	; (8000420 <loader+0x60>)
 80003cc:	681a      	ldr	r2, [r3, #0]
 80003ce:	f042 0201 	orr.w	r2, r2, #1
 80003d2:	601a      	str	r2, [r3, #0]
 80003d4:	6808      	ldr	r0, [r1, #0]
 80003d6:	4a13      	ldr	r2, [pc, #76]	; (8000424 <loader+0x64>)
 80003d8:	4002      	ands	r2, r0
 80003da:	600a      	str	r2, [r1, #0]
 80003dc:	681a      	ldr	r2, [r3, #0]
 80003de:	f022 7284 	bic.w	r2, r2, #17301504	; 0x1080000
 80003e2:	f422 3280 	bic.w	r2, r2, #65536	; 0x10000
 80003e6:	601a      	str	r2, [r3, #0]
 80003e8:	681a      	ldr	r2, [r3, #0]
 80003ea:	f422 2280 	bic.w	r2, r2, #262144	; 0x40000
 80003ee:	601a      	str	r2, [r3, #0]
 80003f0:	f44f 021f 	mov.w	r2, #10420224	; 0x9f0000
 80003f4:	680b      	ldr	r3, [r1, #0]
 80003f6:	f423 03fe 	bic.w	r3, r3, #8323072	; 0x7f0000
 80003fa:	600b      	str	r3, [r1, #0]
 80003fc:	4b0a      	ldr	r3, [pc, #40]	; (8000428 <loader+0x68>)
 80003fe:	601a      	str	r2, [r3, #0]
 8000400:	2230      	movs	r2, #48	; 0x30
 8000402:	f8c3 2ff8 	str.w	r2, [r3, #4088]	; 0xff8
 8000406:	f7ff feeb 	bl	80001e0 <erase_Flash>
 800040a:	f7ff fea3 	bl	8000154 <debug_Hex_Load>
 800040e:	e8bd 4008 	ldmia.w	sp!, {r3, lr}
 8000412:	f7ff bf3d 	b.w	8000290 <get_Ihex>
 8000416:	bf00      	nop
 8000418:	08000729 	.word	0x08000729
 800041c:	40021000 	.word	0x40021000
 8000420:	40021004 	.word	0x40021004
 8000424:	f0ff0000 	.word	0xf0ff0000
 8000428:	40021008 	.word	0x40021008

0800042c <send_Char>:
 800042c:	4a03      	ldr	r2, [pc, #12]	; (800043c <send_Char+0x10>)
 800042e:	6813      	ldr	r3, [r2, #0]
 8000430:	061b      	lsls	r3, r3, #24
 8000432:	d5fc      	bpl.n	800042e <send_Char+0x2>
 8000434:	4b02      	ldr	r3, [pc, #8]	; (8000440 <send_Char+0x14>)
 8000436:	6018      	str	r0, [r3, #0]
 8000438:	4770      	bx	lr
 800043a:	bf00      	nop
 800043c:	40013800 	.word	0x40013800
 8000440:	40013804 	.word	0x40013804

08000444 <send_Byte>:
 8000444:	b510      	push	{r4, lr}
 8000446:	4c06      	ldr	r4, [pc, #24]	; (8000460 <send_Byte+0x1c>)
 8000448:	0903      	lsrs	r3, r0, #4
 800044a:	4601      	mov	r1, r0
 800044c:	5ce0      	ldrb	r0, [r4, r3]
 800044e:	f7ff ffed 	bl	800042c <send_Char>
 8000452:	f001 010f 	and.w	r1, r1, #15
 8000456:	5c60      	ldrb	r0, [r4, r1]
 8000458:	e8bd 4010 	ldmia.w	sp!, {r4, lr}
 800045c:	f7ff bfe6 	b.w	800042c <send_Char>
 8000460:	0800074c 	.word	0x0800074c

08000464 <send_Str>:
 8000464:	b508      	push	{r3, lr}
 8000466:	1e41      	subs	r1, r0, #1
 8000468:	f811 0f01 	ldrb.w	r0, [r1, #1]!
 800046c:	b900      	cbnz	r0, 8000470 <send_Str+0xc>
 800046e:	bd08      	pop	{r3, pc}
 8000470:	f7ff ffdc 	bl	800042c <send_Char>
 8000474:	e7f8      	b.n	8000468 <send_Str+0x4>
	...

08000478 <receive_Char>:
 8000478:	4a03      	ldr	r2, [pc, #12]	; (8000488 <receive_Char+0x10>)
 800047a:	6813      	ldr	r3, [r2, #0]
 800047c:	069b      	lsls	r3, r3, #26
 800047e:	d5fc      	bpl.n	800047a <receive_Char+0x2>
 8000480:	4b02      	ldr	r3, [pc, #8]	; (800048c <receive_Char+0x14>)
 8000482:	6818      	ldr	r0, [r3, #0]
 8000484:	b2c0      	uxtb	r0, r0
 8000486:	4770      	bx	lr
 8000488:	40013800 	.word	0x40013800
 800048c:	40013804 	.word	0x40013804

08000490 <char_Byte>:
 8000490:	b538      	push	{r3, r4, r5, lr}
 8000492:	f7ff fff1 	bl	8000478 <receive_Char>
 8000496:	2300      	movs	r3, #0
 8000498:	4a0d      	ldr	r2, [pc, #52]	; (80004d0 <char_Byte+0x40>)
 800049a:	4619      	mov	r1, r3
 800049c:	4614      	mov	r4, r2
 800049e:	5c9d      	ldrb	r5, [r3, r2]
 80004a0:	4285      	cmp	r5, r0
 80004a2:	d00e      	beq.n	80004c2 <char_Byte+0x32>
 80004a4:	3301      	adds	r3, #1
 80004a6:	2b10      	cmp	r3, #16
 80004a8:	d1f9      	bne.n	800049e <char_Byte+0xe>
 80004aa:	f7ff ffe5 	bl	8000478 <receive_Char>
 80004ae:	2300      	movs	r3, #0
 80004b0:	5ce5      	ldrb	r5, [r4, r3]
 80004b2:	b2da      	uxtb	r2, r3
 80004b4:	4285      	cmp	r5, r0
 80004b6:	d007      	beq.n	80004c8 <char_Byte+0x38>
 80004b8:	3301      	adds	r3, #1
 80004ba:	2b10      	cmp	r3, #16
 80004bc:	d1f8      	bne.n	80004b0 <char_Byte+0x20>
 80004be:	4608      	mov	r0, r1
 80004c0:	bd38      	pop	{r3, r4, r5, pc}
 80004c2:	0119      	lsls	r1, r3, #4
 80004c4:	b2c9      	uxtb	r1, r1
 80004c6:	e7ed      	b.n	80004a4 <char_Byte+0x14>
 80004c8:	4411      	add	r1, r2
 80004ca:	b2c9      	uxtb	r1, r1
 80004cc:	e7f4      	b.n	80004b8 <char_Byte+0x28>
 80004ce:	bf00      	nop
 80004d0:	0800074c 	.word	0x0800074c

080004d4 <receive_CharN>:
 80004d4:	4b04      	ldr	r3, [pc, #16]	; (80004e8 <receive_CharN+0x14>)
 80004d6:	681b      	ldr	r3, [r3, #0]
 80004d8:	069b      	lsls	r3, r3, #26
 80004da:	bf52      	itee	pl
 80004dc:	20ff      	movpl	r0, #255	; 0xff
 80004de:	4b03      	ldrmi	r3, [pc, #12]	; (80004ec <receive_CharN+0x18>)
 80004e0:	6818      	ldrmi	r0, [r3, #0]
 80004e2:	b2c0      	uxtb	r0, r0
 80004e4:	4770      	bx	lr
 80004e6:	bf00      	nop
 80004e8:	40013800 	.word	0x40013800
 80004ec:	40013804 	.word	0x40013804

080004f0 <console_Startup>:
 80004f0:	2300      	movs	r3, #0
 80004f2:	4908      	ldr	r1, [pc, #32]	; (8000514 <console_Startup+0x24>)
 80004f4:	4a08      	ldr	r2, [pc, #32]	; (8000518 <console_Startup+0x28>)
 80004f6:	6013      	str	r3, [r2, #0]
 80004f8:	600b      	str	r3, [r1, #0]
 80004fa:	604b      	str	r3, [r1, #4]
 80004fc:	608b      	str	r3, [r1, #8]
 80004fe:	2145      	movs	r1, #69	; 0x45
 8000500:	4b06      	ldr	r3, [pc, #24]	; (800051c <console_Startup+0x2c>)
 8000502:	6019      	str	r1, [r3, #0]
 8000504:	6813      	ldr	r3, [r2, #0]
 8000506:	f443 5350 	orr.w	r3, r3, #13312	; 0x3400
 800050a:	f043 030c 	orr.w	r3, r3, #12
 800050e:	6013      	str	r3, [r2, #0]
 8000510:	4770      	bx	lr
 8000512:	bf00      	nop
 8000514:	40013810 	.word	0x40013810
 8000518:	4001380c 	.word	0x4001380c
 800051c:	40013808 	.word	0x40013808

08000520 <status_Startup>:
 8000520:	4770      	bx	lr
	...

08000524 <status_Fast_LED>:
 8000524:	4a0b      	ldr	r2, [pc, #44]	; (8000554 <status_Fast_LED+0x30>)
 8000526:	6813      	ldr	r3, [r2, #0]
 8000528:	f443 5300 	orr.w	r3, r3, #8192	; 0x2000
 800052c:	6013      	str	r3, [r2, #0]
 800052e:	f64f 73ff 	movw	r3, #65535	; 0xffff
 8000532:	3b01      	subs	r3, #1
 8000534:	b29b      	uxth	r3, r3
 8000536:	2b00      	cmp	r3, #0
 8000538:	d1fb      	bne.n	8000532 <status_Fast_LED+0xe>
 800053a:	4a07      	ldr	r2, [pc, #28]	; (8000558 <status_Fast_LED+0x34>)
 800053c:	6813      	ldr	r3, [r2, #0]
 800053e:	f443 5300 	orr.w	r3, r3, #8192	; 0x2000
 8000542:	6013      	str	r3, [r2, #0]
 8000544:	f64f 73ff 	movw	r3, #65535	; 0xffff
 8000548:	3b01      	subs	r3, #1
 800054a:	b29b      	uxth	r3, r3
 800054c:	2b00      	cmp	r3, #0
 800054e:	d1fb      	bne.n	8000548 <status_Fast_LED+0x24>
 8000550:	4770      	bx	lr
 8000552:	bf00      	nop
 8000554:	40011010 	.word	0x40011010
 8000558:	40011014 	.word	0x40011014

0800055c <switcher_Handler>:
 800055c:	4a02      	ldr	r2, [pc, #8]	; (8000568 <switcher_Handler+0xc>)
 800055e:	6813      	ldr	r3, [r2, #0]
 8000560:	f043 6300 	orr.w	r3, r3, #134217728	; 0x8000000
 8000564:	6013      	str	r3, [r2, #0]
 8000566:	4770      	bx	lr
 8000568:	e000ed04 	.word	0xe000ed04

0800056c <sysTick_Handler>:
 800056c:	4b07      	ldr	r3, [pc, #28]	; (800058c <sysTick_Handler+0x20>)
 800056e:	681a      	ldr	r2, [r3, #0]
 8000570:	3201      	adds	r2, #1
 8000572:	601a      	str	r2, [r3, #0]
 8000574:	4a06      	ldr	r2, [pc, #24]	; (8000590 <sysTick_Handler+0x24>)
 8000576:	6812      	ldr	r2, [r2, #0]
 8000578:	681b      	ldr	r3, [r3, #0]
 800057a:	429a      	cmp	r2, r3
 800057c:	bf01      	itttt	eq
 800057e:	4a05      	ldreq	r2, [pc, #20]	; (8000594 <sysTick_Handler+0x28>)
 8000580:	6813      	ldreq	r3, [r2, #0]
 8000582:	f043 5380 	orreq.w	r3, r3, #268435456	; 0x10000000
 8000586:	6013      	streq	r3, [r2, #0]
 8000588:	4770      	bx	lr
 800058a:	bf00      	nop
 800058c:	20000004 	.word	0x20000004
 8000590:	20000000 	.word	0x20000000
 8000594:	e000ed04 	.word	0xe000ed04

08000598 <reset_hdlr>:
 8000598:	4a2a      	ldr	r2, [pc, #168]	; (8000644 <reset_hdlr+0xac>)
 800059a:	b508      	push	{r3, lr}
 800059c:	6813      	ldr	r3, [r2, #0]
 800059e:	f443 3380 	orr.w	r3, r3, #65536	; 0x10000
 80005a2:	6013      	str	r3, [r2, #0]
 80005a4:	6813      	ldr	r3, [r2, #0]
 80005a6:	0398      	lsls	r0, r3, #14
 80005a8:	d5fc      	bpl.n	80005a4 <reset_hdlr+0xc>
 80005aa:	211a      	movs	r1, #26
 80005ac:	4b26      	ldr	r3, [pc, #152]	; (8000648 <reset_hdlr+0xb0>)
 80005ae:	6019      	str	r1, [r3, #0]
 80005b0:	f6a3 73fc 	subw	r3, r3, #4092	; 0xffc
 80005b4:	6818      	ldr	r0, [r3, #0]
 80005b6:	f1a1 61e8 	sub.w	r1, r1, #121634816	; 0x7400000
 80005ba:	390e      	subs	r1, #14
 80005bc:	4001      	ands	r1, r0
 80005be:	6019      	str	r1, [r3, #0]
 80005c0:	6819      	ldr	r1, [r3, #0]
 80005c2:	f441 11e8 	orr.w	r1, r1, #1900544	; 0x1d0000
 80005c6:	f441 6180 	orr.w	r1, r1, #1024	; 0x400
 80005ca:	6019      	str	r1, [r3, #0]
 80005cc:	6811      	ldr	r1, [r2, #0]
 80005ce:	f041 7180 	orr.w	r1, r1, #16777216	; 0x1000000
 80005d2:	6011      	str	r1, [r2, #0]
 80005d4:	6811      	ldr	r1, [r2, #0]
 80005d6:	0189      	lsls	r1, r1, #6
 80005d8:	d5fc      	bpl.n	80005d4 <reset_hdlr+0x3c>
 80005da:	681a      	ldr	r2, [r3, #0]
 80005dc:	f042 0202 	orr.w	r2, r2, #2
 80005e0:	601a      	str	r2, [r3, #0]
 80005e2:	681a      	ldr	r2, [r3, #0]
 80005e4:	f002 020c 	and.w	r2, r2, #12
 80005e8:	2a08      	cmp	r2, #8
 80005ea:	d1fa      	bne.n	80005e2 <reset_hdlr+0x4a>
 80005ec:	f44f 021f 	mov.w	r2, #10420224	; 0x9f0000
 80005f0:	4b16      	ldr	r3, [pc, #88]	; (800064c <reset_hdlr+0xb4>)
 80005f2:	601a      	str	r2, [r3, #0]
 80005f4:	4a16      	ldr	r2, [pc, #88]	; (8000650 <reset_hdlr+0xb8>)
 80005f6:	6813      	ldr	r3, [r2, #0]
 80005f8:	f443 4380 	orr.w	r3, r3, #16384	; 0x4000
 80005fc:	f043 0305 	orr.w	r3, r3, #5
 8000600:	6013      	str	r3, [r2, #0]
 8000602:	4b14      	ldr	r3, [pc, #80]	; (8000654 <reset_hdlr+0xbc>)
 8000604:	681a      	ldr	r2, [r3, #0]
 8000606:	f022 02f0 	bic.w	r2, r2, #240	; 0xf0
 800060a:	601a      	str	r2, [r3, #0]
 800060c:	681a      	ldr	r2, [r3, #0]
 800060e:	f042 0290 	orr.w	r2, r2, #144	; 0x90
 8000612:	601a      	str	r2, [r3, #0]
 8000614:	f7ff ff84 	bl	8000520 <status_Startup>
 8000618:	f7ff ff6a 	bl	80004f0 <console_Startup>
 800061c:	f7ff ff5a 	bl	80004d4 <receive_CharN>
 8000620:	4604      	mov	r4, r0
 8000622:	f7ff ff7f 	bl	8000524 <status_Fast_LED>
 8000626:	2c62      	cmp	r4, #98	; 0x62
 8000628:	d108      	bne.n	800063c <reset_hdlr+0xa4>
 800062a:	f7ff fec9 	bl	80003c0 <loader>
 800062e:	f7ff fd7f 	bl	8000130 <debug_Boot_Finished>
 8000632:	f7ff fd89 	bl	8000148 <debug_User_Jump>
 8000636:	f000 f811 	bl	800065c <User_Jump>
 800063a:	e7fe      	b.n	800063a <reset_hdlr+0xa2>
 800063c:	2c72      	cmp	r4, #114	; 0x72
 800063e:	d1ed      	bne.n	800061c <reset_hdlr+0x84>
 8000640:	e7f7      	b.n	8000632 <reset_hdlr+0x9a>
 8000642:	bf00      	nop
 8000644:	40021000 	.word	0x40021000
 8000648:	40022000 	.word	0x40022000
 800064c:	40021008 	.word	0x40021008
 8000650:	40021018 	.word	0x40021018
 8000654:	40010804 	.word	0x40010804

08000658 <hold_hdlr>:
 8000658:	e7fe      	b.n	8000658 <hold_hdlr>
	...

0800065c <User_Jump>:
 800065c:	b672      	cpsid	i
 800065e:	4803      	ldr	r0, [pc, #12]	; (800066c <User_Jump+0x10>)
 8000660:	f380 8808 	msr	MSP, r0
 8000664:	4802      	ldr	r0, [pc, #8]	; (8000670 <User_Jump+0x14>)
 8000666:	6841      	ldr	r1, [r0, #4]
 8000668:	4708      	bx	r1
 800066a:	0000      	.short	0x0000
 800066c:	20005000 	.word	0x20005000
 8000670:	08000800 	.word	0x08000800
 8000674:	6f420a0d 	.word	0x6f420a0d
 8000678:	6f6c746f 	.word	0x6f6c746f
 800067c:	72656461 	.word	0x72656461
 8000680:	6e694620 	.word	0x6e694620
 8000684:	65687369 	.word	0x65687369
 8000688:	2e64      	.short	0x2e64
 800068a:	00          	.byte	0x00
 800068b:	0d          	.byte	0x0d
 800068c:	7272450a 	.word	0x7272450a
 8000690:	6520726f 	.word	0x6520726f
 8000694:	69736172 	.word	0x69736172
 8000698:	6620676e 	.word	0x6620676e
 800069c:	6873616c 	.word	0x6873616c
 80006a0:	0021      	.short	0x0021
 80006a2:	0a0d      	.short	0x0a0d
 80006a4:	74696157 	.word	0x74696157
 80006a8:	20676e69 	.word	0x20676e69
 80006ac:	20726f66 	.word	0x20726f66
 80006b0:	7865682e 	.word	0x7865682e
 80006b4:	6c696620 	.word	0x6c696620
 80006b8:	2e65      	.short	0x2e65
 80006ba:	00          	.byte	0x00
 80006bb:	0d          	.byte	0x0d
 80006bc:	6464410a 	.word	0x6464410a
 80006c0:	73736572 	.word	0x73736572
 80006c4:	74756f20 	.word	0x74756f20
 80006c8:	20666f20 	.word	0x20666f20
 80006cc:	676e6172 	.word	0x676e6172
 80006d0:	2165      	.short	0x2165
 80006d2:	00          	.byte	0x00
 80006d3:	0d          	.byte	0x0d
 80006d4:	766e490a 	.word	0x766e490a
 80006d8:	64696c61 	.word	0x64696c61
 80006dc:	65686320 	.word	0x65686320
 80006e0:	75736b63 	.word	0x75736b63
 80006e4:	216d      	.short	0x216d
 80006e6:	00          	.byte	0x00
 80006e7:	0d          	.byte	0x0d
 80006e8:	766e490a 	.word	0x766e490a
 80006ec:	64696c61 	.word	0x64696c61
 80006f0:	65722065 	.word	0x65722065
 80006f4:	64726f63 	.word	0x64726f63
 80006f8:	0021      	.short	0x0021
 80006fa:	0a0d      	.short	0x0a0d
 80006fc:	706d754a 	.word	0x706d754a
 8000700:	20676e69 	.word	0x20676e69
 8000704:	75206f74 	.word	0x75206f74
 8000708:	20726573 	.word	0x20726573
 800070c:	65646f63 	.word	0x65646f63
 8000710:	002e      	.short	0x002e
 8000712:	0a0d      	.short	0x0a0d
 8000714:	74697257 	.word	0x74697257
 8000718:	65762065 	.word	0x65762065
 800071c:	79666972 	.word	0x79666972
 8000720:	69616620 	.word	0x69616620
 8000724:	2164656c 	.word	0x2164656c
 8000728:	00          	.byte	0x00
 8000729:	0d          	.byte	0x0d
 800072a:	420a      	.short	0x420a
 800072c:	2065756c 	.word	0x2065756c
 8000730:	6174654d 	.word	0x6174654d
 8000734:	6c42206c 	.word	0x6c42206c
 8000738:	50206575 	.word	0x50206575
 800073c:	206c6c69 	.word	0x206c6c69
 8000740:	746f6f42 	.word	0x746f6f42
 8000744:	64616f6c 	.word	0x64616f6c
 8000748:	002e7265 	.word	0x002e7265

0800074c <Lookup>:
 800074c:	33323130 37363534 42413938 46454443     0123456789ABCDEF
 800075c:	00000000                                ....
