
Flash_Dump.hex:     file format binary


Disassembly of section .data:

00000000 <.data>:
       0:	4b0a      	ldr	r3, [pc, #40]	; (0x2c)
       2:	681a      	ldr	r2, [r3, #0]
       4:	f022 02f0 	bic.w	r2, r2, #240	; 0xf0
       8:	601a      	str	r2, [r3, #0]
       a:	681a      	ldr	r2, [r3, #0]
       c:	f042 0290 	orr.w	r2, r2, #144	; 0x90
      10:	601a      	str	r2, [r3, #0]
      12:	f8d3 2800 	ldr.w	r2, [r3, #2048]	; 0x800
      16:	f422 0270 	bic.w	r2, r2, #15728640	; 0xf00000
      1a:	f8c3 2800 	str.w	r2, [r3, #2048]	; 0x800
      1e:	f8d3 2800 	ldr.w	r2, [r3, #2048]	; 0x800
      22:	f442 1200 	orr.w	r2, r2, #2097152	; 0x200000
      26:	f8c3 2800 	str.w	r2, [r3, #2048]	; 0x800
      2a:	4770      	bx	lr
      2c:	0804      	lsrs	r4, r0, #32
      2e:	4001      	ands	r1, r0
      30:	4b03      	ldr	r3, [pc, #12]	; (0x40)
      32:	681b      	ldr	r3, [r3, #0]
      34:	061b      	lsls	r3, r3, #24
      36:	d5fb      	bpl.n	0x30
      38:	4b02      	ldr	r3, [pc, #8]	; (0x44)
      3a:	6018      	str	r0, [r3, #0]
      3c:	4770      	bx	lr
      3e:	bf00      	nop
      40:	3800      	subs	r0, #0
      42:	4001      	ands	r1, r0
      44:	3804      	subs	r0, #4
      46:	4001      	ands	r1, r0
      48:	b510      	push	{r4, lr}
      4a:	1e44      	subs	r4, r0, #1
      4c:	f814 0f01 	ldrb.w	r0, [r4, #1]!
      50:	b110      	cbz	r0, 0x58
      52:	f7ff ffed 	bl	0x30
      56:	e7f9      	b.n	0x4c
      58:	bd10      	pop	{r4, pc}
      5a:	0000      	movs	r0, r0
      5c:	4a0b      	ldr	r2, [pc, #44]	; (0x8c)
      5e:	490c      	ldr	r1, [pc, #48]	; (0x90)
      60:	2300      	movs	r3, #0
      62:	2045      	movs	r0, #69	; 0x45
      64:	600b      	str	r3, [r1, #0]
      66:	6013      	str	r3, [r2, #0]
      68:	6053      	str	r3, [r2, #4]
      6a:	6093      	str	r3, [r2, #8]
      6c:	f842 0c08 	str.w	r0, [r2, #-8]
      70:	680a      	ldr	r2, [r1, #0]
      72:	4808      	ldr	r0, [pc, #32]	; (0x94)
      74:	f442 5250 	orr.w	r2, r2, #13312	; 0x3400
      78:	f042 020c 	orr.w	r2, r2, #12
      7c:	600a      	str	r2, [r1, #0]
      7e:	4a06      	ldr	r2, [pc, #24]	; (0x98)
      80:	7013      	strb	r3, [r2, #0]
      82:	4a06      	ldr	r2, [pc, #24]	; (0x9c)
      84:	f882 30fe 	strb.w	r3, [r2, #254]	; 0xfe
      88:	f7ff bfde 	b.w	0x48
      8c:	3810      	subs	r0, #16
      8e:	4001      	ands	r1, r0
      90:	380c      	subs	r0, #12
      92:	4001      	ands	r1, r0
      94:	0638      	lsls	r0, r7, #24
      96:	0800      	lsrs	r0, r0, #32
      98:	0000      	movs	r0, r0
      9a:	2000      	movs	r0, #0
      9c:	0001      	movs	r1, r0
      9e:	2000      	movs	r0, #0
      a0:	4b04      	ldr	r3, [pc, #16]	; (0xb4)
      a2:	681b      	ldr	r3, [r3, #0]
      a4:	069b      	lsls	r3, r3, #26
      a6:	bf43      	ittte	mi
      a8:	4b03      	ldrmi	r3, [pc, #12]	; (0xb8)
      aa:	6818      	ldrmi	r0, [r3, #0]
      ac:	b2c0      	uxtbmi	r0, r0
      ae:	20ff      	movpl	r0, #255	; 0xff
      b0:	4770      	bx	lr
      b2:	bf00      	nop
      b4:	3800      	subs	r0, #0
      b6:	4001      	ands	r1, r0
      b8:	3804      	subs	r0, #4
      ba:	4001      	ands	r1, r0
      bc:	b538      	push	{r3, r4, r5, lr}
      be:	f7ff ffef 	bl	0xa0
      c2:	280a      	cmp	r0, #10
      c4:	4c13      	ldr	r4, [pc, #76]	; (0x114)
      c6:	d10f      	bne.n	0xe8
      c8:	2300      	movs	r3, #0
      ca:	7822      	ldrb	r2, [r4, #0]
      cc:	1c5d      	adds	r5, r3, #1
      ce:	b2db      	uxtb	r3, r3
      d0:	429a      	cmp	r2, r3
      d2:	d305      	bcc.n	0xe0
      d4:	4a10      	ldr	r2, [pc, #64]	; (0x118)
      d6:	5cd0      	ldrb	r0, [r2, r3]
      d8:	f7ff ffaa 	bl	0x30
      dc:	462b      	mov	r3, r5
      de:	e7f4      	b.n	0xca
      e0:	2300      	movs	r3, #0
      e2:	7023      	strb	r3, [r4, #0]
      e4:	480d      	ldr	r0, [pc, #52]	; (0x11c)
      e6:	e006      	b.n	0xf6
      e8:	2808      	cmp	r0, #8
      ea:	d108      	bne.n	0xfe
      ec:	7823      	ldrb	r3, [r4, #0]
      ee:	b133      	cbz	r3, 0xfe
      f0:	3b01      	subs	r3, #1
      f2:	480b      	ldr	r0, [pc, #44]	; (0x120)
      f4:	7023      	strb	r3, [r4, #0]
      f6:	e8bd 4038 	ldmia.w	sp!, {r3, r4, r5, lr}
      fa:	f7ff bfa5 	b.w	0x48
      fe:	7823      	ldrb	r3, [r4, #0]
     100:	2bfd      	cmp	r3, #253	; 0xfd
     102:	d8ed      	bhi.n	0xe0
     104:	4a03      	ldr	r2, [pc, #12]	; (0x114)
     106:	3301      	adds	r3, #1
     108:	b2db      	uxtb	r3, r3
     10a:	7013      	strb	r3, [r2, #0]
     10c:	4a02      	ldr	r2, [pc, #8]	; (0x118)
     10e:	54d0      	strb	r0, [r2, r3]
     110:	bd38      	pop	{r3, r4, r5, pc}
     112:	bf00      	nop
     114:	0000      	movs	r0, r0
     116:	2000      	movs	r0, #0
     118:	0001      	movs	r1, r0
     11a:	2000      	movs	r0, #0
     11c:	0638      	lsls	r0, r7, #24
     11e:	0800      	lsrs	r0, r0, #32
     120:	0643      	lsls	r3, r0, #25
     122:	0800      	lsrs	r0, r0, #32
     124:	4a0b      	ldr	r2, [pc, #44]	; (0x154)
     126:	6813      	ldr	r3, [r2, #0]
     128:	f443 5300 	orr.w	r3, r3, #8192	; 0x2000
     12c:	6013      	str	r3, [r2, #0]
     12e:	f64f 73ff 	movw	r3, #65535	; 0xffff
     132:	3b01      	subs	r3, #1
     134:	b29b      	uxth	r3, r3
     136:	2b00      	cmp	r3, #0
     138:	d1fb      	bne.n	0x132
     13a:	4a07      	ldr	r2, [pc, #28]	; (0x158)
     13c:	6813      	ldr	r3, [r2, #0]
     13e:	f443 5300 	orr.w	r3, r3, #8192	; 0x2000
     142:	6013      	str	r3, [r2, #0]
     144:	f64f 73ff 	movw	r3, #65535	; 0xffff
     148:	3b01      	subs	r3, #1
     14a:	b29b      	uxth	r3, r3
     14c:	2b00      	cmp	r3, #0
     14e:	d1fb      	bne.n	0x148
     150:	4770      	bx	lr
     152:	bf00      	nop
     154:	1010      	asrs	r0, r2, #32
     156:	4001      	ands	r1, r0
     158:	1014      	asrs	r4, r2, #32
     15a:	4001      	ands	r1, r0
     15c:	b672      	cpsid	i
     15e:	4a19      	ldr	r2, [pc, #100]	; (0x1c4)
     160:	6813      	ldr	r3, [r2, #0]
     162:	f043 6300 	orr.w	r3, r3, #134217728	; 0x8000000
     166:	6013      	str	r3, [r2, #0]
     168:	4a17      	ldr	r2, [pc, #92]	; (0x1c8)
     16a:	7813      	ldrb	r3, [r2, #0]
     16c:	b133      	cbz	r3, 0x17c
     16e:	f3ef 8109 	mrs	r1, PSP
     172:	7813      	ldrb	r3, [r2, #0]
     174:	4815      	ldr	r0, [pc, #84]	; (0x1cc)
     176:	b2db      	uxtb	r3, r3
     178:	f840 1023 	str.w	r1, [r0, r3, lsl #2]
     17c:	4b14      	ldr	r3, [pc, #80]	; (0x1d0)
     17e:	7819      	ldrb	r1, [r3, #0]
     180:	3101      	adds	r1, #1
     182:	b2c9      	uxtb	r1, r1
     184:	7019      	strb	r1, [r3, #0]
     186:	4913      	ldr	r1, [pc, #76]	; (0x1d4)
     188:	7818      	ldrb	r0, [r3, #0]
     18a:	7809      	ldrb	r1, [r1, #0]
     18c:	4288      	cmp	r0, r1
     18e:	bf24      	itt	cs
     190:	2100      	movcs	r1, #0
     192:	7019      	strbcs	r1, [r3, #0]
     194:	781b      	ldrb	r3, [r3, #0]
     196:	4910      	ldr	r1, [pc, #64]	; (0x1d8)
     198:	b2db      	uxtb	r3, r3
     19a:	f811 3033 	ldrb.w	r3, [r1, r3, lsl #3]
     19e:	b2db      	uxtb	r3, r3
     1a0:	7013      	strb	r3, [r2, #0]
     1a2:	7813      	ldrb	r3, [r2, #0]
     1a4:	b14b      	cbz	r3, 0x1ba
     1a6:	4b08      	ldr	r3, [pc, #32]	; (0x1c8)
     1a8:	4a08      	ldr	r2, [pc, #32]	; (0x1cc)
     1aa:	781b      	ldrb	r3, [r3, #0]
     1ac:	b2db      	uxtb	r3, r3
     1ae:	f852 3023 	ldr.w	r3, [r2, r3, lsl #2]
     1b2:	b662      	cpsie	i
     1b4:	f06f 0f02 	mvn.w	pc, #2
     1b8:	4770      	bx	lr
     1ba:	b662      	cpsie	i
     1bc:	f06f 0f06 	mvn.w	pc, #6
     1c0:	4770      	bx	lr
     1c2:	bf00      	nop
     1c4:	ed04 e000 	stc	0, cr14, [r4, #-0]
     1c8:	0290      	lsls	r0, r2, #10
     1ca:	2000      	movs	r0, #0
     1cc:	0294      	lsls	r4, r2, #10
     1ce:	2000      	movs	r0, #0
     1d0:	0291      	lsls	r1, r2, #10
     1d2:	2000      	movs	r0, #0
     1d4:	02bc      	lsls	r4, r7, #10
     1d6:	2000      	movs	r0, #0
     1d8:	0100      	lsls	r0, r0, #4
     1da:	2000      	movs	r0, #0
     1dc:	b508      	push	{r3, lr}
     1de:	f000 f80b 	bl	0x1f8
     1e2:	f7ff ff0d 	bl	0x0
     1e6:	f7ff ff39 	bl	0x5c
     1ea:	f7ff ff67 	bl	0xbc
     1ee:	f7ff ff99 	bl	0x124
     1f2:	e7fa      	b.n	0x1ea
     1f4:	e7fe      	b.n	0x1f4
     1f6:	0000      	movs	r0, r0
     1f8:	4a03      	ldr	r2, [pc, #12]	; (0x208)
     1fa:	6813      	ldr	r3, [r2, #0]
     1fc:	f443 4380 	orr.w	r3, r3, #16384	; 0x4000
     200:	f043 0305 	orr.w	r3, r3, #5
     204:	6013      	str	r3, [r2, #0]
     206:	4770      	bx	lr
     208:	1018      	asrs	r0, r3, #32
     20a:	4002      	ands	r2, r0
     20c:	4b07      	ldr	r3, [pc, #28]	; (0x22c)
     20e:	681a      	ldr	r2, [r3, #0]
     210:	3201      	adds	r2, #1
     212:	601a      	str	r2, [r3, #0]
     214:	4a06      	ldr	r2, [pc, #24]	; (0x230)
     216:	6812      	ldr	r2, [r2, #0]
     218:	681b      	ldr	r3, [r3, #0]
     21a:	429a      	cmp	r2, r3
     21c:	bf01      	itttt	eq
     21e:	4a05      	ldreq	r2, [pc, #20]	; (0x234)
     220:	6813      	ldreq	r3, [r2, #0]
     222:	f043 5380 	orreq.w	r3, r3, #268435456	; 0x10000000
     226:	6013      	streq	r3, [r2, #0]
     228:	4770      	bx	lr
     22a:	bf00      	nop
     22c:	02c0      	lsls	r0, r0, #11
     22e:	2000      	movs	r0, #0
     230:	02c4      	lsls	r4, r0, #11
     232:	2000      	movs	r0, #0
     234:	ed04 e000 	stc	0, cr14, [r4, #-0]
     238:	420a      	tst	r2, r1
     23a:	756c      	strb	r4, [r5, #21]
     23c:	5f65      	ldrsh	r5, [r4, r5]
     23e:	534f      	strh	r7, [r1, r5]
     240:	3e5c      	subs	r6, #92	; 0x5c
     242:	0800      	lsrs	r0, r0, #32
     244:	0820      	lsrs	r0, r4, #32
     246:	0000      	movs	r0, r0
     248:	ffff ffff 			; <UNDEFINED> instruction: 0xffffffff
     24c:	ffff ffff 			; <UNDEFINED> instruction: 0xffffffff
     250:	ffff ffff 			; <UNDEFINED> instruction: 0xffffffff
     254:	ffff ffff 			; <UNDEFINED> instruction: 0xffffffff
     258:	ffff ffff 			; <UNDEFINED> instruction: 0xffffffff
     25c:	ffff ffff 			; <UNDEFINED> instruction: 0xffffffff
     260:	ffff ffff 			; <UNDEFINED> instruction: 0xffffffff
     264:	ffff ffff 			; <UNDEFINED> instruction: 0xffffffff
     268:	ffff ffff 			; <UNDEFINED> instruction: 0xffffffff
     26c:	ffff ffff 			; <UNDEFINED> instruction: 0xffffffff
     270:	ffff ffff 			; <UNDEFINED> instruction: 0xffffffff
     274:	ffff ffff 			; <UNDEFINED> instruction: 0xffffffff
     278:	ffff ffff 			; <UNDEFINED> instruction: 0xffffffff
     27c:	ffff ffff 			; <UNDEFINED> instruction: 0xffffffff
     280:	ffff ffff 			; <UNDEFINED> instruction: 0xffffffff
     284:	ffff ffff 			; <UNDEFINED> instruction: 0xffffffff
     288:	ffff ffff 			; <UNDEFINED> instruction: 0xffffffff
     28c:	ffff ffff 			; <UNDEFINED> instruction: 0xffffffff
     290:	ffff ffff 			; <UNDEFINED> instruction: 0xffffffff
     294:	ffff ffff 			; <UNDEFINED> instruction: 0xffffffff
     298:	ffff ffff 			; <UNDEFINED> instruction: 0xffffffff
     29c:	ffff ffff 			; <UNDEFINED> instruction: 0xffffffff
     2a0:	ffff ffff 			; <UNDEFINED> instruction: 0xffffffff
     2a4:	ffff ffff 			; <UNDEFINED> instruction: 0xffffffff
     2a8:	ffff ffff 			; <UNDEFINED> instruction: 0xffffffff
     2ac:	ffff ffff 			; <UNDEFINED> instruction: 0xffffffff
     2b0:	ffff ffff 			; <UNDEFINED> instruction: 0xffffffff
     2b4:	ffff ffff 			; <UNDEFINED> instruction: 0xffffffff
     2b8:	ffff ffff 			; <UNDEFINED> instruction: 0xffffffff
     2bc:	ffff ffff 			; <UNDEFINED> instruction: 0xffffffff
     2c0:	ffff ffff 			; <UNDEFINED> instruction: 0xffffffff
     2c4:	ffff ffff 			; <UNDEFINED> instruction: 0xffffffff
     2c8:	ffff ffff 			; <UNDEFINED> instruction: 0xffffffff
     2cc:	ffff ffff 			; <UNDEFINED> instruction: 0xffffffff
     2d0:	ffff ffff 			; <UNDEFINED> instruction: 0xffffffff
     2d4:	ffff ffff 			; <UNDEFINED> instruction: 0xffffffff
     2d8:	ffff ffff 			; <UNDEFINED> instruction: 0xffffffff
     2dc:	ffff ffff 			; <UNDEFINED> instruction: 0xffffffff
     2e0:	ffff ffff 			; <UNDEFINED> instruction: 0xffffffff
     2e4:	ffff ffff 			; <UNDEFINED> instruction: 0xffffffff
     2e8:	ffff ffff 			; <UNDEFINED> instruction: 0xffffffff
     2ec:	ffff ffff 			; <UNDEFINED> instruction: 0xffffffff
     2f0:	ffff ffff 			; <UNDEFINED> instruction: 0xffffffff
     2f4:	ffff ffff 			; <UNDEFINED> instruction: 0xffffffff
     2f8:	ffff ffff 			; <UNDEFINED> instruction: 0xffffffff
     2fc:	ffff ffff 			; <UNDEFINED> instruction: 0xffffffff
     300:	ffff ffff 			; <UNDEFINED> instruction: 0xffffffff
     304:	ffff ffff 			; <UNDEFINED> instruction: 0xffffffff
     308:	ffff ffff 			; <UNDEFINED> instruction: 0xffffffff
     30c:	ffff ffff 			; <UNDEFINED> instruction: 0xffffffff
     310:	ffff ffff 			; <UNDEFINED> instruction: 0xffffffff
     314:	ffff ffff 			; <UNDEFINED> instruction: 0xffffffff
     318:	ffff ffff 			; <UNDEFINED> instruction: 0xffffffff
     31c:	ffff ffff 			; <UNDEFINED> instruction: 0xffffffff
     320:	ffff ffff 			; <UNDEFINED> instruction: 0xffffffff
     324:	ffff ffff 			; <UNDEFINED> instruction: 0xffffffff
     328:	ffff ffff 			; <UNDEFINED> instruction: 0xffffffff
     32c:	ffff ffff 			; <UNDEFINED> instruction: 0xffffffff
     330:	ffff ffff 			; <UNDEFINED> instruction: 0xffffffff
     334:	ffff ffff 			; <UNDEFINED> instruction: 0xffffffff
     338:	ffff ffff 			; <UNDEFINED> instruction: 0xffffffff
     33c:	ffff ffff 			; <UNDEFINED> instruction: 0xffffffff
     340:	ffff ffff 			; <UNDEFINED> instruction: 0xffffffff
     344:	ffff ffff 			; <UNDEFINED> instruction: 0xffffffff
     348:	ffff ffff 			; <UNDEFINED> instruction: 0xffffffff
     34c:	ffff ffff 			; <UNDEFINED> instruction: 0xffffffff
     350:	ffff ffff 			; <UNDEFINED> instruction: 0xffffffff
     354:	ffff ffff 			; <UNDEFINED> instruction: 0xffffffff
     358:	ffff ffff 			; <UNDEFINED> instruction: 0xffffffff
     35c:	ffff ffff 			; <UNDEFINED> instruction: 0xffffffff
     360:	ffff ffff 			; <UNDEFINED> instruction: 0xffffffff
     364:	ffff ffff 			; <UNDEFINED> instruction: 0xffffffff
     368:	ffff ffff 			; <UNDEFINED> instruction: 0xffffffff
     36c:	ffff ffff 			; <UNDEFINED> instruction: 0xffffffff
     370:	ffff ffff 			; <UNDEFINED> instruction: 0xffffffff
     374:	ffff ffff 			; <UNDEFINED> instruction: 0xffffffff
     378:	ffff ffff 			; <UNDEFINED> instruction: 0xffffffff
     37c:	ffff ffff 			; <UNDEFINED> instruction: 0xffffffff
     380:	ffff ffff 			; <UNDEFINED> instruction: 0xffffffff
     384:	ffff ffff 			; <UNDEFINED> instruction: 0xffffffff
     388:	ffff ffff 			; <UNDEFINED> instruction: 0xffffffff
     38c:	ffff ffff 			; <UNDEFINED> instruction: 0xffffffff
     390:	ffff ffff 			; <UNDEFINED> instruction: 0xffffffff
     394:	ffff ffff 			; <UNDEFINED> instruction: 0xffffffff
     398:	ffff ffff 			; <UNDEFINED> instruction: 0xffffffff
     39c:	ffff ffff 			; <UNDEFINED> instruction: 0xffffffff
     3a0:	ffff ffff 			; <UNDEFINED> instruction: 0xffffffff
     3a4:	ffff ffff 			; <UNDEFINED> instruction: 0xffffffff
     3a8:	ffff ffff 			; <UNDEFINED> instruction: 0xffffffff
     3ac:	ffff ffff 			; <UNDEFINED> instruction: 0xffffffff
     3b0:	ffff ffff 			; <UNDEFINED> instruction: 0xffffffff
     3b4:	ffff ffff 			; <UNDEFINED> instruction: 0xffffffff
     3b8:	ffff ffff 			; <UNDEFINED> instruction: 0xffffffff
     3bc:	ffff ffff 			; <UNDEFINED> instruction: 0xffffffff
     3c0:	ffff ffff 			; <UNDEFINED> instruction: 0xffffffff
     3c4:	ffff ffff 			; <UNDEFINED> instruction: 0xffffffff
     3c8:	ffff ffff 			; <UNDEFINED> instruction: 0xffffffff
     3cc:	ffff ffff 			; <UNDEFINED> instruction: 0xffffffff
     3d0:	ffff ffff 			; <UNDEFINED> instruction: 0xffffffff
     3d4:	ffff ffff 			; <UNDEFINED> instruction: 0xffffffff
     3d8:	ffff ffff 			; <UNDEFINED> instruction: 0xffffffff
     3dc:	ffff ffff 			; <UNDEFINED> instruction: 0xffffffff
     3e0:	ffff ffff 			; <UNDEFINED> instruction: 0xffffffff
     3e4:	ffff ffff 			; <UNDEFINED> instruction: 0xffffffff
     3e8:	ffff ffff 			; <UNDEFINED> instruction: 0xffffffff
     3ec:	ffff ffff 			; <UNDEFINED> instruction: 0xffffffff
     3f0:	ffff ffff 			; <UNDEFINED> instruction: 0xffffffff
     3f4:	ffff ffff 			; <UNDEFINED> instruction: 0xffffffff
     3f8:	ffff ffff 			; <UNDEFINED> instruction: 0xffffffff
     3fc:	ffff ffff 			; <UNDEFINED> instruction: 0xffffffff
     400:	687b      	ldr	r3, [r7, #4]
     402:	4313      	orrs	r3, r2
     404:	60fb      	str	r3, [r7, #12]
     406:	4a04      	ldr	r2, [pc, #16]	; (0x418)
     408:	68fb      	ldr	r3, [r7, #12]
     40a:	6053      	str	r3, [r2, #4]
     40c:	bf00      	nop
     40e:	3714      	adds	r7, #20
     410:	46bd      	mov	sp, r7
     412:	bc80      	pop	{r7}
     414:	4770      	bx	lr
     416:	bf00      	nop
     418:	1000      	asrs	r0, r0, #32
     41a:	4002      	ands	r2, r0
     41c:	b480      	push	{r7}
     41e:	b085      	sub	sp, #20
     420:	af00      	add	r7, sp, #0
     422:	6078      	str	r0, [r7, #4]
     424:	2300      	movs	r3, #0
     426:	60fb      	str	r3, [r7, #12]
     428:	4b09      	ldr	r3, [pc, #36]	; (0x450)
     42a:	685b      	ldr	r3, [r3, #4]
     42c:	60fb      	str	r3, [r7, #12]
     42e:	68fb      	ldr	r3, [r7, #12]
     430:	f423 5360 	bic.w	r3, r3, #14336	; 0x3800
     434:	60fb      	str	r3, [r7, #12]
     436:	687b      	ldr	r3, [r7, #4]
     438:	00db      	lsls	r3, r3, #3
     43a:	68fa      	ldr	r2, [r7, #12]
     43c:	4313      	orrs	r3, r2
     43e:	60fb      	str	r3, [r7, #12]
     440:	4a03      	ldr	r2, [pc, #12]	; (0x450)
     442:	68fb      	ldr	r3, [r7, #12]
     444:	6053      	str	r3, [r2, #4]
     446:	bf00      	nop
     448:	3714      	adds	r7, #20
     44a:	46bd      	mov	sp, r7
     44c:	bc80      	pop	{r7}
     44e:	4770      	bx	lr
     450:	1000      	asrs	r0, r0, #32
     452:	4002      	ands	r2, r0
     454:	b480      	push	{r7}
     456:	b083      	sub	sp, #12
     458:	af00      	add	r7, sp, #0
     45a:	6078      	str	r0, [r7, #4]
     45c:	460b      	mov	r3, r1
     45e:	70fb      	strb	r3, [r7, #3]
     460:	78fb      	ldrb	r3, [r7, #3]
     462:	2b00      	cmp	r3, #0
     464:	d006      	beq.n	0x474
     466:	4909      	ldr	r1, [pc, #36]	; (0x48c)
     468:	4b08      	ldr	r3, [pc, #32]	; (0x48c)
     46a:	699a      	ldr	r2, [r3, #24]
     46c:	687b      	ldr	r3, [r7, #4]
     46e:	4313      	orrs	r3, r2
     470:	618b      	str	r3, [r1, #24]
     472:	e006      	b.n	0x482
     474:	4905      	ldr	r1, [pc, #20]	; (0x48c)
     476:	4b05      	ldr	r3, [pc, #20]	; (0x48c)
     478:	699a      	ldr	r2, [r3, #24]
     47a:	687b      	ldr	r3, [r7, #4]
     47c:	43db      	mvns	r3, r3
     47e:	4013      	ands	r3, r2
     480:	618b      	str	r3, [r1, #24]
     482:	bf00      	nop
     484:	370c      	adds	r7, #12
     486:	46bd      	mov	sp, r7
     488:	bc80      	pop	{r7}
     48a:	4770      	bx	lr
     48c:	1000      	asrs	r0, r0, #32
     48e:	4002      	ands	r2, r0
     490:	b480      	push	{r7}
     492:	b083      	sub	sp, #12
     494:	af00      	add	r7, sp, #0
     496:	6078      	str	r0, [r7, #4]
     498:	460b      	mov	r3, r1
     49a:	70fb      	strb	r3, [r7, #3]
     49c:	78fb      	ldrb	r3, [r7, #3]
     49e:	2b00      	cmp	r3, #0
     4a0:	d006      	beq.n	0x4b0
     4a2:	4909      	ldr	r1, [pc, #36]	; (0x4c8)
     4a4:	4b08      	ldr	r3, [pc, #32]	; (0x4c8)
     4a6:	69da      	ldr	r2, [r3, #28]
     4a8:	687b      	ldr	r3, [r7, #4]
     4aa:	4313      	orrs	r3, r2
     4ac:	61cb      	str	r3, [r1, #28]
     4ae:	e006      	b.n	0x4be
     4b0:	4905      	ldr	r1, [pc, #20]	; (0x4c8)
     4b2:	4b05      	ldr	r3, [pc, #20]	; (0x4c8)
     4b4:	69da      	ldr	r2, [r3, #28]
     4b6:	687b      	ldr	r3, [r7, #4]
     4b8:	43db      	mvns	r3, r3
     4ba:	4013      	ands	r3, r2
     4bc:	61cb      	str	r3, [r1, #28]
     4be:	bf00      	nop
     4c0:	370c      	adds	r7, #12
     4c2:	46bd      	mov	sp, r7
     4c4:	bc80      	pop	{r7}
     4c6:	4770      	bx	lr
     4c8:	1000      	asrs	r0, r0, #32
     4ca:	4002      	ands	r2, r0
     4cc:	b480      	push	{r7}
     4ce:	b085      	sub	sp, #20
     4d0:	af00      	add	r7, sp, #0
     4d2:	6078      	str	r0, [r7, #4]
     4d4:	6039      	str	r1, [r7, #0]
     4d6:	2300      	movs	r3, #0
     4d8:	81fb      	strh	r3, [r7, #14]
     4da:	687b      	ldr	r3, [r7, #4]
     4dc:	881b      	ldrh	r3, [r3, #0]
     4de:	81fb      	strh	r3, [r7, #14]
     4e0:	687b      	ldr	r3, [r7, #4]
     4e2:	4a2e      	ldr	r2, [pc, #184]	; (0x59c)
     4e4:	4293      	cmp	r3, r2
     4e6:	d013      	beq.n	0x510
     4e8:	687b      	ldr	r3, [r7, #4]
     4ea:	4a2d      	ldr	r2, [pc, #180]	; (0x5a0)
     4ec:	4293      	cmp	r3, r2
     4ee:	d00f      	beq.n	0x510
     4f0:	687b      	ldr	r3, [r7, #4]
     4f2:	f1b3 4f80 	cmp.w	r3, #1073741824	; 0x40000000
     4f6:	d00b      	beq.n	0x510
     4f8:	687b      	ldr	r3, [r7, #4]
     4fa:	4a2a      	ldr	r2, [pc, #168]	; (0x5a4)
     4fc:	4293      	cmp	r3, r2
     4fe:	d007      	beq.n	0x510
     500:	687b      	ldr	r3, [r7, #4]
     502:	4a29      	ldr	r2, [pc, #164]	; (0x5a8)
     504:	4293      	cmp	r3, r2
     506:	d003      	beq.n	0x510
     508:	687b      	ldr	r3, [r7, #4]
     50a:	4a28      	ldr	r2, [pc, #160]	; (0x5ac)
     50c:	4293      	cmp	r3, r2
     50e:	d108      	bne.n	0x522
     510:	89fb      	ldrh	r3, [r7, #14]
     512:	f023 0370 	bic.w	r3, r3, #112	; 0x70
     516:	81fb      	strh	r3, [r7, #14]
     518:	683b      	ldr	r3, [r7, #0]
     51a:	885a      	ldrh	r2, [r3, #2]
     51c:	89fb      	ldrh	r3, [r7, #14]
     51e:	4313      	orrs	r3, r2
     520:	81fb      	strh	r3, [r7, #14]
     522:	687b      	ldr	r3, [r7, #4]
     524:	4a22      	ldr	r2, [pc, #136]	; (0x5b0)
     526:	4293      	cmp	r3, r2
     528:	d00c      	beq.n	0x544
     52a:	687b      	ldr	r3, [r7, #4]
     52c:	4a21      	ldr	r2, [pc, #132]	; (0x5b4)
     52e:	4293      	cmp	r3, r2
     530:	d008      	beq.n	0x544
     532:	89fb      	ldrh	r3, [r7, #14]
     534:	f423 7340 	bic.w	r3, r3, #768	; 0x300
     538:	81fb      	strh	r3, [r7, #14]
     53a:	683b      	ldr	r3, [r7, #0]
     53c:	88da      	ldrh	r2, [r3, #6]
     53e:	89fb      	ldrh	r3, [r7, #14]
     540:	4313      	orrs	r3, r2
     542:	81fb      	strh	r3, [r7, #14]
     544:	687b      	ldr	r3, [r7, #4]
     546:	89fa      	ldrh	r2, [r7, #14]
     548:	801a      	strh	r2, [r3, #0]
     54a:	683b      	ldr	r3, [r7, #0]
     54c:	889a      	ldrh	r2, [r3, #4]
     54e:	687b      	ldr	r3, [r7, #4]
     550:	859a      	strh	r2, [r3, #44]	; 0x2c
     552:	683b      	ldr	r3, [r7, #0]
     554:	881a      	ldrh	r2, [r3, #0]
     556:	687b      	ldr	r3, [r7, #4]
     558:	851a      	strh	r2, [r3, #40]	; 0x28
     55a:	687b      	ldr	r3, [r7, #4]
     55c:	4a0f      	ldr	r2, [pc, #60]	; (0x59c)
     55e:	4293      	cmp	r3, r2
     560:	d00f      	beq.n	0x582
     562:	687b      	ldr	r3, [r7, #4]
     564:	4a0e      	ldr	r2, [pc, #56]	; (0x5a0)
     566:	4293      	cmp	r3, r2
     568:	d00b      	beq.n	0x582
     56a:	687b      	ldr	r3, [r7, #4]
     56c:	4a12      	ldr	r2, [pc, #72]	; (0x5b8)
     56e:	4293      	cmp	r3, r2
     570:	d007      	beq.n	0x582
     572:	687b      	ldr	r3, [r7, #4]
     574:	4a11      	ldr	r2, [pc, #68]	; (0x5bc)
     576:	4293      	cmp	r3, r2
     578:	d003      	beq.n	0x582
     57a:	687b      	ldr	r3, [r7, #4]
     57c:	4a10      	ldr	r2, [pc, #64]	; (0x5c0)
     57e:	4293      	cmp	r3, r2
     580:	d104      	bne.n	0x58c
     582:	683b      	ldr	r3, [r7, #0]
     584:	7a1b      	ldrb	r3, [r3, #8]
     586:	b29a      	uxth	r2, r3
     588:	687b      	ldr	r3, [r7, #4]
     58a:	861a      	strh	r2, [r3, #48]	; 0x30
     58c:	687b      	ldr	r3, [r7, #4]
     58e:	2201      	movs	r2, #1
     590:	829a      	strh	r2, [r3, #20]
     592:	bf00      	nop
     594:	3714      	adds	r7, #20
     596:	46bd      	mov	sp, r7
     598:	bc80      	pop	{r7}
     59a:	4770      	bx	lr
     59c:	2c00      	cmp	r4, #0
     59e:	4001      	ands	r1, r0
     5a0:	3400      	adds	r4, #0
     5a2:	4001      	ands	r1, r0
     5a4:	0400      	lsls	r0, r0, #16
     5a6:	4000      	ands	r0, r0
     5a8:	0800      	lsrs	r0, r0, #32
     5aa:	4000      	ands	r0, r0
     5ac:	0c00      	lsrs	r0, r0, #16
     5ae:	4000      	ands	r0, r0
     5b0:	1000      	asrs	r0, r0, #32
     5b2:	4000      	ands	r0, r0
     5b4:	1400      	asrs	r0, r0, #16
     5b6:	4000      	ands	r0, r0
     5b8:	4000      	ands	r0, r0
     5ba:	4001      	ands	r1, r0
     5bc:	4400      	add	r0, r0
     5be:	4001      	ands	r1, r0
     5c0:	4800      	ldr	r0, [pc, #0]	; (0x5c4)
     5c2:	4001      	ands	r1, r0
     5c4:	b480      	push	{r7}
     5c6:	b085      	sub	sp, #20
     5c8:	af00      	add	r7, sp, #0
     5ca:	6078      	str	r0, [r7, #4]
     5cc:	6039      	str	r1, [r7, #0]
     5ce:	2300      	movs	r3, #0
     5d0:	81bb      	strh	r3, [r7, #12]
     5d2:	2300      	movs	r3, #0
     5d4:	817b      	strh	r3, [r7, #10]
     5d6:	2300      	movs	r3, #0
     5d8:	81fb      	strh	r3, [r7, #14]
     5da:	687b      	ldr	r3, [r7, #4]
     5dc:	8c1b      	ldrh	r3, [r3, #32]
     5de:	b29b      	uxth	r3, r3
     5e0:	f423 5380 	bic.w	r3, r3, #4096	; 0x1000
     5e4:	b29a      	uxth	r2, r3
     5e6:	687b      	ldr	r3, [r7, #4]
     5e8:	841a      	strh	r2, [r3, #32]
     5ea:	687b      	ldr	r3, [r7, #4]
     5ec:	8c1b      	ldrh	r3, [r3, #32]
     5ee:	817b      	strh	r3, [r7, #10]
     5f0:	687b      	ldr	r3, [r7, #4]
     5f2:	889b      	ldrh	r3, [r3, #4]
     5f4:	81fb      	strh	r3, [r7, #14]
     5f6:	687b      	ldr	r3, [r7, #4]
     5f8:	8b9b      	ldrh	r3, [r3, #28]
     5fa:	81bb      	strh	r3, [r7, #12]
     5fc:	89bb      	ldrh	r3, [r7, #12]
     5fe:	f423 43e0 	bic.w	r3, r3, #28672	; 0x7000
     602:	81bb      	strh	r3, [r7, #12]
     604:	89bb      	ldrh	r3, [r7, #12]
     606:	f423 7340 	bic.w	r3, r3, #768	; 0x300
     60a:	81bb      	strh	r3, [r7, #12]
     60c:	683b      	ldr	r3, [r7, #0]
     60e:	881b      	ldrh	r3, [r3, #0]
     610:	021b      	lsls	r3, r3, #8
     612:	b29a      	uxth	r2, r3
     614:	89bb      	ldrh	r3, [r7, #12]
     616:	4313      	orrs	r3, r2
     618:	81bb      	strh	r3, [r7, #12]
     61a:	897b      	ldrh	r3, [r7, #10]
     61c:	f423 5300 	bic.w	r3, r3, #8192	; 0x2000
     620:	817b      	strh	r3, [r7, #10]
     622:	683b      	ldr	r3, [r7, #0]
     624:	891b      	ldrh	r3, [r3, #8]
     626:	031b      	lsls	r3, r3, #12
     628:	b29a      	uxth	r2, r3
     62a:	897b      	ldrh	r3, [r7, #10]
     62c:	4313      	orrs	r3, r2
     62e:	817b      	strh	r3, [r7, #10]
     630:	683b      	ldr	r3, [r7, #0]
     632:	885b      	ldrh	r3, [r3, #2]
     634:	031b      	lsls	r3, r3, #12
     636:	b29a      	uxth	r2, r3
     638:	897b      	ldrh	r3, [r7, #10]
     63a:	4313      	orrs	r3, r2
     63c:	817b      	strh	r3, [r7, #10]
     63e:	687b      	ldr	r3, [r7, #4]
     640:	4a12      	ldr	r2, [pc, #72]	; (0x68c)
     642:	4293      	cmp	r3, r2
     644:	d003      	beq.n	0x64e
     646:	687b      	ldr	r3, [r7, #4]
     648:	4a11      	ldr	r2, [pc, #68]	; (0x690)
     64a:	4293      	cmp	r3, r2
     64c:	d10a      	bne.n	0x664
     64e:	89fb      	ldrh	r3, [r7, #14]
     650:	f423 4380 	bic.w	r3, r3, #16384	; 0x4000
     654:	81fb      	strh	r3, [r7, #14]
     656:	683b      	ldr	r3, [r7, #0]
     658:	899b      	ldrh	r3, [r3, #12]
     65a:	019b      	lsls	r3, r3, #6
     65c:	b29a      	uxth	r2, r3
     65e:	89fb      	ldrh	r3, [r7, #14]
     660:	4313      	orrs	r3, r2
     662:	81fb      	strh	r3, [r7, #14]
     664:	687b      	ldr	r3, [r7, #4]
     666:	89fa      	ldrh	r2, [r7, #14]
     668:	809a      	strh	r2, [r3, #4]
     66a:	687b      	ldr	r3, [r7, #4]
     66c:	89ba      	ldrh	r2, [r7, #12]
     66e:	839a      	strh	r2, [r3, #28]
     670:	683b      	ldr	r3, [r7, #0]
     672:	88da      	ldrh	r2, [r3, #6]
     674:	687b      	ldr	r3, [r7, #4]
     676:	f8a3 2040 	strh.w	r2, [r3, #64]	; 0x40
     67a:	687b      	ldr	r3, [r7, #4]
     67c:	897a      	ldrh	r2, [r7, #10]
     67e:	841a      	strh	r2, [r3, #32]
     680:	bf00      	nop
     682:	3714      	adds	r7, #20
     684:	46bd      	mov	sp, r7
     686:	bc80      	pop	{r7}
     688:	4770      	bx	lr
     68a:	bf00      	nop
     68c:	2c00      	cmp	r4, #0
     68e:	4001      	ands	r1, r0
     690:	3400      	adds	r4, #0
     692:	4001      	ands	r1, r0
     694:	b480      	push	{r7}
     696:	b083      	sub	sp, #12
     698:	af00      	add	r7, sp, #0
     69a:	6078      	str	r0, [r7, #4]
     69c:	460b      	mov	r3, r1
     69e:	70fb      	strb	r3, [r7, #3]
     6a0:	78fb      	ldrb	r3, [r7, #3]
     6a2:	2b00      	cmp	r3, #0
     6a4:	d008      	beq.n	0x6b8
     6a6:	687b      	ldr	r3, [r7, #4]
     6a8:	881b      	ldrh	r3, [r3, #0]
     6aa:	b29b      	uxth	r3, r3
     6ac:	f043 0301 	orr.w	r3, r3, #1
     6b0:	b29a      	uxth	r2, r3
     6b2:	687b      	ldr	r3, [r7, #4]
     6b4:	801a      	strh	r2, [r3, #0]
     6b6:	e007      	b.n	0x6c8
     6b8:	687b      	ldr	r3, [r7, #4]
     6ba:	881b      	ldrh	r3, [r3, #0]
     6bc:	b29b      	uxth	r3, r3
     6be:	f023 0301 	bic.w	r3, r3, #1
     6c2:	b29a      	uxth	r2, r3
     6c4:	687b      	ldr	r3, [r7, #4]
     6c6:	801a      	strh	r2, [r3, #0]
     6c8:	bf00      	nop
     6ca:	370c      	adds	r7, #12
     6cc:	46bd      	mov	sp, r7
     6ce:	bc80      	pop	{r7}
     6d0:	4770      	bx	lr
     6d2:	bf00      	nop
     6d4:	b480      	push	{r7}
     6d6:	b083      	sub	sp, #12
     6d8:	af00      	add	r7, sp, #0
     6da:	6078      	str	r0, [r7, #4]
     6dc:	460b      	mov	r3, r1
     6de:	807b      	strh	r3, [r7, #2]
     6e0:	687b      	ldr	r3, [r7, #4]
     6e2:	887a      	ldrh	r2, [r7, #2]
     6e4:	829a      	strh	r2, [r3, #20]
     6e6:	bf00      	nop
     6e8:	370c      	adds	r7, #12
     6ea:	46bd      	mov	sp, r7
     6ec:	bc80      	pop	{r7}
     6ee:	4770      	bx	lr
     6f0:	b480      	push	{r7}
     6f2:	b083      	sub	sp, #12
     6f4:	af00      	add	r7, sp, #0
     6f6:	6078      	str	r0, [r7, #4]
     6f8:	460b      	mov	r3, r1
     6fa:	70fb      	strb	r3, [r7, #3]
     6fc:	78fb      	ldrb	r3, [r7, #3]
     6fe:	2b00      	cmp	r3, #0
     700:	d008      	beq.n	0x714
     702:	687b      	ldr	r3, [r7, #4]
     704:	881b      	ldrh	r3, [r3, #0]
     706:	b29b      	uxth	r3, r3
     708:	f043 0380 	orr.w	r3, r3, #128	; 0x80
     70c:	b29a      	uxth	r2, r3
     70e:	687b      	ldr	r3, [r7, #4]
     710:	801a      	strh	r2, [r3, #0]
     712:	e007      	b.n	0x724
     714:	687b      	ldr	r3, [r7, #4]
     716:	881b      	ldrh	r3, [r3, #0]
     718:	b29b      	uxth	r3, r3
     71a:	f023 0380 	bic.w	r3, r3, #128	; 0x80
     71e:	b29a      	uxth	r2, r3
     720:	687b      	ldr	r3, [r7, #4]
     722:	801a      	strh	r2, [r3, #0]
     724:	bf00      	nop
     726:	370c      	adds	r7, #12
     728:	46bd      	mov	sp, r7
     72a:	bc80      	pop	{r7}
     72c:	4770      	bx	lr
     72e:	bf00      	nop
     730:	b480      	push	{r7}
     732:	b085      	sub	sp, #20
     734:	af00      	add	r7, sp, #0
     736:	6078      	str	r0, [r7, #4]
     738:	460b      	mov	r3, r1
     73a:	807b      	strh	r3, [r7, #2]
     73c:	2300      	movs	r3, #0
     73e:	81fb      	strh	r3, [r7, #14]
     740:	687b      	ldr	r3, [r7, #4]
     742:	8b9b      	ldrh	r3, [r3, #28]
     744:	81fb      	strh	r3, [r7, #14]
     746:	89fb      	ldrh	r3, [r7, #14]
     748:	f423 6300 	bic.w	r3, r3, #2048	; 0x800
     74c:	81fb      	strh	r3, [r7, #14]
     74e:	887b      	ldrh	r3, [r7, #2]
     750:	021b      	lsls	r3, r3, #8
     752:	b29a      	uxth	r2, r3
     754:	89fb      	ldrh	r3, [r7, #14]
     756:	4313      	orrs	r3, r2
     758:	81fb      	strh	r3, [r7, #14]
     75a:	687b      	ldr	r3, [r7, #4]
     75c:	89fa      	ldrh	r2, [r7, #14]
     75e:	839a      	strh	r2, [r3, #28]
     760:	bf00      	nop
     762:	3714      	adds	r7, #20
     764:	46bd      	mov	sp, r7
     766:	bc80      	pop	{r7}
     768:	4770      	bx	lr
     76a:	bf00      	nop
     76c:	b580      	push	{r7, lr}
     76e:	af00      	add	r7, sp, #0
     770:	2000      	movs	r0, #0
     772:	f7ff fe1b 	bl	0x3ac
     776:	f44f 6080 	mov.w	r0, #1024	; 0x400
     77a:	f7ff fe33 	bl	0x3e4
     77e:	2000      	movs	r0, #0
     780:	f7ff fe4c 	bl	0x41c
     784:	f7ff fd2e 	bl	0x1e4
     788:	e7fe      	b.n	0x788
     78a:	bf00      	nop
     78c:	b580      	push	{r7, lr}
     78e:	af00      	add	r7, sp, #0
     790:	4a15      	ldr	r2, [pc, #84]	; (0x7e8)
     792:	4b15      	ldr	r3, [pc, #84]	; (0x7e8)
     794:	681b      	ldr	r3, [r3, #0]
     796:	f043 0301 	orr.w	r3, r3, #1
     79a:	6013      	str	r3, [r2, #0]
     79c:	4912      	ldr	r1, [pc, #72]	; (0x7e8)
     79e:	4b12      	ldr	r3, [pc, #72]	; (0x7e8)
     7a0:	685a      	ldr	r2, [r3, #4]
     7a2:	4b12      	ldr	r3, [pc, #72]	; (0x7ec)
     7a4:	4013      	ands	r3, r2
     7a6:	604b      	str	r3, [r1, #4]
     7a8:	4a0f      	ldr	r2, [pc, #60]	; (0x7e8)
     7aa:	4b0f      	ldr	r3, [pc, #60]	; (0x7e8)
     7ac:	681b      	ldr	r3, [r3, #0]
     7ae:	f023 7384 	bic.w	r3, r3, #17301504	; 0x1080000
     7b2:	f423 3380 	bic.w	r3, r3, #65536	; 0x10000
     7b6:	6013      	str	r3, [r2, #0]
     7b8:	4a0b      	ldr	r2, [pc, #44]	; (0x7e8)
     7ba:	4b0b      	ldr	r3, [pc, #44]	; (0x7e8)
     7bc:	681b      	ldr	r3, [r3, #0]
     7be:	f423 2380 	bic.w	r3, r3, #262144	; 0x40000
     7c2:	6013      	str	r3, [r2, #0]
     7c4:	4a08      	ldr	r2, [pc, #32]	; (0x7e8)
     7c6:	4b08      	ldr	r3, [pc, #32]	; (0x7e8)
     7c8:	685b      	ldr	r3, [r3, #4]
     7ca:	f423 03fe 	bic.w	r3, r3, #8323072	; 0x7f0000
     7ce:	6053      	str	r3, [r2, #4]
     7d0:	4b05      	ldr	r3, [pc, #20]	; (0x7e8)
     7d2:	f44f 021f 	mov.w	r2, #10420224	; 0x9f0000
     7d6:	609a      	str	r2, [r3, #8]
     7d8:	f000 f80c 	bl	0x7f4
     7dc:	4b04      	ldr	r3, [pc, #16]	; (0x7f0)
     7de:	f04f 6200 	mov.w	r2, #134217728	; 0x8000000
     7e2:	609a      	str	r2, [r3, #8]
     7e4:	bf00      	nop
     7e6:	bd80      	pop	{r7, pc}
     7e8:	1000      	asrs	r0, r0, #32
     7ea:	4002      	ands	r2, r0
     7ec:	0000      	movs	r0, r0
     7ee:	f8ff ed00 	ldr??.w	lr, [pc, #3328]	; 0x14f0
     7f2:	e000      	b.n	0x7f6
     7f4:	b580      	push	{r7, lr}
     7f6:	af00      	add	r7, sp, #0
     7f8:	f000 f802 	bl	0x800
     7fc:	bf00      	nop
     7fe:	bd80      	pop	{r7, pc}
     800:	b480      	push	{r7}
     802:	b083      	sub	sp, #12
     804:	af00      	add	r7, sp, #0
     806:	2300      	movs	r3, #0
     808:	607b      	str	r3, [r7, #4]
     80a:	2300      	movs	r3, #0
     80c:	603b      	str	r3, [r7, #0]
     80e:	4a3a      	ldr	r2, [pc, #232]	; (0x8f8)
     810:	4b39      	ldr	r3, [pc, #228]	; (0x8f8)
     812:	681b      	ldr	r3, [r3, #0]
     814:	f443 3380 	orr.w	r3, r3, #65536	; 0x10000
     818:	6013      	str	r3, [r2, #0]
     81a:	4b37      	ldr	r3, [pc, #220]	; (0x8f8)
     81c:	681b      	ldr	r3, [r3, #0]
     81e:	f403 3300 	and.w	r3, r3, #131072	; 0x20000
     822:	603b      	str	r3, [r7, #0]
     824:	687b      	ldr	r3, [r7, #4]
     826:	3301      	adds	r3, #1
     828:	607b      	str	r3, [r7, #4]
     82a:	683b      	ldr	r3, [r7, #0]
     82c:	2b00      	cmp	r3, #0
     82e:	d103      	bne.n	0x838
     830:	687b      	ldr	r3, [r7, #4]
     832:	f5b3 6fa0 	cmp.w	r3, #1280	; 0x500
     836:	d1f0      	bne.n	0x81a
     838:	4b2f      	ldr	r3, [pc, #188]	; (0x8f8)
     83a:	681b      	ldr	r3, [r3, #0]
     83c:	f403 3300 	and.w	r3, r3, #131072	; 0x20000
     840:	2b00      	cmp	r3, #0
     842:	d002      	beq.n	0x84a
     844:	2301      	movs	r3, #1
     846:	603b      	str	r3, [r7, #0]
     848:	e001      	b.n	0x84e
     84a:	2300      	movs	r3, #0
     84c:	603b      	str	r3, [r7, #0]
     84e:	683b      	ldr	r3, [r7, #0]
     850:	2b01      	cmp	r3, #1
     852:	d14b      	bne.n	0x8ec
     854:	4a29      	ldr	r2, [pc, #164]	; (0x8fc)
     856:	4b29      	ldr	r3, [pc, #164]	; (0x8fc)
     858:	681b      	ldr	r3, [r3, #0]
     85a:	f043 0310 	orr.w	r3, r3, #16
     85e:	6013      	str	r3, [r2, #0]
     860:	4a26      	ldr	r2, [pc, #152]	; (0x8fc)
     862:	4b26      	ldr	r3, [pc, #152]	; (0x8fc)
     864:	681b      	ldr	r3, [r3, #0]
     866:	f023 0303 	bic.w	r3, r3, #3
     86a:	6013      	str	r3, [r2, #0]
     86c:	4a23      	ldr	r2, [pc, #140]	; (0x8fc)
     86e:	4b23      	ldr	r3, [pc, #140]	; (0x8fc)
     870:	681b      	ldr	r3, [r3, #0]
     872:	f043 0302 	orr.w	r3, r3, #2
     876:	6013      	str	r3, [r2, #0]
     878:	4a1f      	ldr	r2, [pc, #124]	; (0x8f8)
     87a:	4b1f      	ldr	r3, [pc, #124]	; (0x8f8)
     87c:	685b      	ldr	r3, [r3, #4]
     87e:	6053      	str	r3, [r2, #4]
     880:	4a1d      	ldr	r2, [pc, #116]	; (0x8f8)
     882:	4b1d      	ldr	r3, [pc, #116]	; (0x8f8)
     884:	685b      	ldr	r3, [r3, #4]
     886:	6053      	str	r3, [r2, #4]
     888:	4a1b      	ldr	r2, [pc, #108]	; (0x8f8)
     88a:	4b1b      	ldr	r3, [pc, #108]	; (0x8f8)
     88c:	685b      	ldr	r3, [r3, #4]
     88e:	f443 6380 	orr.w	r3, r3, #1024	; 0x400
     892:	6053      	str	r3, [r2, #4]
     894:	4a18      	ldr	r2, [pc, #96]	; (0x8f8)
     896:	4b18      	ldr	r3, [pc, #96]	; (0x8f8)
     898:	685b      	ldr	r3, [r3, #4]
     89a:	f423 137c 	bic.w	r3, r3, #4128768	; 0x3f0000
     89e:	6053      	str	r3, [r2, #4]
     8a0:	4a15      	ldr	r2, [pc, #84]	; (0x8f8)
     8a2:	4b15      	ldr	r3, [pc, #84]	; (0x8f8)
     8a4:	685b      	ldr	r3, [r3, #4]
     8a6:	f443 13e8 	orr.w	r3, r3, #1900544	; 0x1d0000
     8aa:	6053      	str	r3, [r2, #4]
     8ac:	4a12      	ldr	r2, [pc, #72]	; (0x8f8)
     8ae:	4b12      	ldr	r3, [pc, #72]	; (0x8f8)
     8b0:	681b      	ldr	r3, [r3, #0]
     8b2:	f043 7380 	orr.w	r3, r3, #16777216	; 0x1000000
     8b6:	6013      	str	r3, [r2, #0]
     8b8:	bf00      	nop
     8ba:	4b0f      	ldr	r3, [pc, #60]	; (0x8f8)
     8bc:	681b      	ldr	r3, [r3, #0]
     8be:	f003 7300 	and.w	r3, r3, #33554432	; 0x2000000
     8c2:	2b00      	cmp	r3, #0
     8c4:	d0f9      	beq.n	0x8ba
     8c6:	4a0c      	ldr	r2, [pc, #48]	; (0x8f8)
     8c8:	4b0b      	ldr	r3, [pc, #44]	; (0x8f8)
     8ca:	685b      	ldr	r3, [r3, #4]
     8cc:	f023 0303 	bic.w	r3, r3, #3
     8d0:	6053      	str	r3, [r2, #4]
     8d2:	4a09      	ldr	r2, [pc, #36]	; (0x8f8)
     8d4:	4b08      	ldr	r3, [pc, #32]	; (0x8f8)
     8d6:	685b      	ldr	r3, [r3, #4]
     8d8:	f043 0302 	orr.w	r3, r3, #2
     8dc:	6053      	str	r3, [r2, #4]
     8de:	bf00      	nop
     8e0:	4b05      	ldr	r3, [pc, #20]	; (0x8f8)
     8e2:	685b      	ldr	r3, [r3, #4]
     8e4:	f003 030c 	and.w	r3, r3, #12
     8e8:	2b08      	cmp	r3, #8
     8ea:	d1f9      	bne.n	0x8e0
     8ec:	bf00      	nop
     8ee:	370c      	adds	r7, #12
     8f0:	46bd      	mov	sp, r7
     8f2:	bc80      	pop	{r7}
     8f4:	4770      	bx	lr
     8f6:	bf00      	nop
     8f8:	1000      	asrs	r0, r0, #32
     8fa:	4002      	ands	r2, r0
     8fc:	2000      	movs	r0, #0
     8fe:	4002      	ands	r2, r0
     900:	2100      	movs	r1, #0
     902:	e003      	b.n	0x90c
     904:	4b0b      	ldr	r3, [pc, #44]	; (0x934)
     906:	585b      	ldr	r3, [r3, r1]
     908:	5043      	str	r3, [r0, r1]
     90a:	3104      	adds	r1, #4
     90c:	480a      	ldr	r0, [pc, #40]	; (0x938)
     90e:	4b0b      	ldr	r3, [pc, #44]	; (0x93c)
     910:	1842      	adds	r2, r0, r1
     912:	429a      	cmp	r2, r3
     914:	d3f6      	bcc.n	0x904
     916:	4a0a      	ldr	r2, [pc, #40]	; (0x940)
     918:	e002      	b.n	0x920
     91a:	2300      	movs	r3, #0
     91c:	6013      	str	r3, [r2, #0]
     91e:	3204      	adds	r2, #4
     920:	4b08      	ldr	r3, [pc, #32]	; (0x944)
     922:	429a      	cmp	r2, r3
     924:	d3f9      	bcc.n	0x91a
     926:	f7ff ff31 	bl	0x78c
     92a:	f000 f80f 	bl	0x94c
     92e:	f7ff ff1d 	bl	0x76c
     932:	e7fe      	b.n	0x932
     934:	0ab0      	lsrs	r0, r6, #10
     936:	0800      	lsrs	r0, r0, #32
     938:	0000      	movs	r0, r0
     93a:	2000      	movs	r0, #0
     93c:	0428      	lsls	r0, r5, #16
     93e:	2000      	movs	r0, #0
     940:	0428      	lsls	r0, r5, #16
     942:	2000      	movs	r0, #0
     944:	0444      	lsls	r4, r0, #17
     946:	2000      	movs	r0, #0
     948:	e7fe      	b.n	0x948
     94a:	0000      	movs	r0, r0
     94c:	b570      	push	{r4, r5, r6, lr}
     94e:	4e0f      	ldr	r6, [pc, #60]	; (0x98c)
     950:	4d0f      	ldr	r5, [pc, #60]	; (0x990)
     952:	1b76      	subs	r6, r6, r5
     954:	10b6      	asrs	r6, r6, #2
     956:	bf18      	it	ne
     958:	2400      	movne	r4, #0
     95a:	d005      	beq.n	0x968
     95c:	3401      	adds	r4, #1
     95e:	f855 3b04 	ldr.w	r3, [r5], #4
     962:	4798      	blx	r3
     964:	42a6      	cmp	r6, r4
     966:	d1f9      	bne.n	0x95c
     968:	4e0a      	ldr	r6, [pc, #40]	; (0x994)
     96a:	4d0b      	ldr	r5, [pc, #44]	; (0x998)
     96c:	f000 f88c 	bl	0xa88
     970:	1b76      	subs	r6, r6, r5
     972:	10b6      	asrs	r6, r6, #2
     974:	bf18      	it	ne
     976:	2400      	movne	r4, #0
     978:	d006      	beq.n	0x988
     97a:	3401      	adds	r4, #1
     97c:	f855 3b04 	ldr.w	r3, [r5], #4
     980:	4798      	blx	r3
     982:	42a6      	cmp	r6, r4
     984:	d1f9      	bne.n	0x97a
     986:	bd70      	pop	{r4, r5, r6, pc}
     988:	bd70      	pop	{r4, r5, r6, pc}
     98a:	bf00      	nop
     98c:	0aa4      	lsrs	r4, r4, #10
     98e:	0800      	lsrs	r0, r0, #32
     990:	0aa4      	lsrs	r4, r4, #10
     992:	0800      	lsrs	r0, r0, #32
     994:	0aac      	lsrs	r4, r5, #10
     996:	0800      	lsrs	r0, r0, #32
     998:	0aa4      	lsrs	r4, r4, #10
     99a:	0800      	lsrs	r0, r0, #32
     99c:	4b02      	ldr	r3, [pc, #8]	; (0x9a8)
     99e:	b113      	cbz	r3, 0x9a6
     9a0:	4802      	ldr	r0, [pc, #8]	; (0x9ac)
     9a2:	f000 b805 	b.w	0x9b0
     9a6:	4770      	bx	lr
     9a8:	0000      	movs	r0, r0
     9aa:	0000      	movs	r0, r0
     9ac:	09bd      	lsrs	r5, r7, #6
     9ae:	0800      	lsrs	r0, r0, #32
     9b0:	2300      	movs	r3, #0
     9b2:	4601      	mov	r1, r0
     9b4:	461a      	mov	r2, r3
     9b6:	4618      	mov	r0, r3
     9b8:	f000 b814 	b.w	0x9e4
     9bc:	b538      	push	{r3, r4, r5, lr}
     9be:	4d07      	ldr	r5, [pc, #28]	; (0x9dc)
     9c0:	4c07      	ldr	r4, [pc, #28]	; (0x9e0)
     9c2:	1b2c      	subs	r4, r5, r4
     9c4:	10a4      	asrs	r4, r4, #2
     9c6:	d005      	beq.n	0x9d4
     9c8:	3c01      	subs	r4, #1
     9ca:	f855 3d04 	ldr.w	r3, [r5, #-4]!
     9ce:	4798      	blx	r3
     9d0:	2c00      	cmp	r4, #0
     9d2:	d1f9      	bne.n	0x9c8
     9d4:	e8bd 4038 	ldmia.w	sp!, {r3, r4, r5, lr}
     9d8:	f000 b85c 	b.w	0xa94
     9dc:	0ab0      	lsrs	r0, r6, #10
     9de:	0800      	lsrs	r0, r0, #32
     9e0:	0aac      	lsrs	r4, r5, #10
     9e2:	0800      	lsrs	r0, r0, #32
     9e4:	e92d 47f0 	stmdb	sp!, {r4, r5, r6, r7, r8, r9, sl, lr}
     9e8:	4c25      	ldr	r4, [pc, #148]	; (0xa80)
     9ea:	4606      	mov	r6, r0
     9ec:	6825      	ldr	r5, [r4, #0]
     9ee:	4688      	mov	r8, r1
     9f0:	f8d5 4148 	ldr.w	r4, [r5, #328]	; 0x148
     9f4:	4692      	mov	sl, r2
     9f6:	4699      	mov	r9, r3
     9f8:	b3c4      	cbz	r4, 0xa6c
     9fa:	6860      	ldr	r0, [r4, #4]
     9fc:	281f      	cmp	r0, #31
     9fe:	dc17      	bgt.n	0xa30
     a00:	1c41      	adds	r1, r0, #1
     a02:	b176      	cbz	r6, 0xa22
     a04:	eb04 0380 	add.w	r3, r4, r0, lsl #2
     a08:	f8c3 a088 	str.w	sl, [r3, #136]	; 0x88
     a0c:	f8d4 5188 	ldr.w	r5, [r4, #392]	; 0x188
     a10:	2201      	movs	r2, #1
     a12:	4082      	lsls	r2, r0
     a14:	4315      	orrs	r5, r2
     a16:	2e02      	cmp	r6, #2
     a18:	f8c4 5188 	str.w	r5, [r4, #392]	; 0x188
     a1c:	f8c3 9108 	str.w	r9, [r3, #264]	; 0x108
     a20:	d01e      	beq.n	0xa60
     a22:	1c83      	adds	r3, r0, #2
     a24:	6061      	str	r1, [r4, #4]
     a26:	2000      	movs	r0, #0
     a28:	f844 8023 	str.w	r8, [r4, r3, lsl #2]
     a2c:	e8bd 87f0 	ldmia.w	sp!, {r4, r5, r6, r7, r8, r9, sl, pc}
     a30:	4b14      	ldr	r3, [pc, #80]	; (0xa84)
     a32:	b303      	cbz	r3, 0xa76
     a34:	f44f 70c8 	mov.w	r0, #400	; 0x190
     a38:	f3af 8000 	nop.w
     a3c:	4604      	mov	r4, r0
     a3e:	b1d0      	cbz	r0, 0xa76
     a40:	f8d5 3148 	ldr.w	r3, [r5, #328]	; 0x148
     a44:	2700      	movs	r7, #0
     a46:	e884 0088 	stmia.w	r4, {r3, r7}
     a4a:	4638      	mov	r0, r7
     a4c:	f8c5 4148 	str.w	r4, [r5, #328]	; 0x148
     a50:	2101      	movs	r1, #1
     a52:	f8c4 7188 	str.w	r7, [r4, #392]	; 0x188
     a56:	f8c4 718c 	str.w	r7, [r4, #396]	; 0x18c
     a5a:	2e00      	cmp	r6, #0
     a5c:	d0e1      	beq.n	0xa22
     a5e:	e7d1      	b.n	0xa04
     a60:	f8d4 318c 	ldr.w	r3, [r4, #396]	; 0x18c
     a64:	431a      	orrs	r2, r3
     a66:	f8c4 218c 	str.w	r2, [r4, #396]	; 0x18c
     a6a:	e7da      	b.n	0xa22
     a6c:	f505 74a6 	add.w	r4, r5, #332	; 0x14c
     a70:	f8c5 4148 	str.w	r4, [r5, #328]	; 0x148
     a74:	e7c1      	b.n	0x9fa
     a76:	f04f 30ff 	mov.w	r0, #4294967295	; 0xffffffff
     a7a:	e8bd 87f0 	ldmia.w	sp!, {r4, r5, r6, r7, r8, r9, sl, pc}
     a7e:	bf00      	nop
     a80:	0aa0      	lsrs	r0, r4, #10
     a82:	0800      	lsrs	r0, r0, #32
     a84:	0000      	movs	r0, r0
     a86:	0000      	movs	r0, r0
     a88:	b5f8      	push	{r3, r4, r5, r6, r7, lr}
     a8a:	bf00      	nop
     a8c:	bcf8      	pop	{r3, r4, r5, r6, r7}
     a8e:	bc08      	pop	{r3}
     a90:	469e      	mov	lr, r3
     a92:	4770      	bx	lr
     a94:	b5f8      	push	{r3, r4, r5, r6, r7, lr}
     a96:	bf00      	nop
     a98:	bcf8      	pop	{r3, r4, r5, r6, r7}
     a9a:	bc08      	pop	{r3}
     a9c:	469e      	mov	lr, r3
     a9e:	4770      	bx	lr
     aa0:	0000      	movs	r0, r0
     aa2:	2000      	movs	r0, #0
     aa4:	099d      	lsrs	r5, r3, #6
     aa6:	0800      	lsrs	r0, r0, #32
     aa8:	01ad      	lsls	r5, r5, #6
     aaa:	0800      	lsrs	r0, r0, #32
     aac:	0189      	lsls	r1, r1, #6
     aae:	0800      	lsrs	r0, r0, #32
     ab0:	0000      	movs	r0, r0
     ab2:	0000      	movs	r0, r0
     ab4:	02ec      	lsls	r4, r5, #11
     ab6:	2000      	movs	r0, #0
     ab8:	0354      	lsls	r4, r2, #13
     aba:	2000      	movs	r0, #0
     abc:	03bc      	lsls	r4, r7, #14
     abe:	2000      	movs	r0, #0
	...
     b58:	0001      	movs	r1, r0
     b5a:	0000      	movs	r0, r0
     b5c:	0000      	movs	r0, r0
     b5e:	0000      	movs	r0, r0
     b60:	330e      	adds	r3, #14
     b62:	abcd      	add	r3, sp, #820	; 0x334
     b64:	1234      	asrs	r4, r6, #8
     b66:	e66d      	b.n	0x844
     b68:	deec      	udf	#236	; 0xec
     b6a:	0005      	movs	r5, r0
     b6c:	000b      	movs	r3, r1
	...
     ed6:	0000      	movs	r0, r0
     ed8:	ffff ffff 			; <UNDEFINED> instruction: 0xffffffff
     edc:	ffff ffff 			; <UNDEFINED> instruction: 0xffffffff
     ee0:	ffff ffff 			; <UNDEFINED> instruction: 0xffffffff
     ee4:	ffff ffff 			; <UNDEFINED> instruction: 0xffffffff
     ee8:	ffff ffff 			; <UNDEFINED> instruction: 0xffffffff
     eec:	ffff ffff 			; <UNDEFINED> instruction: 0xffffffff
     ef0:	ffff ffff 			; <UNDEFINED> instruction: 0xffffffff
     ef4:	ffff ffff 			; <UNDEFINED> instruction: 0xffffffff
     ef8:	ffff ffff 			; <UNDEFINED> instruction: 0xffffffff
     efc:	ffff ffff 			; <UNDEFINED> instruction: 0xffffffff
     f00:	ffff ffff 			; <UNDEFINED> instruction: 0xffffffff
     f04:	ffff ffff 			; <UNDEFINED> instruction: 0xffffffff
     f08:	ffff ffff 			; <UNDEFINED> instruction: 0xffffffff
     f0c:	ffff ffff 			; <UNDEFINED> instruction: 0xffffffff
     f10:	ffff ffff 			; <UNDEFINED> instruction: 0xffffffff
     f14:	ffff ffff 			; <UNDEFINED> instruction: 0xffffffff
     f18:	ffff ffff 			; <UNDEFINED> instruction: 0xffffffff
     f1c:	ffff ffff 			; <UNDEFINED> instruction: 0xffffffff
     f20:	ffff ffff 			; <UNDEFINED> instruction: 0xffffffff
     f24:	ffff ffff 			; <UNDEFINED> instruction: 0xffffffff
     f28:	ffff ffff 			; <UNDEFINED> instruction: 0xffffffff
     f2c:	ffff ffff 			; <UNDEFINED> instruction: 0xffffffff
     f30:	ffff ffff 			; <UNDEFINED> instruction: 0xffffffff
     f34:	ffff ffff 			; <UNDEFINED> instruction: 0xffffffff
     f38:	ffff ffff 			; <UNDEFINED> instruction: 0xffffffff
     f3c:	ffff ffff 			; <UNDEFINED> instruction: 0xffffffff
     f40:	ffff ffff 			; <UNDEFINED> instruction: 0xffffffff
     f44:	ffff ffff 			; <UNDEFINED> instruction: 0xffffffff
     f48:	ffff ffff 			; <UNDEFINED> instruction: 0xffffffff
     f4c:	ffff ffff 			; <UNDEFINED> instruction: 0xffffffff
     f50:	ffff ffff 			; <UNDEFINED> instruction: 0xffffffff
     f54:	ffff ffff 			; <UNDEFINED> instruction: 0xffffffff
     f58:	ffff ffff 			; <UNDEFINED> instruction: 0xffffffff
     f5c:	ffff ffff 			; <UNDEFINED> instruction: 0xffffffff
     f60:	ffff ffff 			; <UNDEFINED> instruction: 0xffffffff
     f64:	ffff ffff 			; <UNDEFINED> instruction: 0xffffffff
     f68:	ffff ffff 			; <UNDEFINED> instruction: 0xffffffff
     f6c:	ffff ffff 			; <UNDEFINED> instruction: 0xffffffff
     f70:	ffff ffff 			; <UNDEFINED> instruction: 0xffffffff
     f74:	ffff ffff 			; <UNDEFINED> instruction: 0xffffffff
     f78:	ffff ffff 			; <UNDEFINED> instruction: 0xffffffff
     f7c:	ffff ffff 			; <UNDEFINED> instruction: 0xffffffff
     f80:	ffff ffff 			; <UNDEFINED> instruction: 0xffffffff
     f84:	ffff ffff 			; <UNDEFINED> instruction: 0xffffffff
     f88:	ffff ffff 			; <UNDEFINED> instruction: 0xffffffff
     f8c:	ffff ffff 			; <UNDEFINED> instruction: 0xffffffff
     f90:	ffff ffff 			; <UNDEFINED> instruction: 0xffffffff
     f94:	ffff ffff 			; <UNDEFINED> instruction: 0xffffffff
     f98:	ffff ffff 			; <UNDEFINED> instruction: 0xffffffff
     f9c:	ffff ffff 			; <UNDEFINED> instruction: 0xffffffff
     fa0:	ffff ffff 			; <UNDEFINED> instruction: 0xffffffff
     fa4:	ffff ffff 			; <UNDEFINED> instruction: 0xffffffff
     fa8:	ffff ffff 			; <UNDEFINED> instruction: 0xffffffff
     fac:	ffff ffff 			; <UNDEFINED> instruction: 0xffffffff
     fb0:	ffff ffff 			; <UNDEFINED> instruction: 0xffffffff
     fb4:	ffff ffff 			; <UNDEFINED> instruction: 0xffffffff
     fb8:	ffff ffff 			; <UNDEFINED> instruction: 0xffffffff
     fbc:	ffff ffff 			; <UNDEFINED> instruction: 0xffffffff
     fc0:	ffff ffff 			; <UNDEFINED> instruction: 0xffffffff
     fc4:	ffff ffff 			; <UNDEFINED> instruction: 0xffffffff
     fc8:	ffff ffff 			; <UNDEFINED> instruction: 0xffffffff
     fcc:	ffff ffff 			; <UNDEFINED> instruction: 0xffffffff
     fd0:	ffff ffff 			; <UNDEFINED> instruction: 0xffffffff
     fd4:	ffff ffff 			; <UNDEFINED> instruction: 0xffffffff
     fd8:	ffff ffff 			; <UNDEFINED> instruction: 0xffffffff
     fdc:	ffff ffff 			; <UNDEFINED> instruction: 0xffffffff
     fe0:	ffff ffff 			; <UNDEFINED> instruction: 0xffffffff
     fe4:	ffff ffff 			; <UNDEFINED> instruction: 0xffffffff
     fe8:	ffff ffff 			; <UNDEFINED> instruction: 0xffffffff
     fec:	ffff ffff 			; <UNDEFINED> instruction: 0xffffffff
     ff0:	ffff ffff 			; <UNDEFINED> instruction: 0xffffffff
     ff4:	ffff ffff 			; <UNDEFINED> instruction: 0xffffffff
     ff8:	ffff ffff 			; <UNDEFINED> instruction: 0xffffffff
     ffc:	ffff ffff 			; <UNDEFINED> instruction: 0xffffffff
    1000:	bc80      	pop	{r7}
    1002:	4770      	bx	lr
    1004:	ed00 e000 	stc	0, cr14, [r0, #-0]
    1008:	b480      	push	{r7}
    100a:	b087      	sub	sp, #28
    100c:	af00      	add	r7, sp, #0
    100e:	6078      	str	r0, [r7, #4]
    1010:	2300      	movs	r3, #0
    1012:	617b      	str	r3, [r7, #20]
    1014:	2300      	movs	r3, #0
    1016:	613b      	str	r3, [r7, #16]
    1018:	230f      	movs	r3, #15
    101a:	60fb      	str	r3, [r7, #12]
    101c:	687b      	ldr	r3, [r7, #4]
    101e:	78db      	ldrb	r3, [r3, #3]
    1020:	2b00      	cmp	r3, #0
    1022:	d03a      	beq.n	0x109a
    1024:	4b27      	ldr	r3, [pc, #156]	; (0x10c4)
    1026:	68db      	ldr	r3, [r3, #12]
    1028:	43db      	mvns	r3, r3
    102a:	f403 63e0 	and.w	r3, r3, #1792	; 0x700
    102e:	0a1b      	lsrs	r3, r3, #8
    1030:	617b      	str	r3, [r7, #20]
    1032:	697b      	ldr	r3, [r7, #20]
    1034:	f1c3 0304 	rsb	r3, r3, #4
    1038:	613b      	str	r3, [r7, #16]
    103a:	68fa      	ldr	r2, [r7, #12]
    103c:	697b      	ldr	r3, [r7, #20]
    103e:	fa22 f303 	lsr.w	r3, r2, r3
    1042:	60fb      	str	r3, [r7, #12]
    1044:	687b      	ldr	r3, [r7, #4]
    1046:	785b      	ldrb	r3, [r3, #1]
    1048:	461a      	mov	r2, r3
    104a:	693b      	ldr	r3, [r7, #16]
    104c:	fa02 f303 	lsl.w	r3, r2, r3
    1050:	617b      	str	r3, [r7, #20]
    1052:	687b      	ldr	r3, [r7, #4]
    1054:	789b      	ldrb	r3, [r3, #2]
    1056:	461a      	mov	r2, r3
    1058:	68fb      	ldr	r3, [r7, #12]
    105a:	4013      	ands	r3, r2
    105c:	697a      	ldr	r2, [r7, #20]
    105e:	4313      	orrs	r3, r2
    1060:	617b      	str	r3, [r7, #20]
    1062:	697b      	ldr	r3, [r7, #20]
    1064:	011b      	lsls	r3, r3, #4
    1066:	617b      	str	r3, [r7, #20]
    1068:	4a17      	ldr	r2, [pc, #92]	; (0x10c8)
    106a:	687b      	ldr	r3, [r7, #4]
    106c:	781b      	ldrb	r3, [r3, #0]
    106e:	6979      	ldr	r1, [r7, #20]
    1070:	b2c9      	uxtb	r1, r1
    1072:	4413      	add	r3, r2
    1074:	460a      	mov	r2, r1
    1076:	f883 2300 	strb.w	r2, [r3, #768]	; 0x300
    107a:	4a13      	ldr	r2, [pc, #76]	; (0x10c8)
    107c:	687b      	ldr	r3, [r7, #4]
    107e:	781b      	ldrb	r3, [r3, #0]
    1080:	095b      	lsrs	r3, r3, #5
    1082:	b2db      	uxtb	r3, r3
    1084:	4618      	mov	r0, r3
    1086:	687b      	ldr	r3, [r7, #4]
    1088:	781b      	ldrb	r3, [r3, #0]
    108a:	f003 031f 	and.w	r3, r3, #31
    108e:	2101      	movs	r1, #1
    1090:	fa01 f303 	lsl.w	r3, r1, r3
    1094:	f842 3020 	str.w	r3, [r2, r0, lsl #2]
    1098:	e00f      	b.n	0x10ba
    109a:	490b      	ldr	r1, [pc, #44]	; (0x10c8)
    109c:	687b      	ldr	r3, [r7, #4]
    109e:	781b      	ldrb	r3, [r3, #0]
    10a0:	095b      	lsrs	r3, r3, #5
    10a2:	b2db      	uxtb	r3, r3
    10a4:	4618      	mov	r0, r3
    10a6:	687b      	ldr	r3, [r7, #4]
    10a8:	781b      	ldrb	r3, [r3, #0]
    10aa:	f003 031f 	and.w	r3, r3, #31
    10ae:	2201      	movs	r2, #1
    10b0:	409a      	lsls	r2, r3
    10b2:	f100 0320 	add.w	r3, r0, #32
    10b6:	f841 2023 	str.w	r2, [r1, r3, lsl #2]
    10ba:	bf00      	nop
    10bc:	371c      	adds	r7, #28
    10be:	46bd      	mov	sp, r7
    10c0:	bc80      	pop	{r7}
    10c2:	4770      	bx	lr
    10c4:	ed00 e000 	stc	0, cr14, [r0, #-0]
    10c8:	e100      	b.n	0x12cc
    10ca:	e000      	b.n	0x10ce
    10cc:	b480      	push	{r7}
    10ce:	b085      	sub	sp, #20
    10d0:	af00      	add	r7, sp, #0
    10d2:	6078      	str	r0, [r7, #4]
    10d4:	6039      	str	r1, [r7, #0]
    10d6:	2300      	movs	r3, #0
    10d8:	60fb      	str	r3, [r7, #12]
    10da:	2300      	movs	r3, #0
    10dc:	72fb      	strb	r3, [r7, #11]
    10de:	687b      	ldr	r3, [r7, #4]
    10e0:	685b      	ldr	r3, [r3, #4]
    10e2:	60fb      	str	r3, [r7, #12]
    10e4:	68fb      	ldr	r3, [r7, #12]
    10e6:	f423 2370 	bic.w	r3, r3, #983040	; 0xf0000
    10ea:	f423 7380 	bic.w	r3, r3, #256	; 0x100
    10ee:	60fb      	str	r3, [r7, #12]
    10f0:	683b      	ldr	r3, [r7, #0]
    10f2:	681a      	ldr	r2, [r3, #0]
    10f4:	683b      	ldr	r3, [r7, #0]
    10f6:	791b      	ldrb	r3, [r3, #4]
    10f8:	021b      	lsls	r3, r3, #8
    10fa:	4313      	orrs	r3, r2
    10fc:	68fa      	ldr	r2, [r7, #12]
    10fe:	4313      	orrs	r3, r2
    1100:	60fb      	str	r3, [r7, #12]
    1102:	687b      	ldr	r3, [r7, #4]
    1104:	68fa      	ldr	r2, [r7, #12]
    1106:	605a      	str	r2, [r3, #4]
    1108:	687b      	ldr	r3, [r7, #4]
    110a:	689b      	ldr	r3, [r3, #8]
    110c:	60fb      	str	r3, [r7, #12]
    110e:	68fa      	ldr	r2, [r7, #12]
    1110:	4b16      	ldr	r3, [pc, #88]	; (0x116c)
    1112:	4013      	ands	r3, r2
    1114:	60fb      	str	r3, [r7, #12]
    1116:	683b      	ldr	r3, [r7, #0]
    1118:	68da      	ldr	r2, [r3, #12]
    111a:	683b      	ldr	r3, [r7, #0]
    111c:	689b      	ldr	r3, [r3, #8]
    111e:	431a      	orrs	r2, r3
    1120:	683b      	ldr	r3, [r7, #0]
    1122:	795b      	ldrb	r3, [r3, #5]
    1124:	005b      	lsls	r3, r3, #1
    1126:	4313      	orrs	r3, r2
    1128:	68fa      	ldr	r2, [r7, #12]
    112a:	4313      	orrs	r3, r2
    112c:	60fb      	str	r3, [r7, #12]
    112e:	687b      	ldr	r3, [r7, #4]
    1130:	68fa      	ldr	r2, [r7, #12]
    1132:	609a      	str	r2, [r3, #8]
    1134:	687b      	ldr	r3, [r7, #4]
    1136:	6adb      	ldr	r3, [r3, #44]	; 0x2c
    1138:	60fb      	str	r3, [r7, #12]
    113a:	68fb      	ldr	r3, [r7, #12]
    113c:	f423 0370 	bic.w	r3, r3, #15728640	; 0xf00000
    1140:	60fb      	str	r3, [r7, #12]
    1142:	683b      	ldr	r3, [r7, #0]
    1144:	7c1b      	ldrb	r3, [r3, #16]
    1146:	3b01      	subs	r3, #1
    1148:	b2da      	uxtb	r2, r3
    114a:	7afb      	ldrb	r3, [r7, #11]
    114c:	4313      	orrs	r3, r2
    114e:	72fb      	strb	r3, [r7, #11]
    1150:	7afb      	ldrb	r3, [r7, #11]
    1152:	051b      	lsls	r3, r3, #20
    1154:	68fa      	ldr	r2, [r7, #12]
    1156:	4313      	orrs	r3, r2
    1158:	60fb      	str	r3, [r7, #12]
    115a:	687b      	ldr	r3, [r7, #4]
    115c:	68fa      	ldr	r2, [r7, #12]
    115e:	62da      	str	r2, [r3, #44]	; 0x2c
    1160:	bf00      	nop
    1162:	3714      	adds	r7, #20
    1164:	46bd      	mov	sp, r7
    1166:	bc80      	pop	{r7}
    1168:	4770      	bx	lr
    116a:	bf00      	nop
    116c:	f7fd fff1 	bl	0xfffff152
    1170:	b480      	push	{r7}
    1172:	b083      	sub	sp, #12
    1174:	af00      	add	r7, sp, #0
    1176:	6078      	str	r0, [r7, #4]
    1178:	460b      	mov	r3, r1
    117a:	70fb      	strb	r3, [r7, #3]
    117c:	78fb      	ldrb	r3, [r7, #3]
    117e:	2b00      	cmp	r3, #0
    1180:	d006      	beq.n	0x1190
    1182:	687b      	ldr	r3, [r7, #4]
    1184:	689b      	ldr	r3, [r3, #8]
    1186:	f043 0201 	orr.w	r2, r3, #1
    118a:	687b      	ldr	r3, [r7, #4]
    118c:	609a      	str	r2, [r3, #8]
    118e:	e005      	b.n	0x119c
    1190:	687b      	ldr	r3, [r7, #4]
    1192:	689b      	ldr	r3, [r3, #8]
    1194:	f023 0201 	bic.w	r2, r3, #1
    1198:	687b      	ldr	r3, [r7, #4]
    119a:	609a      	str	r2, [r3, #8]
    119c:	bf00      	nop
    119e:	370c      	adds	r7, #12
    11a0:	46bd      	mov	sp, r7
    11a2:	bc80      	pop	{r7}
    11a4:	4770      	bx	lr
    11a6:	bf00      	nop
    11a8:	b480      	push	{r7}
    11aa:	b083      	sub	sp, #12
    11ac:	af00      	add	r7, sp, #0
    11ae:	6078      	str	r0, [r7, #4]
    11b0:	687b      	ldr	r3, [r7, #4]
    11b2:	689b      	ldr	r3, [r3, #8]
    11b4:	f043 0208 	orr.w	r2, r3, #8
    11b8:	687b      	ldr	r3, [r7, #4]
    11ba:	609a      	str	r2, [r3, #8]
    11bc:	bf00      	nop
    11be:	370c      	adds	r7, #12
    11c0:	46bd      	mov	sp, r7
    11c2:	bc80      	pop	{r7}
    11c4:	4770      	bx	lr
    11c6:	bf00      	nop
    11c8:	b480      	push	{r7}
    11ca:	b085      	sub	sp, #20
    11cc:	af00      	add	r7, sp, #0
    11ce:	6078      	str	r0, [r7, #4]
    11d0:	2300      	movs	r3, #0
    11d2:	73fb      	strb	r3, [r7, #15]
    11d4:	687b      	ldr	r3, [r7, #4]
    11d6:	689b      	ldr	r3, [r3, #8]
    11d8:	f003 0308 	and.w	r3, r3, #8
    11dc:	2b00      	cmp	r3, #0
    11de:	d002      	beq.n	0x11e6
    11e0:	2301      	movs	r3, #1
    11e2:	73fb      	strb	r3, [r7, #15]
    11e4:	e001      	b.n	0x11ea
    11e6:	2300      	movs	r3, #0
    11e8:	73fb      	strb	r3, [r7, #15]
    11ea:	7bfb      	ldrb	r3, [r7, #15]
    11ec:	4618      	mov	r0, r3
    11ee:	3714      	adds	r7, #20
    11f0:	46bd      	mov	sp, r7
    11f2:	bc80      	pop	{r7}
    11f4:	4770      	bx	lr
    11f6:	bf00      	nop
    11f8:	b480      	push	{r7}
    11fa:	b083      	sub	sp, #12
    11fc:	af00      	add	r7, sp, #0
    11fe:	6078      	str	r0, [r7, #4]
    1200:	687b      	ldr	r3, [r7, #4]
    1202:	689b      	ldr	r3, [r3, #8]
    1204:	f043 0204 	orr.w	r2, r3, #4
    1208:	687b      	ldr	r3, [r7, #4]
    120a:	609a      	str	r2, [r3, #8]
    120c:	bf00      	nop
    120e:	370c      	adds	r7, #12
    1210:	46bd      	mov	sp, r7
    1212:	bc80      	pop	{r7}
    1214:	4770      	bx	lr
    1216:	bf00      	nop
    1218:	b480      	push	{r7}
    121a:	b085      	sub	sp, #20
    121c:	af00      	add	r7, sp, #0
    121e:	6078      	str	r0, [r7, #4]
    1220:	2300      	movs	r3, #0
    1222:	73fb      	strb	r3, [r7, #15]
    1224:	687b      	ldr	r3, [r7, #4]
    1226:	689b      	ldr	r3, [r3, #8]
    1228:	f003 0304 	and.w	r3, r3, #4
    122c:	2b00      	cmp	r3, #0
    122e:	d002      	beq.n	0x1236
    1230:	2301      	movs	r3, #1
    1232:	73fb      	strb	r3, [r7, #15]
    1234:	e001      	b.n	0x123a
    1236:	2300      	movs	r3, #0
    1238:	73fb      	strb	r3, [r7, #15]
    123a:	7bfb      	ldrb	r3, [r7, #15]
    123c:	4618      	mov	r0, r3
    123e:	3714      	adds	r7, #20
    1240:	46bd      	mov	sp, r7
    1242:	bc80      	pop	{r7}
    1244:	4770      	bx	lr
    1246:	bf00      	nop
    1248:	b480      	push	{r7}
    124a:	b083      	sub	sp, #12
    124c:	af00      	add	r7, sp, #0
    124e:	6078      	str	r0, [r7, #4]
    1250:	460b      	mov	r3, r1
    1252:	70fb      	strb	r3, [r7, #3]
    1254:	78fb      	ldrb	r3, [r7, #3]
    1256:	2b00      	cmp	r3, #0
    1258:	d006      	beq.n	0x1268
    125a:	687b      	ldr	r3, [r7, #4]
    125c:	689b      	ldr	r3, [r3, #8]
    125e:	f443 02a0 	orr.w	r2, r3, #5242880	; 0x500000
    1262:	687b      	ldr	r3, [r7, #4]
    1264:	609a      	str	r2, [r3, #8]
    1266:	e005      	b.n	0x1274
    1268:	687b      	ldr	r3, [r7, #4]
    126a:	689b      	ldr	r3, [r3, #8]
    126c:	f423 02a0 	bic.w	r2, r3, #5242880	; 0x500000
    1270:	687b      	ldr	r3, [r7, #4]
    1272:	609a      	str	r2, [r3, #8]
    1274:	bf00      	nop
    1276:	370c      	adds	r7, #12
    1278:	46bd      	mov	sp, r7
    127a:	bc80      	pop	{r7}
    127c:	4770      	bx	lr
    127e:	bf00      	nop
    1280:	b480      	push	{r7}
    1282:	b085      	sub	sp, #20
    1284:	af00      	add	r7, sp, #0
    1286:	6078      	str	r0, [r7, #4]
    1288:	4608      	mov	r0, r1
    128a:	4611      	mov	r1, r2
    128c:	461a      	mov	r2, r3
    128e:	4603      	mov	r3, r0
    1290:	70fb      	strb	r3, [r7, #3]
    1292:	460b      	mov	r3, r1
    1294:	70bb      	strb	r3, [r7, #2]
    1296:	4613      	mov	r3, r2
    1298:	707b      	strb	r3, [r7, #1]
    129a:	2300      	movs	r3, #0
    129c:	60fb      	str	r3, [r7, #12]
    129e:	2300      	movs	r3, #0
    12a0:	60bb      	str	r3, [r7, #8]
    12a2:	78fb      	ldrb	r3, [r7, #3]
    12a4:	2b09      	cmp	r3, #9
    12a6:	d923      	bls.n	0x12f0
    12a8:	687b      	ldr	r3, [r7, #4]
    12aa:	68db      	ldr	r3, [r3, #12]
    12ac:	60fb      	str	r3, [r7, #12]
    12ae:	78fb      	ldrb	r3, [r7, #3]
    12b0:	f1a3 020a 	sub.w	r2, r3, #10
    12b4:	4613      	mov	r3, r2
    12b6:	005b      	lsls	r3, r3, #1
    12b8:	4413      	add	r3, r2
    12ba:	2207      	movs	r2, #7
    12bc:	fa02 f303 	lsl.w	r3, r2, r3
    12c0:	60bb      	str	r3, [r7, #8]
    12c2:	68bb      	ldr	r3, [r7, #8]
    12c4:	43db      	mvns	r3, r3
    12c6:	68fa      	ldr	r2, [r7, #12]
    12c8:	4013      	ands	r3, r2
    12ca:	60fb      	str	r3, [r7, #12]
    12cc:	7879      	ldrb	r1, [r7, #1]
    12ce:	78fb      	ldrb	r3, [r7, #3]
    12d0:	f1a3 020a 	sub.w	r2, r3, #10
    12d4:	4613      	mov	r3, r2
    12d6:	005b      	lsls	r3, r3, #1
    12d8:	4413      	add	r3, r2
    12da:	fa01 f303 	lsl.w	r3, r1, r3
    12de:	60bb      	str	r3, [r7, #8]
    12e0:	68fa      	ldr	r2, [r7, #12]
    12e2:	68bb      	ldr	r3, [r7, #8]
    12e4:	4313      	orrs	r3, r2
    12e6:	60fb      	str	r3, [r7, #12]
    12e8:	687b      	ldr	r3, [r7, #4]
    12ea:	68fa      	ldr	r2, [r7, #12]
    12ec:	60da      	str	r2, [r3, #12]
    12ee:	e01e      	b.n	0x132e
    12f0:	687b      	ldr	r3, [r7, #4]
    12f2:	691b      	ldr	r3, [r3, #16]
    12f4:	60fb      	str	r3, [r7, #12]
    12f6:	78fa      	ldrb	r2, [r7, #3]
    12f8:	4613      	mov	r3, r2
    12fa:	005b      	lsls	r3, r3, #1
    12fc:	4413      	add	r3, r2
    12fe:	2207      	movs	r2, #7
    1300:	fa02 f303 	lsl.w	r3, r2, r3
    1304:	60bb      	str	r3, [r7, #8]
    1306:	68bb      	ldr	r3, [r7, #8]
    1308:	43db      	mvns	r3, r3
    130a:	68fa      	ldr	r2, [r7, #12]
    130c:	4013      	ands	r3, r2
    130e:	60fb      	str	r3, [r7, #12]
    1310:	7879      	ldrb	r1, [r7, #1]
    1312:	78fa      	ldrb	r2, [r7, #3]
    1314:	4613      	mov	r3, r2
    1316:	005b      	lsls	r3, r3, #1
    1318:	4413      	add	r3, r2
    131a:	fa01 f303 	lsl.w	r3, r1, r3
    131e:	60bb      	str	r3, [r7, #8]
    1320:	68fa      	ldr	r2, [r7, #12]
    1322:	68bb      	ldr	r3, [r7, #8]
    1324:	4313      	orrs	r3, r2
    1326:	60fb      	str	r3, [r7, #12]
    1328:	687b      	ldr	r3, [r7, #4]
    132a:	68fa      	ldr	r2, [r7, #12]
    132c:	611a      	str	r2, [r3, #16]
    132e:	78bb      	ldrb	r3, [r7, #2]
    1330:	2b06      	cmp	r3, #6
    1332:	d821      	bhi.n	0x1378
    1334:	687b      	ldr	r3, [r7, #4]
    1336:	6b5b      	ldr	r3, [r3, #52]	; 0x34
    1338:	60fb      	str	r3, [r7, #12]
    133a:	78bb      	ldrb	r3, [r7, #2]
    133c:	1e5a      	subs	r2, r3, #1
    133e:	4613      	mov	r3, r2
    1340:	009b      	lsls	r3, r3, #2
    1342:	4413      	add	r3, r2
    1344:	221f      	movs	r2, #31
    1346:	fa02 f303 	lsl.w	r3, r2, r3
    134a:	60bb      	str	r3, [r7, #8]
    134c:	68bb      	ldr	r3, [r7, #8]
    134e:	43db      	mvns	r3, r3
    1350:	68fa      	ldr	r2, [r7, #12]
    1352:	4013      	ands	r3, r2
    1354:	60fb      	str	r3, [r7, #12]
    1356:	78f9      	ldrb	r1, [r7, #3]
    1358:	78bb      	ldrb	r3, [r7, #2]
    135a:	1e5a      	subs	r2, r3, #1
    135c:	4613      	mov	r3, r2
    135e:	009b      	lsls	r3, r3, #2
    1360:	4413      	add	r3, r2
    1362:	fa01 f303 	lsl.w	r3, r1, r3
    1366:	60bb      	str	r3, [r7, #8]
    1368:	68fa      	ldr	r2, [r7, #12]
    136a:	68bb      	ldr	r3, [r7, #8]
    136c:	4313      	orrs	r3, r2
    136e:	60fb      	str	r3, [r7, #12]
    1370:	687b      	ldr	r3, [r7, #4]
    1372:	68fa      	ldr	r2, [r7, #12]
    1374:	635a      	str	r2, [r3, #52]	; 0x34
    1376:	e047      	b.n	0x1408
    1378:	78bb      	ldrb	r3, [r7, #2]
    137a:	2b0c      	cmp	r3, #12
    137c:	d821      	bhi.n	0x13c2
    137e:	687b      	ldr	r3, [r7, #4]
    1380:	6b1b      	ldr	r3, [r3, #48]	; 0x30
    1382:	60fb      	str	r3, [r7, #12]
    1384:	78bb      	ldrb	r3, [r7, #2]
    1386:	1fda      	subs	r2, r3, #7
    1388:	4613      	mov	r3, r2
    138a:	009b      	lsls	r3, r3, #2
    138c:	4413      	add	r3, r2
    138e:	221f      	movs	r2, #31
    1390:	fa02 f303 	lsl.w	r3, r2, r3
    1394:	60bb      	str	r3, [r7, #8]
    1396:	68bb      	ldr	r3, [r7, #8]
    1398:	43db      	mvns	r3, r3
    139a:	68fa      	ldr	r2, [r7, #12]
    139c:	4013      	ands	r3, r2
    139e:	60fb      	str	r3, [r7, #12]
    13a0:	78f9      	ldrb	r1, [r7, #3]
    13a2:	78bb      	ldrb	r3, [r7, #2]
    13a4:	1fda      	subs	r2, r3, #7
    13a6:	4613      	mov	r3, r2
    13a8:	009b      	lsls	r3, r3, #2
    13aa:	4413      	add	r3, r2
    13ac:	fa01 f303 	lsl.w	r3, r1, r3
    13b0:	60bb      	str	r3, [r7, #8]
    13b2:	68fa      	ldr	r2, [r7, #12]
    13b4:	68bb      	ldr	r3, [r7, #8]
    13b6:	4313      	orrs	r3, r2
    13b8:	60fb      	str	r3, [r7, #12]
    13ba:	687b      	ldr	r3, [r7, #4]
    13bc:	68fa      	ldr	r2, [r7, #12]
    13be:	631a      	str	r2, [r3, #48]	; 0x30
    13c0:	e022      	b.n	0x1408
    13c2:	687b      	ldr	r3, [r7, #4]
    13c4:	6adb      	ldr	r3, [r3, #44]	; 0x2c
    13c6:	60fb      	str	r3, [r7, #12]
    13c8:	78bb      	ldrb	r3, [r7, #2]
    13ca:	f1a3 020d 	sub.w	r2, r3, #13
    13ce:	4613      	mov	r3, r2
    13d0:	009b      	lsls	r3, r3, #2
    13d2:	4413      	add	r3, r2
    13d4:	221f      	movs	r2, #31
    13d6:	fa02 f303 	lsl.w	r3, r2, r3
    13da:	60bb      	str	r3, [r7, #8]
    13dc:	68bb      	ldr	r3, [r7, #8]
    13de:	43db      	mvns	r3, r3
    13e0:	68fa      	ldr	r2, [r7, #12]
    13e2:	4013      	ands	r3, r2
    13e4:	60fb      	str	r3, [r7, #12]
    13e6:	78f9      	ldrb	r1, [r7, #3]
    13e8:	78bb      	ldrb	r3, [r7, #2]
    13ea:	f1a3 020d 	sub.w	r2, r3, #13
    13ee:	4613      	mov	r3, r2
    13f0:	009b      	lsls	r3, r3, #2
    13f2:	4413      	add	r3, r2
    13f4:	fa01 f303 	lsl.w	r3, r1, r3
    13f8:	60bb      	str	r3, [r7, #8]
    13fa:	68fa      	ldr	r2, [r7, #12]
    13fc:	68bb      	ldr	r3, [r7, #8]
    13fe:	4313      	orrs	r3, r2
    1400:	60fb      	str	r3, [r7, #12]
    1402:	687b      	ldr	r3, [r7, #4]
    1404:	68fa      	ldr	r2, [r7, #12]
    1406:	62da      	str	r2, [r3, #44]	; 0x2c
    1408:	bf00      	nop
    140a:	3714      	adds	r7, #20
    140c:	46bd      	mov	sp, r7
    140e:	bc80      	pop	{r7}
    1410:	4770      	bx	lr
    1412:	bf00      	nop
    1414:	b480      	push	{r7}
    1416:	b083      	sub	sp, #12
    1418:	af00      	add	r7, sp, #0
    141a:	6078      	str	r0, [r7, #4]
    141c:	687b      	ldr	r3, [r7, #4]
    141e:	6cdb      	ldr	r3, [r3, #76]	; 0x4c
    1420:	b29b      	uxth	r3, r3
    1422:	4618      	mov	r0, r3
    1424:	370c      	adds	r7, #12
    1426:	46bd      	mov	sp, r7
    1428:	bc80      	pop	{r7}
    142a:	4770      	bx	lr
    142c:	b480      	push	{r7}
    142e:	b085      	sub	sp, #20
    1430:	af00      	add	r7, sp, #0
    1432:	6078      	str	r0, [r7, #4]
    1434:	460b      	mov	r3, r1
    1436:	70fb      	strb	r3, [r7, #3]
    1438:	2300      	movs	r3, #0
    143a:	73fb      	strb	r3, [r7, #15]
    143c:	687b      	ldr	r3, [r7, #4]
    143e:	681a      	ldr	r2, [r3, #0]
    1440:	78fb      	ldrb	r3, [r7, #3]
    1442:	4013      	ands	r3, r2
    1444:	2b00      	cmp	r3, #0
    1446:	d002      	beq.n	0x144e
    1448:	2301      	movs	r3, #1
    144a:	73fb      	strb	r3, [r7, #15]
    144c:	e001      	b.n	0x1452
    144e:	2300      	movs	r3, #0
    1450:	73fb      	strb	r3, [r7, #15]
    1452:	7bfb      	ldrb	r3, [r7, #15]
    1454:	4618      	mov	r0, r3
    1456:	3714      	adds	r7, #20
    1458:	46bd      	mov	sp, r7
    145a:	bc80      	pop	{r7}
    145c:	4770      	bx	lr
    145e:	bf00      	nop
    1460:	b480      	push	{r7}
    1462:	b083      	sub	sp, #12
    1464:	af00      	add	r7, sp, #0
    1466:	6078      	str	r0, [r7, #4]
    1468:	460b      	mov	r3, r1
    146a:	70fb      	strb	r3, [r7, #3]
    146c:	78fb      	ldrb	r3, [r7, #3]
    146e:	43da      	mvns	r2, r3
    1470:	687b      	ldr	r3, [r7, #4]
    1472:	601a      	str	r2, [r3, #0]
    1474:	bf00      	nop
    1476:	370c      	adds	r7, #12
    1478:	46bd      	mov	sp, r7
    147a:	bc80      	pop	{r7}
    147c:	4770      	bx	lr
    147e:	bf00      	nop
    1480:	b580      	push	{r7, lr}
    1482:	b082      	sub	sp, #8
    1484:	af00      	add	r7, sp, #0
    1486:	6078      	str	r0, [r7, #4]
    1488:	687b      	ldr	r3, [r7, #4]
    148a:	4a0e      	ldr	r2, [pc, #56]	; (0x14c4)
    148c:	4293      	cmp	r3, r2
    148e:	d10a      	bne.n	0x14a6
    1490:	2101      	movs	r1, #1
    1492:	f04f 7000 	mov.w	r0, #33554432	; 0x2000000
    1496:	f000 fd37 	bl	0x1f08
    149a:	2100      	movs	r1, #0
    149c:	f04f 7000 	mov.w	r0, #33554432	; 0x2000000
    14a0:	f000 fd32 	bl	0x1f08
    14a4:	e009      	b.n	0x14ba
    14a6:	2101      	movs	r1, #1
    14a8:	f04f 6080 	mov.w	r0, #67108864	; 0x4000000
    14ac:	f000 fd2c 	bl	0x1f08
    14b0:	2100      	movs	r1, #0
    14b2:	f04f 6080 	mov.w	r0, #67108864	; 0x4000000
    14b6:	f000 fd27 	bl	0x1f08
    14ba:	bf00      	nop
    14bc:	3708      	adds	r7, #8
    14be:	46bd      	mov	sp, r7
    14c0:	bd80      	pop	{r7, pc}
    14c2:	bf00      	nop
    14c4:	6400      	str	r0, [r0, #64]	; 0x40
    14c6:	4000      	ands	r0, r0
    14c8:	b480      	push	{r7}
    14ca:	b085      	sub	sp, #20
    14cc:	af00      	add	r7, sp, #0
    14ce:	6078      	str	r0, [r7, #4]
    14d0:	6039      	str	r1, [r7, #0]
    14d2:	2300      	movs	r3, #0
    14d4:	73fb      	strb	r3, [r7, #15]
    14d6:	2300      	movs	r3, #0
    14d8:	60bb      	str	r3, [r7, #8]
    14da:	687b      	ldr	r3, [r7, #4]
    14dc:	681b      	ldr	r3, [r3, #0]
    14de:	f023 0202 	bic.w	r2, r3, #2
    14e2:	687b      	ldr	r3, [r7, #4]
    14e4:	601a      	str	r2, [r3, #0]
    14e6:	687b      	ldr	r3, [r7, #4]
    14e8:	681b      	ldr	r3, [r3, #0]
    14ea:	f043 0201 	orr.w	r2, r3, #1
    14ee:	687b      	ldr	r3, [r7, #4]
    14f0:	601a      	str	r2, [r3, #0]
    14f2:	e002      	b.n	0x14fa
    14f4:	68bb      	ldr	r3, [r7, #8]
    14f6:	3301      	adds	r3, #1
    14f8:	60bb      	str	r3, [r7, #8]
    14fa:	687b      	ldr	r3, [r7, #4]
    14fc:	685b      	ldr	r3, [r3, #4]
    14fe:	f003 0301 	and.w	r3, r3, #1
    1502:	2b00      	cmp	r3, #0
    1504:	d104      	bne.n	0x1510
    1506:	68bb      	ldr	r3, [r7, #8]
    1508:	f64f 72ff 	movw	r2, #65535	; 0xffff
    150c:	4293      	cmp	r3, r2
    150e:	d1f1      	bne.n	0x14f4
    1510:	687b      	ldr	r3, [r7, #4]
    1512:	685b      	ldr	r3, [r3, #4]
    1514:	f003 0301 	and.w	r3, r3, #1
    1518:	2b00      	cmp	r3, #0
    151a:	d102      	bne.n	0x1522
    151c:	2300      	movs	r3, #0
    151e:	73fb      	strb	r3, [r7, #15]
    1520:	e09c      	b.n	0x165c
    1522:	683b      	ldr	r3, [r7, #0]
    1524:	799b      	ldrb	r3, [r3, #6]
    1526:	2b01      	cmp	r3, #1
    1528:	d106      	bne.n	0x1538
    152a:	687b      	ldr	r3, [r7, #4]
    152c:	681b      	ldr	r3, [r3, #0]
    152e:	f043 0280 	orr.w	r2, r3, #128	; 0x80
    1532:	687b      	ldr	r3, [r7, #4]
    1534:	601a      	str	r2, [r3, #0]
    1536:	e005      	b.n	0x1544
    1538:	687b      	ldr	r3, [r7, #4]
    153a:	681b      	ldr	r3, [r3, #0]
    153c:	f023 0280 	bic.w	r2, r3, #128	; 0x80
    1540:	687b      	ldr	r3, [r7, #4]
    1542:	601a      	str	r2, [r3, #0]
    1544:	683b      	ldr	r3, [r7, #0]
    1546:	79db      	ldrb	r3, [r3, #7]
    1548:	2b01      	cmp	r3, #1
    154a:	d106      	bne.n	0x155a
    154c:	687b      	ldr	r3, [r7, #4]
    154e:	681b      	ldr	r3, [r3, #0]
    1550:	f043 0240 	orr.w	r2, r3, #64	; 0x40
    1554:	687b      	ldr	r3, [r7, #4]
    1556:	601a      	str	r2, [r3, #0]
    1558:	e005      	b.n	0x1566
    155a:	687b      	ldr	r3, [r7, #4]
    155c:	681b      	ldr	r3, [r3, #0]
    155e:	f023 0240 	bic.w	r2, r3, #64	; 0x40
    1562:	687b      	ldr	r3, [r7, #4]
    1564:	601a      	str	r2, [r3, #0]
    1566:	683b      	ldr	r3, [r7, #0]
    1568:	7a1b      	ldrb	r3, [r3, #8]
    156a:	2b01      	cmp	r3, #1
    156c:	d106      	bne.n	0x157c
    156e:	687b      	ldr	r3, [r7, #4]
    1570:	681b      	ldr	r3, [r3, #0]
    1572:	f043 0220 	orr.w	r2, r3, #32
    1576:	687b      	ldr	r3, [r7, #4]
    1578:	601a      	str	r2, [r3, #0]
    157a:	e005      	b.n	0x1588
    157c:	687b      	ldr	r3, [r7, #4]
    157e:	681b      	ldr	r3, [r3, #0]
    1580:	f023 0220 	bic.w	r2, r3, #32
    1584:	687b      	ldr	r3, [r7, #4]
    1586:	601a      	str	r2, [r3, #0]
    1588:	683b      	ldr	r3, [r7, #0]
    158a:	7a5b      	ldrb	r3, [r3, #9]
    158c:	2b01      	cmp	r3, #1
    158e:	d106      	bne.n	0x159e
    1590:	687b      	ldr	r3, [r7, #4]
    1592:	681b      	ldr	r3, [r3, #0]
    1594:	f043 0210 	orr.w	r2, r3, #16
    1598:	687b      	ldr	r3, [r7, #4]
    159a:	601a      	str	r2, [r3, #0]
    159c:	e005      	b.n	0x15aa
    159e:	687b      	ldr	r3, [r7, #4]
    15a0:	681b      	ldr	r3, [r3, #0]
    15a2:	f023 0210 	bic.w	r2, r3, #16
    15a6:	687b      	ldr	r3, [r7, #4]
    15a8:	601a      	str	r2, [r3, #0]
    15aa:	683b      	ldr	r3, [r7, #0]
    15ac:	7a9b      	ldrb	r3, [r3, #10]
    15ae:	2b01      	cmp	r3, #1
    15b0:	d106      	bne.n	0x15c0
    15b2:	687b      	ldr	r3, [r7, #4]
    15b4:	681b      	ldr	r3, [r3, #0]
    15b6:	f043 0208 	orr.w	r2, r3, #8
    15ba:	687b      	ldr	r3, [r7, #4]
    15bc:	601a      	str	r2, [r3, #0]
    15be:	e005      	b.n	0x15cc
    15c0:	687b      	ldr	r3, [r7, #4]
    15c2:	681b      	ldr	r3, [r3, #0]
    15c4:	f023 0208 	bic.w	r2, r3, #8
    15c8:	687b      	ldr	r3, [r7, #4]
    15ca:	601a      	str	r2, [r3, #0]
    15cc:	683b      	ldr	r3, [r7, #0]
    15ce:	7adb      	ldrb	r3, [r3, #11]
    15d0:	2b01      	cmp	r3, #1
    15d2:	d106      	bne.n	0x15e2
    15d4:	687b      	ldr	r3, [r7, #4]
    15d6:	681b      	ldr	r3, [r3, #0]
    15d8:	f043 0204 	orr.w	r2, r3, #4
    15dc:	687b      	ldr	r3, [r7, #4]
    15de:	601a      	str	r2, [r3, #0]
    15e0:	e005      	b.n	0x15ee
    15e2:	687b      	ldr	r3, [r7, #4]
    15e4:	681b      	ldr	r3, [r3, #0]
    15e6:	f023 0204 	bic.w	r2, r3, #4
    15ea:	687b      	ldr	r3, [r7, #4]
    15ec:	601a      	str	r2, [r3, #0]
    15ee:	683b      	ldr	r3, [r7, #0]
    15f0:	789b      	ldrb	r3, [r3, #2]
    15f2:	079a      	lsls	r2, r3, #30
    15f4:	683b      	ldr	r3, [r7, #0]
    15f6:	78db      	ldrb	r3, [r3, #3]
    15f8:	061b      	lsls	r3, r3, #24
    15fa:	431a      	orrs	r2, r3
    15fc:	683b      	ldr	r3, [r7, #0]
    15fe:	791b      	ldrb	r3, [r3, #4]
    1600:	041b      	lsls	r3, r3, #16
    1602:	431a      	orrs	r2, r3
    1604:	683b      	ldr	r3, [r7, #0]
    1606:	795b      	ldrb	r3, [r3, #5]
    1608:	051b      	lsls	r3, r3, #20
    160a:	431a      	orrs	r2, r3
    160c:	683b      	ldr	r3, [r7, #0]
    160e:	881b      	ldrh	r3, [r3, #0]
    1610:	3b01      	subs	r3, #1
    1612:	431a      	orrs	r2, r3
    1614:	687b      	ldr	r3, [r7, #4]
    1616:	61da      	str	r2, [r3, #28]
    1618:	687b      	ldr	r3, [r7, #4]
    161a:	681b      	ldr	r3, [r3, #0]
    161c:	f023 0201 	bic.w	r2, r3, #1
    1620:	687b      	ldr	r3, [r7, #4]
    1622:	601a      	str	r2, [r3, #0]
    1624:	2300      	movs	r3, #0
    1626:	60bb      	str	r3, [r7, #8]
    1628:	e002      	b.n	0x1630
    162a:	68bb      	ldr	r3, [r7, #8]
    162c:	3301      	adds	r3, #1
    162e:	60bb      	str	r3, [r7, #8]
    1630:	687b      	ldr	r3, [r7, #4]
    1632:	685b      	ldr	r3, [r3, #4]
    1634:	f003 0301 	and.w	r3, r3, #1
    1638:	2b00      	cmp	r3, #0
    163a:	d004      	beq.n	0x1646
    163c:	68bb      	ldr	r3, [r7, #8]
    163e:	f64f 72ff 	movw	r2, #65535	; 0xffff
    1642:	4293      	cmp	r3, r2
    1644:	d1f1      	bne.n	0x162a
    1646:	687b      	ldr	r3, [r7, #4]
    1648:	685b      	ldr	r3, [r3, #4]
    164a:	f003 0301 	and.w	r3, r3, #1
    164e:	2b00      	cmp	r3, #0
    1650:	d002      	beq.n	0x1658
    1652:	2300      	movs	r3, #0
    1654:	73fb      	strb	r3, [r7, #15]
    1656:	e001      	b.n	0x165c
    1658:	2301      	movs	r3, #1
    165a:	73fb      	strb	r3, [r7, #15]
    165c:	7bfb      	ldrb	r3, [r7, #15]
    165e:	4618      	mov	r0, r3
    1660:	3714      	adds	r7, #20
    1662:	46bd      	mov	sp, r7
    1664:	bc80      	pop	{r7}
    1666:	4770      	bx	lr
    1668:	b480      	push	{r7}
    166a:	b085      	sub	sp, #20
    166c:	af00      	add	r7, sp, #0
    166e:	6078      	str	r0, [r7, #4]
    1670:	2300      	movs	r3, #0
    1672:	60fb      	str	r3, [r7, #12]
    1674:	687b      	ldr	r3, [r7, #4]
    1676:	7a9b      	ldrb	r3, [r3, #10]
    1678:	461a      	mov	r2, r3
    167a:	2301      	movs	r3, #1
    167c:	4093      	lsls	r3, r2
    167e:	60fb      	str	r3, [r7, #12]
    1680:	4a55      	ldr	r2, [pc, #340]	; (0x17d8)
    1682:	4b55      	ldr	r3, [pc, #340]	; (0x17d8)
    1684:	f8d3 3200 	ldr.w	r3, [r3, #512]	; 0x200
    1688:	f043 0301 	orr.w	r3, r3, #1
    168c:	f8c2 3200 	str.w	r3, [r2, #512]	; 0x200
    1690:	4951      	ldr	r1, [pc, #324]	; (0x17d8)
    1692:	4b51      	ldr	r3, [pc, #324]	; (0x17d8)
    1694:	f8d3 221c 	ldr.w	r2, [r3, #540]	; 0x21c
    1698:	68fb      	ldr	r3, [r7, #12]
    169a:	43db      	mvns	r3, r3
    169c:	4013      	ands	r3, r2
    169e:	f8c1 321c 	str.w	r3, [r1, #540]	; 0x21c
    16a2:	687b      	ldr	r3, [r7, #4]
    16a4:	7b1b      	ldrb	r3, [r3, #12]
    16a6:	2b00      	cmp	r3, #0
    16a8:	d125      	bne.n	0x16f6
    16aa:	494b      	ldr	r1, [pc, #300]	; (0x17d8)
    16ac:	4b4a      	ldr	r3, [pc, #296]	; (0x17d8)
    16ae:	f8d3 220c 	ldr.w	r2, [r3, #524]	; 0x20c
    16b2:	68fb      	ldr	r3, [r7, #12]
    16b4:	43db      	mvns	r3, r3
    16b6:	4013      	ands	r3, r2
    16b8:	f8c1 320c 	str.w	r3, [r1, #524]	; 0x20c
    16bc:	4946      	ldr	r1, [pc, #280]	; (0x17d8)
    16be:	687b      	ldr	r3, [r7, #4]
    16c0:	7a9b      	ldrb	r3, [r3, #10]
    16c2:	4618      	mov	r0, r3
    16c4:	687b      	ldr	r3, [r7, #4]
    16c6:	88db      	ldrh	r3, [r3, #6]
    16c8:	041b      	lsls	r3, r3, #16
    16ca:	687a      	ldr	r2, [r7, #4]
    16cc:	8852      	ldrh	r2, [r2, #2]
    16ce:	431a      	orrs	r2, r3
    16d0:	f100 0348 	add.w	r3, r0, #72	; 0x48
    16d4:	f841 2033 	str.w	r2, [r1, r3, lsl #3]
    16d8:	493f      	ldr	r1, [pc, #252]	; (0x17d8)
    16da:	687b      	ldr	r3, [r7, #4]
    16dc:	7a9b      	ldrb	r3, [r3, #10]
    16de:	4618      	mov	r0, r3
    16e0:	687b      	ldr	r3, [r7, #4]
    16e2:	889b      	ldrh	r3, [r3, #4]
    16e4:	041b      	lsls	r3, r3, #16
    16e6:	687a      	ldr	r2, [r7, #4]
    16e8:	8812      	ldrh	r2, [r2, #0]
    16ea:	431a      	orrs	r2, r3
    16ec:	f100 0348 	add.w	r3, r0, #72	; 0x48
    16f0:	00db      	lsls	r3, r3, #3
    16f2:	440b      	add	r3, r1
    16f4:	605a      	str	r2, [r3, #4]
    16f6:	687b      	ldr	r3, [r7, #4]
    16f8:	7b1b      	ldrb	r3, [r3, #12]
    16fa:	2b01      	cmp	r3, #1
    16fc:	d124      	bne.n	0x1748
    16fe:	4936      	ldr	r1, [pc, #216]	; (0x17d8)
    1700:	4b35      	ldr	r3, [pc, #212]	; (0x17d8)
    1702:	f8d3 220c 	ldr.w	r2, [r3, #524]	; 0x20c
    1706:	68fb      	ldr	r3, [r7, #12]
    1708:	4313      	orrs	r3, r2
    170a:	f8c1 320c 	str.w	r3, [r1, #524]	; 0x20c
    170e:	4932      	ldr	r1, [pc, #200]	; (0x17d8)
    1710:	687b      	ldr	r3, [r7, #4]
    1712:	7a9b      	ldrb	r3, [r3, #10]
    1714:	4618      	mov	r0, r3
    1716:	687b      	ldr	r3, [r7, #4]
    1718:	881b      	ldrh	r3, [r3, #0]
    171a:	041b      	lsls	r3, r3, #16
    171c:	687a      	ldr	r2, [r7, #4]
    171e:	8852      	ldrh	r2, [r2, #2]
    1720:	431a      	orrs	r2, r3
    1722:	f100 0348 	add.w	r3, r0, #72	; 0x48
    1726:	f841 2033 	str.w	r2, [r1, r3, lsl #3]
    172a:	492b      	ldr	r1, [pc, #172]	; (0x17d8)
    172c:	687b      	ldr	r3, [r7, #4]
    172e:	7a9b      	ldrb	r3, [r3, #10]
    1730:	4618      	mov	r0, r3
    1732:	687b      	ldr	r3, [r7, #4]
    1734:	889b      	ldrh	r3, [r3, #4]
    1736:	041b      	lsls	r3, r3, #16
    1738:	687a      	ldr	r2, [r7, #4]
    173a:	88d2      	ldrh	r2, [r2, #6]
    173c:	431a      	orrs	r2, r3
    173e:	f100 0348 	add.w	r3, r0, #72	; 0x48
    1742:	00db      	lsls	r3, r3, #3
    1744:	440b      	add	r3, r1
    1746:	605a      	str	r2, [r3, #4]
    1748:	687b      	ldr	r3, [r7, #4]
    174a:	7adb      	ldrb	r3, [r3, #11]
    174c:	2b00      	cmp	r3, #0
    174e:	d109      	bne.n	0x1764
    1750:	4921      	ldr	r1, [pc, #132]	; (0x17d8)
    1752:	4b21      	ldr	r3, [pc, #132]	; (0x17d8)
    1754:	f8d3 2204 	ldr.w	r2, [r3, #516]	; 0x204
    1758:	68fb      	ldr	r3, [r7, #12]
    175a:	43db      	mvns	r3, r3
    175c:	4013      	ands	r3, r2
    175e:	f8c1 3204 	str.w	r3, [r1, #516]	; 0x204
    1762:	e007      	b.n	0x1774
    1764:	491c      	ldr	r1, [pc, #112]	; (0x17d8)
    1766:	4b1c      	ldr	r3, [pc, #112]	; (0x17d8)
    1768:	f8d3 2204 	ldr.w	r2, [r3, #516]	; 0x204
    176c:	68fb      	ldr	r3, [r7, #12]
    176e:	4313      	orrs	r3, r2
    1770:	f8c1 3204 	str.w	r3, [r1, #516]	; 0x204
    1774:	687b      	ldr	r3, [r7, #4]
    1776:	891b      	ldrh	r3, [r3, #8]
    1778:	2b00      	cmp	r3, #0
    177a:	d108      	bne.n	0x178e
    177c:	4916      	ldr	r1, [pc, #88]	; (0x17d8)
    177e:	4b16      	ldr	r3, [pc, #88]	; (0x17d8)
    1780:	f8d3 2214 	ldr.w	r2, [r3, #532]	; 0x214
    1784:	68fb      	ldr	r3, [r7, #12]
    1786:	43db      	mvns	r3, r3
    1788:	4013      	ands	r3, r2
    178a:	f8c1 3214 	str.w	r3, [r1, #532]	; 0x214
    178e:	687b      	ldr	r3, [r7, #4]
    1790:	891b      	ldrh	r3, [r3, #8]
    1792:	2b01      	cmp	r3, #1
    1794:	d107      	bne.n	0x17a6
    1796:	4910      	ldr	r1, [pc, #64]	; (0x17d8)
    1798:	4b0f      	ldr	r3, [pc, #60]	; (0x17d8)
    179a:	f8d3 2214 	ldr.w	r2, [r3, #532]	; 0x214
    179e:	68fb      	ldr	r3, [r7, #12]
    17a0:	4313      	orrs	r3, r2
    17a2:	f8c1 3214 	str.w	r3, [r1, #532]	; 0x214
    17a6:	687b      	ldr	r3, [r7, #4]
    17a8:	7b5b      	ldrb	r3, [r3, #13]
    17aa:	2b01      	cmp	r3, #1
    17ac:	d107      	bne.n	0x17be
    17ae:	490a      	ldr	r1, [pc, #40]	; (0x17d8)
    17b0:	4b09      	ldr	r3, [pc, #36]	; (0x17d8)
    17b2:	f8d3 221c 	ldr.w	r2, [r3, #540]	; 0x21c
    17b6:	68fb      	ldr	r3, [r7, #12]
    17b8:	4313      	orrs	r3, r2
    17ba:	f8c1 321c 	str.w	r3, [r1, #540]	; 0x21c
    17be:	4a06      	ldr	r2, [pc, #24]	; (0x17d8)
    17c0:	4b05      	ldr	r3, [pc, #20]	; (0x17d8)
    17c2:	f8d3 3200 	ldr.w	r3, [r3, #512]	; 0x200
    17c6:	f023 0301 	bic.w	r3, r3, #1
    17ca:	f8c2 3200 	str.w	r3, [r2, #512]	; 0x200
    17ce:	bf00      	nop
    17d0:	3714      	adds	r7, #20
    17d2:	46bd      	mov	sp, r7
    17d4:	bc80      	pop	{r7}
    17d6:	4770      	bx	lr
    17d8:	6400      	str	r0, [r0, #64]	; 0x40
    17da:	4000      	ands	r0, r0
    17dc:	b480      	push	{r7}
    17de:	b083      	sub	sp, #12
    17e0:	af00      	add	r7, sp, #0
    17e2:	6078      	str	r0, [r7, #4]
    17e4:	687b      	ldr	r3, [r7, #4]
    17e6:	2200      	movs	r2, #0
    17e8:	719a      	strb	r2, [r3, #6]
    17ea:	687b      	ldr	r3, [r7, #4]
    17ec:	2200      	movs	r2, #0
    17ee:	71da      	strb	r2, [r3, #7]
    17f0:	687b      	ldr	r3, [r7, #4]
    17f2:	2200      	movs	r2, #0
    17f4:	721a      	strb	r2, [r3, #8]
    17f6:	687b      	ldr	r3, [r7, #4]
    17f8:	2200      	movs	r2, #0
    17fa:	725a      	strb	r2, [r3, #9]
    17fc:	687b      	ldr	r3, [r7, #4]
    17fe:	2200      	movs	r2, #0
    1800:	729a      	strb	r2, [r3, #10]
    1802:	687b      	ldr	r3, [r7, #4]
    1804:	2200      	movs	r2, #0
    1806:	72da      	strb	r2, [r3, #11]
    1808:	687b      	ldr	r3, [r7, #4]
    180a:	2200      	movs	r2, #0
    180c:	709a      	strb	r2, [r3, #2]
    180e:	687b      	ldr	r3, [r7, #4]
    1810:	2200      	movs	r2, #0
    1812:	70da      	strb	r2, [r3, #3]
    1814:	687b      	ldr	r3, [r7, #4]
    1816:	2203      	movs	r2, #3
    1818:	711a      	strb	r2, [r3, #4]
    181a:	687b      	ldr	r3, [r7, #4]
    181c:	2202      	movs	r2, #2
    181e:	715a      	strb	r2, [r3, #5]
    1820:	687b      	ldr	r3, [r7, #4]
    1822:	2201      	movs	r2, #1
    1824:	801a      	strh	r2, [r3, #0]
    1826:	bf00      	nop
    1828:	370c      	adds	r7, #12
    182a:	46bd      	mov	sp, r7
    182c:	bc80      	pop	{r7}
    182e:	4770      	bx	lr
    1830:	b480      	push	{r7}
    1832:	b085      	sub	sp, #20
    1834:	af00      	add	r7, sp, #0
    1836:	6078      	str	r0, [r7, #4]
    1838:	6039      	str	r1, [r7, #0]
    183a:	2300      	movs	r3, #0
    183c:	73fb      	strb	r3, [r7, #15]
    183e:	687b      	ldr	r3, [r7, #4]
    1840:	689b      	ldr	r3, [r3, #8]
    1842:	f003 6380 	and.w	r3, r3, #67108864	; 0x4000000
    1846:	2b00      	cmp	r3, #0
    1848:	d002      	beq.n	0x1850
    184a:	2300      	movs	r3, #0
    184c:	73fb      	strb	r3, [r7, #15]
    184e:	e013      	b.n	0x1878
    1850:	687b      	ldr	r3, [r7, #4]
    1852:	689b      	ldr	r3, [r3, #8]
    1854:	f003 6300 	and.w	r3, r3, #134217728	; 0x8000000
    1858:	2b00      	cmp	r3, #0
    185a:	d002      	beq.n	0x1862
    185c:	2301      	movs	r3, #1
    185e:	73fb      	strb	r3, [r7, #15]
    1860:	e00a      	b.n	0x1878
    1862:	687b      	ldr	r3, [r7, #4]
    1864:	689b      	ldr	r3, [r3, #8]
    1866:	f003 5380 	and.w	r3, r3, #268435456	; 0x10000000
    186a:	2b00      	cmp	r3, #0
    186c:	d002      	beq.n	0x1874
    186e:	2302      	movs	r3, #2
    1870:	73fb      	strb	r3, [r7, #15]
    1872:	e001      	b.n	0x1878
    1874:	2304      	movs	r3, #4
    1876:	73fb      	strb	r3, [r7, #15]
    1878:	7bfb      	ldrb	r3, [r7, #15]
    187a:	2b04      	cmp	r3, #4
    187c:	f000 809c 	beq.w	0x19b8
    1880:	7bfb      	ldrb	r3, [r7, #15]
    1882:	7bfa      	ldrb	r2, [r7, #15]
    1884:	6879      	ldr	r1, [r7, #4]
    1886:	3218      	adds	r2, #24
    1888:	0112      	lsls	r2, r2, #4
    188a:	440a      	add	r2, r1
    188c:	6812      	ldr	r2, [r2, #0]
    188e:	f002 0201 	and.w	r2, r2, #1
    1892:	6879      	ldr	r1, [r7, #4]
    1894:	3318      	adds	r3, #24
    1896:	011b      	lsls	r3, r3, #4
    1898:	440b      	add	r3, r1
    189a:	601a      	str	r2, [r3, #0]
    189c:	683b      	ldr	r3, [r7, #0]
    189e:	7a1b      	ldrb	r3, [r3, #8]
    18a0:	2b00      	cmp	r3, #0
    18a2:	d113      	bne.n	0x18cc
    18a4:	7bfb      	ldrb	r3, [r7, #15]
    18a6:	7bfa      	ldrb	r2, [r7, #15]
    18a8:	6879      	ldr	r1, [r7, #4]
    18aa:	3218      	adds	r2, #24
    18ac:	0112      	lsls	r2, r2, #4
    18ae:	440a      	add	r2, r1
    18b0:	6811      	ldr	r1, [r2, #0]
    18b2:	683a      	ldr	r2, [r7, #0]
    18b4:	6812      	ldr	r2, [r2, #0]
    18b6:	0552      	lsls	r2, r2, #21
    18b8:	6838      	ldr	r0, [r7, #0]
    18ba:	7a40      	ldrb	r0, [r0, #9]
    18bc:	4302      	orrs	r2, r0
    18be:	430a      	orrs	r2, r1
    18c0:	6879      	ldr	r1, [r7, #4]
    18c2:	3318      	adds	r3, #24
    18c4:	011b      	lsls	r3, r3, #4
    18c6:	440b      	add	r3, r1
    18c8:	601a      	str	r2, [r3, #0]
    18ca:	e015      	b.n	0x18f8
    18cc:	7bfb      	ldrb	r3, [r7, #15]
    18ce:	7bfa      	ldrb	r2, [r7, #15]
    18d0:	6879      	ldr	r1, [r7, #4]
    18d2:	3218      	adds	r2, #24
    18d4:	0112      	lsls	r2, r2, #4
    18d6:	440a      	add	r2, r1
    18d8:	6811      	ldr	r1, [r2, #0]
    18da:	683a      	ldr	r2, [r7, #0]
    18dc:	6852      	ldr	r2, [r2, #4]
    18de:	00d2      	lsls	r2, r2, #3
    18e0:	6838      	ldr	r0, [r7, #0]
    18e2:	7a00      	ldrb	r0, [r0, #8]
    18e4:	4302      	orrs	r2, r0
    18e6:	6838      	ldr	r0, [r7, #0]
    18e8:	7a40      	ldrb	r0, [r0, #9]
    18ea:	4302      	orrs	r2, r0
    18ec:	430a      	orrs	r2, r1
    18ee:	6879      	ldr	r1, [r7, #4]
    18f0:	3318      	adds	r3, #24
    18f2:	011b      	lsls	r3, r3, #4
    18f4:	440b      	add	r3, r1
    18f6:	601a      	str	r2, [r3, #0]
    18f8:	683b      	ldr	r3, [r7, #0]
    18fa:	7a9b      	ldrb	r3, [r3, #10]
    18fc:	f003 030f 	and.w	r3, r3, #15
    1900:	b2da      	uxtb	r2, r3
    1902:	683b      	ldr	r3, [r7, #0]
    1904:	729a      	strb	r2, [r3, #10]
    1906:	7bfb      	ldrb	r3, [r7, #15]
    1908:	7bfa      	ldrb	r2, [r7, #15]
    190a:	6879      	ldr	r1, [r7, #4]
    190c:	3218      	adds	r2, #24
    190e:	0112      	lsls	r2, r2, #4
    1910:	440a      	add	r2, r1
    1912:	3204      	adds	r2, #4
    1914:	6812      	ldr	r2, [r2, #0]
    1916:	f022 020f 	bic.w	r2, r2, #15
    191a:	6879      	ldr	r1, [r7, #4]
    191c:	3318      	adds	r3, #24
    191e:	011b      	lsls	r3, r3, #4
    1920:	440b      	add	r3, r1
    1922:	3304      	adds	r3, #4
    1924:	601a      	str	r2, [r3, #0]
    1926:	7bfb      	ldrb	r3, [r7, #15]
    1928:	7bfa      	ldrb	r2, [r7, #15]
    192a:	6879      	ldr	r1, [r7, #4]
    192c:	3218      	adds	r2, #24
    192e:	0112      	lsls	r2, r2, #4
    1930:	440a      	add	r2, r1
    1932:	3204      	adds	r2, #4
    1934:	6812      	ldr	r2, [r2, #0]
    1936:	6839      	ldr	r1, [r7, #0]
    1938:	7a89      	ldrb	r1, [r1, #10]
    193a:	430a      	orrs	r2, r1
    193c:	6879      	ldr	r1, [r7, #4]
    193e:	3318      	adds	r3, #24
    1940:	011b      	lsls	r3, r3, #4
    1942:	440b      	add	r3, r1
    1944:	3304      	adds	r3, #4
    1946:	601a      	str	r2, [r3, #0]
    1948:	7bfb      	ldrb	r3, [r7, #15]
    194a:	683a      	ldr	r2, [r7, #0]
    194c:	7b92      	ldrb	r2, [r2, #14]
    194e:	0611      	lsls	r1, r2, #24
    1950:	683a      	ldr	r2, [r7, #0]
    1952:	7b52      	ldrb	r2, [r2, #13]
    1954:	0412      	lsls	r2, r2, #16
    1956:	4311      	orrs	r1, r2
    1958:	683a      	ldr	r2, [r7, #0]
    195a:	7b12      	ldrb	r2, [r2, #12]
    195c:	0212      	lsls	r2, r2, #8
    195e:	430a      	orrs	r2, r1
    1960:	6839      	ldr	r1, [r7, #0]
    1962:	7ac9      	ldrb	r1, [r1, #11]
    1964:	430a      	orrs	r2, r1
    1966:	6879      	ldr	r1, [r7, #4]
    1968:	011b      	lsls	r3, r3, #4
    196a:	440b      	add	r3, r1
    196c:	f503 73c4 	add.w	r3, r3, #392	; 0x188
    1970:	601a      	str	r2, [r3, #0]
    1972:	7bfb      	ldrb	r3, [r7, #15]
    1974:	683a      	ldr	r2, [r7, #0]
    1976:	7c92      	ldrb	r2, [r2, #18]
    1978:	0611      	lsls	r1, r2, #24
    197a:	683a      	ldr	r2, [r7, #0]
    197c:	7c52      	ldrb	r2, [r2, #17]
    197e:	0412      	lsls	r2, r2, #16
    1980:	4311      	orrs	r1, r2
    1982:	683a      	ldr	r2, [r7, #0]
    1984:	7c12      	ldrb	r2, [r2, #16]
    1986:	0212      	lsls	r2, r2, #8
    1988:	430a      	orrs	r2, r1
    198a:	6839      	ldr	r1, [r7, #0]
    198c:	7bc9      	ldrb	r1, [r1, #15]
    198e:	430a      	orrs	r2, r1
    1990:	6879      	ldr	r1, [r7, #4]
    1992:	011b      	lsls	r3, r3, #4
    1994:	440b      	add	r3, r1
    1996:	f503 73c6 	add.w	r3, r3, #396	; 0x18c
    199a:	601a      	str	r2, [r3, #0]
    199c:	7bfb      	ldrb	r3, [r7, #15]
    199e:	7bfa      	ldrb	r2, [r7, #15]
    19a0:	6879      	ldr	r1, [r7, #4]
    19a2:	3218      	adds	r2, #24
    19a4:	0112      	lsls	r2, r2, #4
    19a6:	440a      	add	r2, r1
    19a8:	6812      	ldr	r2, [r2, #0]
    19aa:	f042 0201 	orr.w	r2, r2, #1
    19ae:	6879      	ldr	r1, [r7, #4]
    19b0:	3318      	adds	r3, #24
    19b2:	011b      	lsls	r3, r3, #4
    19b4:	440b      	add	r3, r1
    19b6:	601a      	str	r2, [r3, #0]
    19b8:	7bfb      	ldrb	r3, [r7, #15]
    19ba:	4618      	mov	r0, r3
    19bc:	3714      	adds	r7, #20
    19be:	46bd      	mov	sp, r7
    19c0:	bc80      	pop	{r7}
    19c2:	4770      	bx	lr
    19c4:	b480      	push	{r7}
    19c6:	b085      	sub	sp, #20
    19c8:	af00      	add	r7, sp, #0
    19ca:	60f8      	str	r0, [r7, #12]
    19cc:	460b      	mov	r3, r1
    19ce:	607a      	str	r2, [r7, #4]
    19d0:	72fb      	strb	r3, [r7, #11]
    19d2:	7afb      	ldrb	r3, [r7, #11]
    19d4:	68fa      	ldr	r2, [r7, #12]
    19d6:	331b      	adds	r3, #27
    19d8:	011b      	lsls	r3, r3, #4
    19da:	4413      	add	r3, r2
    19dc:	681b      	ldr	r3, [r3, #0]
    19de:	b2db      	uxtb	r3, r3
    19e0:	f003 0304 	and.w	r3, r3, #4
    19e4:	b2da      	uxtb	r2, r3
    19e6:	687b      	ldr	r3, [r7, #4]
    19e8:	721a      	strb	r2, [r3, #8]
    19ea:	687b      	ldr	r3, [r7, #4]
    19ec:	7a1b      	ldrb	r3, [r3, #8]
    19ee:	2b00      	cmp	r3, #0
    19f0:	d109      	bne.n	0x1a06
    19f2:	7afb      	ldrb	r3, [r7, #11]
    19f4:	68fa      	ldr	r2, [r7, #12]
    19f6:	331b      	adds	r3, #27
    19f8:	011b      	lsls	r3, r3, #4
    19fa:	4413      	add	r3, r2
    19fc:	681b      	ldr	r3, [r3, #0]
    19fe:	0d5a      	lsrs	r2, r3, #21
    1a00:	687b      	ldr	r3, [r7, #4]
    1a02:	601a      	str	r2, [r3, #0]
    1a04:	e008      	b.n	0x1a18
    1a06:	7afb      	ldrb	r3, [r7, #11]
    1a08:	68fa      	ldr	r2, [r7, #12]
    1a0a:	331b      	adds	r3, #27
    1a0c:	011b      	lsls	r3, r3, #4
    1a0e:	4413      	add	r3, r2
    1a10:	681b      	ldr	r3, [r3, #0]
    1a12:	08da      	lsrs	r2, r3, #3
    1a14:	687b      	ldr	r3, [r7, #4]
    1a16:	605a      	str	r2, [r3, #4]
    1a18:	7afb      	ldrb	r3, [r7, #11]
    1a1a:	68fa      	ldr	r2, [r7, #12]
    1a1c:	331b      	adds	r3, #27
    1a1e:	011b      	lsls	r3, r3, #4
    1a20:	4413      	add	r3, r2
    1a22:	681b      	ldr	r3, [r3, #0]
    1a24:	b2db      	uxtb	r3, r3
    1a26:	f003 0302 	and.w	r3, r3, #2
    1a2a:	b2da      	uxtb	r2, r3
    1a2c:	687b      	ldr	r3, [r7, #4]
    1a2e:	725a      	strb	r2, [r3, #9]
    1a30:	7afb      	ldrb	r3, [r7, #11]
    1a32:	68fa      	ldr	r2, [r7, #12]
    1a34:	331b      	adds	r3, #27
    1a36:	011b      	lsls	r3, r3, #4
    1a38:	4413      	add	r3, r2
    1a3a:	3304      	adds	r3, #4
    1a3c:	681b      	ldr	r3, [r3, #0]
    1a3e:	b2db      	uxtb	r3, r3
    1a40:	f003 030f 	and.w	r3, r3, #15
    1a44:	b2da      	uxtb	r2, r3
    1a46:	687b      	ldr	r3, [r7, #4]
    1a48:	729a      	strb	r2, [r3, #10]
    1a4a:	7afb      	ldrb	r3, [r7, #11]
    1a4c:	68fa      	ldr	r2, [r7, #12]
    1a4e:	331b      	adds	r3, #27
    1a50:	011b      	lsls	r3, r3, #4
    1a52:	4413      	add	r3, r2
    1a54:	3304      	adds	r3, #4
    1a56:	681b      	ldr	r3, [r3, #0]
    1a58:	0a1b      	lsrs	r3, r3, #8
    1a5a:	b2da      	uxtb	r2, r3
    1a5c:	687b      	ldr	r3, [r7, #4]
    1a5e:	74da      	strb	r2, [r3, #19]
    1a60:	7afb      	ldrb	r3, [r7, #11]
    1a62:	68fa      	ldr	r2, [r7, #12]
    1a64:	011b      	lsls	r3, r3, #4
    1a66:	4413      	add	r3, r2
    1a68:	f503 73dc 	add.w	r3, r3, #440	; 0x1b8
    1a6c:	681b      	ldr	r3, [r3, #0]
    1a6e:	b2da      	uxtb	r2, r3
    1a70:	687b      	ldr	r3, [r7, #4]
    1a72:	72da      	strb	r2, [r3, #11]
    1a74:	7afb      	ldrb	r3, [r7, #11]
    1a76:	68fa      	ldr	r2, [r7, #12]
    1a78:	011b      	lsls	r3, r3, #4
    1a7a:	4413      	add	r3, r2
    1a7c:	f503 73dc 	add.w	r3, r3, #440	; 0x1b8
    1a80:	681b      	ldr	r3, [r3, #0]
    1a82:	0a1b      	lsrs	r3, r3, #8
    1a84:	b2da      	uxtb	r2, r3
    1a86:	687b      	ldr	r3, [r7, #4]
    1a88:	731a      	strb	r2, [r3, #12]
    1a8a:	7afb      	ldrb	r3, [r7, #11]
    1a8c:	68fa      	ldr	r2, [r7, #12]
    1a8e:	011b      	lsls	r3, r3, #4
    1a90:	4413      	add	r3, r2
    1a92:	f503 73dc 	add.w	r3, r3, #440	; 0x1b8
    1a96:	681b      	ldr	r3, [r3, #0]
    1a98:	0c1b      	lsrs	r3, r3, #16
    1a9a:	b2da      	uxtb	r2, r3
    1a9c:	687b      	ldr	r3, [r7, #4]
    1a9e:	735a      	strb	r2, [r3, #13]
    1aa0:	7afb      	ldrb	r3, [r7, #11]
    1aa2:	68fa      	ldr	r2, [r7, #12]
    1aa4:	011b      	lsls	r3, r3, #4
    1aa6:	4413      	add	r3, r2
    1aa8:	f503 73dc 	add.w	r3, r3, #440	; 0x1b8
    1aac:	681b      	ldr	r3, [r3, #0]
    1aae:	0e1b      	lsrs	r3, r3, #24
    1ab0:	b2da      	uxtb	r2, r3
    1ab2:	687b      	ldr	r3, [r7, #4]
    1ab4:	739a      	strb	r2, [r3, #14]
    1ab6:	7afb      	ldrb	r3, [r7, #11]
    1ab8:	68fa      	ldr	r2, [r7, #12]
    1aba:	011b      	lsls	r3, r3, #4
    1abc:	4413      	add	r3, r2
    1abe:	f503 73de 	add.w	r3, r3, #444	; 0x1bc
    1ac2:	681b      	ldr	r3, [r3, #0]
    1ac4:	b2da      	uxtb	r2, r3
    1ac6:	687b      	ldr	r3, [r7, #4]
    1ac8:	73da      	strb	r2, [r3, #15]
    1aca:	7afb      	ldrb	r3, [r7, #11]
    1acc:	68fa      	ldr	r2, [r7, #12]
    1ace:	011b      	lsls	r3, r3, #4
    1ad0:	4413      	add	r3, r2
    1ad2:	f503 73de 	add.w	r3, r3, #444	; 0x1bc
    1ad6:	681b      	ldr	r3, [r3, #0]
    1ad8:	0a1b      	lsrs	r3, r3, #8
    1ada:	b2da      	uxtb	r2, r3
    1adc:	687b      	ldr	r3, [r7, #4]
    1ade:	741a      	strb	r2, [r3, #16]
    1ae0:	7afb      	ldrb	r3, [r7, #11]
    1ae2:	68fa      	ldr	r2, [r7, #12]
    1ae4:	011b      	lsls	r3, r3, #4
    1ae6:	4413      	add	r3, r2
    1ae8:	f503 73de 	add.w	r3, r3, #444	; 0x1bc
    1aec:	681b      	ldr	r3, [r3, #0]
    1aee:	0c1b      	lsrs	r3, r3, #16
    1af0:	b2da      	uxtb	r2, r3
    1af2:	687b      	ldr	r3, [r7, #4]
    1af4:	745a      	strb	r2, [r3, #17]
    1af6:	7afb      	ldrb	r3, [r7, #11]
    1af8:	68fa      	ldr	r2, [r7, #12]
    1afa:	011b      	lsls	r3, r3, #4
    1afc:	4413      	add	r3, r2
    1afe:	f503 73de 	add.w	r3, r3, #444	; 0x1bc
    1b02:	681b      	ldr	r3, [r3, #0]
    1b04:	0e1b      	lsrs	r3, r3, #24
    1b06:	b2da      	uxtb	r2, r3
    1b08:	687b      	ldr	r3, [r7, #4]
    1b0a:	749a      	strb	r2, [r3, #18]
    1b0c:	7afb      	ldrb	r3, [r7, #11]
    1b0e:	2b00      	cmp	r3, #0
    1b10:	d106      	bne.n	0x1b20
    1b12:	68fb      	ldr	r3, [r7, #12]
    1b14:	68db      	ldr	r3, [r3, #12]
    1b16:	f043 0220 	orr.w	r2, r3, #32
    1b1a:	68fb      	ldr	r3, [r7, #12]
    1b1c:	60da      	str	r2, [r3, #12]
    1b1e:	e005      	b.n	0x1b2c
    1b20:	68fb      	ldr	r3, [r7, #12]
    1b22:	691b      	ldr	r3, [r3, #16]
    1b24:	f043 0220 	orr.w	r2, r3, #32
    1b28:	68fb      	ldr	r3, [r7, #12]
    1b2a:	611a      	str	r2, [r3, #16]
    1b2c:	bf00      	nop
    1b2e:	3714      	adds	r7, #20
    1b30:	46bd      	mov	sp, r7
    1b32:	bc80      	pop	{r7}
    1b34:	4770      	bx	lr
    1b36:	bf00      	nop
    1b38:	b480      	push	{r7}
    1b3a:	b085      	sub	sp, #20
    1b3c:	af00      	add	r7, sp, #0
    1b3e:	6078      	str	r0, [r7, #4]
    1b40:	460b      	mov	r3, r1
    1b42:	70fb      	strb	r3, [r7, #3]
    1b44:	2300      	movs	r3, #0
    1b46:	73fb      	strb	r3, [r7, #15]
    1b48:	78fb      	ldrb	r3, [r7, #3]
    1b4a:	2b00      	cmp	r3, #0
    1b4c:	d106      	bne.n	0x1b5c
    1b4e:	687b      	ldr	r3, [r7, #4]
    1b50:	68db      	ldr	r3, [r3, #12]
    1b52:	b2db      	uxtb	r3, r3
    1b54:	f003 0303 	and.w	r3, r3, #3
    1b58:	73fb      	strb	r3, [r7, #15]
    1b5a:	e00b      	b.n	0x1b74
    1b5c:	78fb      	ldrb	r3, [r7, #3]
    1b5e:	2b01      	cmp	r3, #1
    1b60:	d106      	bne.n	0x1b70
    1b62:	687b      	ldr	r3, [r7, #4]
    1b64:	691b      	ldr	r3, [r3, #16]
    1b66:	b2db      	uxtb	r3, r3
    1b68:	f003 0303 	and.w	r3, r3, #3
    1b6c:	73fb      	strb	r3, [r7, #15]
    1b6e:	e001      	b.n	0x1b74
    1b70:	2300      	movs	r3, #0
    1b72:	73fb      	strb	r3, [r7, #15]
    1b74:	7bfb      	ldrb	r3, [r7, #15]
    1b76:	4618      	mov	r0, r3
    1b78:	3714      	adds	r7, #20
    1b7a:	46bd      	mov	sp, r7
    1b7c:	bc80      	pop	{r7}
    1b7e:	4770      	bx	lr
    1b80:	b480      	push	{r7}
    1b82:	b089      	sub	sp, #36	; 0x24
    1b84:	af00      	add	r7, sp, #0
    1b86:	6078      	str	r0, [r7, #4]
    1b88:	6039      	str	r1, [r7, #0]
    1b8a:	2300      	movs	r3, #0
    1b8c:	61fb      	str	r3, [r7, #28]
    1b8e:	2300      	movs	r3, #0
    1b90:	613b      	str	r3, [r7, #16]
    1b92:	2300      	movs	r3, #0
    1b94:	61bb      	str	r3, [r7, #24]
    1b96:	2300      	movs	r3, #0
    1b98:	60fb      	str	r3, [r7, #12]
    1b9a:	2300      	movs	r3, #0
    1b9c:	617b      	str	r3, [r7, #20]
    1b9e:	2300      	movs	r3, #0
    1ba0:	60bb      	str	r3, [r7, #8]
    1ba2:	683b      	ldr	r3, [r7, #0]
    1ba4:	78db      	ldrb	r3, [r3, #3]
    1ba6:	f003 030f 	and.w	r3, r3, #15
    1baa:	61fb      	str	r3, [r7, #28]
    1bac:	683b      	ldr	r3, [r7, #0]
    1bae:	78db      	ldrb	r3, [r3, #3]
    1bb0:	f003 0310 	and.w	r3, r3, #16
    1bb4:	2b00      	cmp	r3, #0
    1bb6:	d005      	beq.n	0x1bc4
    1bb8:	683b      	ldr	r3, [r7, #0]
    1bba:	789b      	ldrb	r3, [r3, #2]
    1bbc:	461a      	mov	r2, r3
    1bbe:	69fb      	ldr	r3, [r7, #28]
    1bc0:	4313      	orrs	r3, r2
    1bc2:	61fb      	str	r3, [r7, #28]
    1bc4:	683b      	ldr	r3, [r7, #0]
    1bc6:	881b      	ldrh	r3, [r3, #0]
    1bc8:	b2db      	uxtb	r3, r3
    1bca:	2b00      	cmp	r3, #0
    1bcc:	d044      	beq.n	0x1c58
    1bce:	687b      	ldr	r3, [r7, #4]
    1bd0:	681b      	ldr	r3, [r3, #0]
    1bd2:	617b      	str	r3, [r7, #20]
    1bd4:	2300      	movs	r3, #0
    1bd6:	61bb      	str	r3, [r7, #24]
    1bd8:	e038      	b.n	0x1c4c
    1bda:	2201      	movs	r2, #1
    1bdc:	69bb      	ldr	r3, [r7, #24]
    1bde:	fa02 f303 	lsl.w	r3, r2, r3
    1be2:	60fb      	str	r3, [r7, #12]
    1be4:	683b      	ldr	r3, [r7, #0]
    1be6:	881b      	ldrh	r3, [r3, #0]
    1be8:	461a      	mov	r2, r3
    1bea:	68fb      	ldr	r3, [r7, #12]
    1bec:	4013      	ands	r3, r2
    1bee:	613b      	str	r3, [r7, #16]
    1bf0:	693a      	ldr	r2, [r7, #16]
    1bf2:	68fb      	ldr	r3, [r7, #12]
    1bf4:	429a      	cmp	r2, r3
    1bf6:	d126      	bne.n	0x1c46
    1bf8:	69bb      	ldr	r3, [r7, #24]
    1bfa:	009b      	lsls	r3, r3, #2
    1bfc:	60fb      	str	r3, [r7, #12]
    1bfe:	220f      	movs	r2, #15
    1c00:	68fb      	ldr	r3, [r7, #12]
    1c02:	fa02 f303 	lsl.w	r3, r2, r3
    1c06:	60bb      	str	r3, [r7, #8]
    1c08:	68bb      	ldr	r3, [r7, #8]
    1c0a:	43db      	mvns	r3, r3
    1c0c:	697a      	ldr	r2, [r7, #20]
    1c0e:	4013      	ands	r3, r2
    1c10:	617b      	str	r3, [r7, #20]
    1c12:	69fa      	ldr	r2, [r7, #28]
    1c14:	68fb      	ldr	r3, [r7, #12]
    1c16:	fa02 f303 	lsl.w	r3, r2, r3
    1c1a:	697a      	ldr	r2, [r7, #20]
    1c1c:	4313      	orrs	r3, r2
    1c1e:	617b      	str	r3, [r7, #20]
    1c20:	683b      	ldr	r3, [r7, #0]
    1c22:	78db      	ldrb	r3, [r3, #3]
    1c24:	2b28      	cmp	r3, #40	; 0x28
    1c26:	d105      	bne.n	0x1c34
    1c28:	2201      	movs	r2, #1
    1c2a:	69bb      	ldr	r3, [r7, #24]
    1c2c:	409a      	lsls	r2, r3
    1c2e:	687b      	ldr	r3, [r7, #4]
    1c30:	615a      	str	r2, [r3, #20]
    1c32:	e008      	b.n	0x1c46
    1c34:	683b      	ldr	r3, [r7, #0]
    1c36:	78db      	ldrb	r3, [r3, #3]
    1c38:	2b48      	cmp	r3, #72	; 0x48
    1c3a:	d104      	bne.n	0x1c46
    1c3c:	2201      	movs	r2, #1
    1c3e:	69bb      	ldr	r3, [r7, #24]
    1c40:	409a      	lsls	r2, r3
    1c42:	687b      	ldr	r3, [r7, #4]
    1c44:	611a      	str	r2, [r3, #16]
    1c46:	69bb      	ldr	r3, [r7, #24]
    1c48:	3301      	adds	r3, #1
    1c4a:	61bb      	str	r3, [r7, #24]
    1c4c:	69bb      	ldr	r3, [r7, #24]
    1c4e:	2b07      	cmp	r3, #7
    1c50:	d9c3      	bls.n	0x1bda
    1c52:	687b      	ldr	r3, [r7, #4]
    1c54:	697a      	ldr	r2, [r7, #20]
    1c56:	601a      	str	r2, [r3, #0]
    1c58:	683b      	ldr	r3, [r7, #0]
    1c5a:	881b      	ldrh	r3, [r3, #0]
    1c5c:	2bff      	cmp	r3, #255	; 0xff
    1c5e:	d946      	bls.n	0x1cee
    1c60:	687b      	ldr	r3, [r7, #4]
    1c62:	685b      	ldr	r3, [r3, #4]
    1c64:	617b      	str	r3, [r7, #20]
    1c66:	2300      	movs	r3, #0
    1c68:	61bb      	str	r3, [r7, #24]
    1c6a:	e03a      	b.n	0x1ce2
    1c6c:	69bb      	ldr	r3, [r7, #24]
    1c6e:	3308      	adds	r3, #8
    1c70:	2201      	movs	r2, #1
    1c72:	fa02 f303 	lsl.w	r3, r2, r3
    1c76:	60fb      	str	r3, [r7, #12]
    1c78:	683b      	ldr	r3, [r7, #0]
    1c7a:	881b      	ldrh	r3, [r3, #0]
    1c7c:	461a      	mov	r2, r3
    1c7e:	68fb      	ldr	r3, [r7, #12]
    1c80:	4013      	ands	r3, r2
    1c82:	613b      	str	r3, [r7, #16]
    1c84:	693a      	ldr	r2, [r7, #16]
    1c86:	68fb      	ldr	r3, [r7, #12]
    1c88:	429a      	cmp	r2, r3
    1c8a:	d127      	bne.n	0x1cdc
    1c8c:	69bb      	ldr	r3, [r7, #24]
    1c8e:	009b      	lsls	r3, r3, #2
    1c90:	60fb      	str	r3, [r7, #12]
    1c92:	220f      	movs	r2, #15
    1c94:	68fb      	ldr	r3, [r7, #12]
    1c96:	fa02 f303 	lsl.w	r3, r2, r3
    1c9a:	60bb      	str	r3, [r7, #8]
    1c9c:	68bb      	ldr	r3, [r7, #8]
    1c9e:	43db      	mvns	r3, r3
    1ca0:	697a      	ldr	r2, [r7, #20]
    1ca2:	4013      	ands	r3, r2
    1ca4:	617b      	str	r3, [r7, #20]
    1ca6:	69fa      	ldr	r2, [r7, #28]
    1ca8:	68fb      	ldr	r3, [r7, #12]
    1caa:	fa02 f303 	lsl.w	r3, r2, r3
    1cae:	697a      	ldr	r2, [r7, #20]
    1cb0:	4313      	orrs	r3, r2
    1cb2:	617b      	str	r3, [r7, #20]
    1cb4:	683b      	ldr	r3, [r7, #0]
    1cb6:	78db      	ldrb	r3, [r3, #3]
    1cb8:	2b28      	cmp	r3, #40	; 0x28
    1cba:	d105      	bne.n	0x1cc8
    1cbc:	69bb      	ldr	r3, [r7, #24]
    1cbe:	3308      	adds	r3, #8
    1cc0:	2201      	movs	r2, #1
    1cc2:	409a      	lsls	r2, r3
    1cc4:	687b      	ldr	r3, [r7, #4]
    1cc6:	615a      	str	r2, [r3, #20]
    1cc8:	683b      	ldr	r3, [r7, #0]
    1cca:	78db      	ldrb	r3, [r3, #3]
    1ccc:	2b48      	cmp	r3, #72	; 0x48
    1cce:	d105      	bne.n	0x1cdc
    1cd0:	69bb      	ldr	r3, [r7, #24]
    1cd2:	3308      	adds	r3, #8
    1cd4:	2201      	movs	r2, #1
    1cd6:	409a      	lsls	r2, r3
    1cd8:	687b      	ldr	r3, [r7, #4]
    1cda:	611a      	str	r2, [r3, #16]
    1cdc:	69bb      	ldr	r3, [r7, #24]
    1cde:	3301      	adds	r3, #1
    1ce0:	61bb      	str	r3, [r7, #24]
    1ce2:	69bb      	ldr	r3, [r7, #24]
    1ce4:	2b07      	cmp	r3, #7
    1ce6:	d9c1      	bls.n	0x1c6c
    1ce8:	687b      	ldr	r3, [r7, #4]
    1cea:	697a      	ldr	r2, [r7, #20]
    1cec:	605a      	str	r2, [r3, #4]
    1cee:	bf00      	nop
    1cf0:	3724      	adds	r7, #36	; 0x24
    1cf2:	46bd      	mov	sp, r7
    1cf4:	bc80      	pop	{r7}
    1cf6:	4770      	bx	lr
    1cf8:	b480      	push	{r7}
    1cfa:	b085      	sub	sp, #20
    1cfc:	af00      	add	r7, sp, #0
    1cfe:	6078      	str	r0, [r7, #4]
    1d00:	2300      	movs	r3, #0
    1d02:	60fb      	str	r3, [r7, #12]
    1d04:	4b09      	ldr	r3, [pc, #36]	; (0x1d2c)
    1d06:	685b      	ldr	r3, [r3, #4]
    1d08:	60fb      	str	r3, [r7, #12]
    1d0a:	68fb      	ldr	r3, [r7, #12]
    1d0c:	f423 4340 	bic.w	r3, r3, #49152	; 0xc000
    1d10:	60fb      	str	r3, [r7, #12]
    1d12:	68fa      	ldr	r2, [r7, #12]
    1d14:	687b      	ldr	r3, [r7, #4]
    1d16:	4313      	orrs	r3, r2
    1d18:	60fb      	str	r3, [r7, #12]
    1d1a:	4a04      	ldr	r2, [pc, #16]	; (0x1d2c)
    1d1c:	68fb      	ldr	r3, [r7, #12]
    1d1e:	6053      	str	r3, [r2, #4]
    1d20:	bf00      	nop
    1d22:	3714      	adds	r7, #20
    1d24:	46bd      	mov	sp, r7
    1d26:	bc80      	pop	{r7}
    1d28:	4770      	bx	lr
    1d2a:	bf00      	nop
    1d2c:	1000      	asrs	r0, r0, #32
    1d2e:	4002      	ands	r2, r0
    1d30:	b480      	push	{r7}
    1d32:	b087      	sub	sp, #28
    1d34:	af00      	add	r7, sp, #0
    1d36:	6078      	str	r0, [r7, #4]
    1d38:	2300      	movs	r3, #0
    1d3a:	617b      	str	r3, [r7, #20]
    1d3c:	2300      	movs	r3, #0
    1d3e:	613b      	str	r3, [r7, #16]
    1d40:	2300      	movs	r3, #0
    1d42:	60fb      	str	r3, [r7, #12]
    1d44:	2300      	movs	r3, #0
    1d46:	60bb      	str	r3, [r7, #8]
    1d48:	4b4c      	ldr	r3, [pc, #304]	; (0x1e7c)
    1d4a:	685b      	ldr	r3, [r3, #4]
    1d4c:	f003 030c 	and.w	r3, r3, #12
    1d50:	617b      	str	r3, [r7, #20]
    1d52:	697b      	ldr	r3, [r7, #20]
    1d54:	2b04      	cmp	r3, #4
    1d56:	d007      	beq.n	0x1d68
    1d58:	2b08      	cmp	r3, #8
    1d5a:	d009      	beq.n	0x1d70
    1d5c:	2b00      	cmp	r3, #0
    1d5e:	d133      	bne.n	0x1dc8
    1d60:	687b      	ldr	r3, [r7, #4]
    1d62:	4a47      	ldr	r2, [pc, #284]	; (0x1e80)
    1d64:	601a      	str	r2, [r3, #0]
    1d66:	e033      	b.n	0x1dd0
    1d68:	687b      	ldr	r3, [r7, #4]
    1d6a:	4a45      	ldr	r2, [pc, #276]	; (0x1e80)
    1d6c:	601a      	str	r2, [r3, #0]
    1d6e:	e02f      	b.n	0x1dd0
    1d70:	4b42      	ldr	r3, [pc, #264]	; (0x1e7c)
    1d72:	685b      	ldr	r3, [r3, #4]
    1d74:	f403 1370 	and.w	r3, r3, #3932160	; 0x3c0000
    1d78:	613b      	str	r3, [r7, #16]
    1d7a:	4b40      	ldr	r3, [pc, #256]	; (0x1e7c)
    1d7c:	685b      	ldr	r3, [r3, #4]
    1d7e:	f403 3380 	and.w	r3, r3, #65536	; 0x10000
    1d82:	60fb      	str	r3, [r7, #12]
    1d84:	693b      	ldr	r3, [r7, #16]
    1d86:	0c9b      	lsrs	r3, r3, #18
    1d88:	3302      	adds	r3, #2
    1d8a:	613b      	str	r3, [r7, #16]
    1d8c:	68fb      	ldr	r3, [r7, #12]
    1d8e:	2b00      	cmp	r3, #0
    1d90:	d106      	bne.n	0x1da0
    1d92:	693b      	ldr	r3, [r7, #16]
    1d94:	4a3b      	ldr	r2, [pc, #236]	; (0x1e84)
    1d96:	fb02 f203 	mul.w	r2, r2, r3
    1d9a:	687b      	ldr	r3, [r7, #4]
    1d9c:	601a      	str	r2, [r3, #0]
    1d9e:	e017      	b.n	0x1dd0
    1da0:	4b36      	ldr	r3, [pc, #216]	; (0x1e7c)
    1da2:	685b      	ldr	r3, [r3, #4]
    1da4:	f403 3300 	and.w	r3, r3, #131072	; 0x20000
    1da8:	2b00      	cmp	r3, #0
    1daa:	d006      	beq.n	0x1dba
    1dac:	693b      	ldr	r3, [r7, #16]
    1dae:	4a35      	ldr	r2, [pc, #212]	; (0x1e84)
    1db0:	fb02 f203 	mul.w	r2, r2, r3
    1db4:	687b      	ldr	r3, [r7, #4]
    1db6:	601a      	str	r2, [r3, #0]
    1db8:	e00a      	b.n	0x1dd0
    1dba:	693b      	ldr	r3, [r7, #16]
    1dbc:	4a30      	ldr	r2, [pc, #192]	; (0x1e80)
    1dbe:	fb02 f203 	mul.w	r2, r2, r3
    1dc2:	687b      	ldr	r3, [r7, #4]
    1dc4:	601a      	str	r2, [r3, #0]
    1dc6:	e003      	b.n	0x1dd0
    1dc8:	687b      	ldr	r3, [r7, #4]
    1dca:	4a2d      	ldr	r2, [pc, #180]	; (0x1e80)
    1dcc:	601a      	str	r2, [r3, #0]
    1dce:	bf00      	nop
    1dd0:	4b2a      	ldr	r3, [pc, #168]	; (0x1e7c)
    1dd2:	685b      	ldr	r3, [r3, #4]
    1dd4:	f003 03f0 	and.w	r3, r3, #240	; 0xf0
    1dd8:	617b      	str	r3, [r7, #20]
    1dda:	697b      	ldr	r3, [r7, #20]
    1ddc:	091b      	lsrs	r3, r3, #4
    1dde:	617b      	str	r3, [r7, #20]
    1de0:	4a29      	ldr	r2, [pc, #164]	; (0x1e88)
    1de2:	697b      	ldr	r3, [r7, #20]
    1de4:	4413      	add	r3, r2
    1de6:	781b      	ldrb	r3, [r3, #0]
    1de8:	b2db      	uxtb	r3, r3
    1dea:	60bb      	str	r3, [r7, #8]
    1dec:	687b      	ldr	r3, [r7, #4]
    1dee:	681a      	ldr	r2, [r3, #0]
    1df0:	68bb      	ldr	r3, [r7, #8]
    1df2:	40da      	lsrs	r2, r3
    1df4:	687b      	ldr	r3, [r7, #4]
    1df6:	605a      	str	r2, [r3, #4]
    1df8:	4b20      	ldr	r3, [pc, #128]	; (0x1e7c)
    1dfa:	685b      	ldr	r3, [r3, #4]
    1dfc:	f403 63e0 	and.w	r3, r3, #1792	; 0x700
    1e00:	617b      	str	r3, [r7, #20]
    1e02:	697b      	ldr	r3, [r7, #20]
    1e04:	0a1b      	lsrs	r3, r3, #8
    1e06:	617b      	str	r3, [r7, #20]
    1e08:	4a1f      	ldr	r2, [pc, #124]	; (0x1e88)
    1e0a:	697b      	ldr	r3, [r7, #20]
    1e0c:	4413      	add	r3, r2
    1e0e:	781b      	ldrb	r3, [r3, #0]
    1e10:	b2db      	uxtb	r3, r3
    1e12:	60bb      	str	r3, [r7, #8]
    1e14:	687b      	ldr	r3, [r7, #4]
    1e16:	685a      	ldr	r2, [r3, #4]
    1e18:	68bb      	ldr	r3, [r7, #8]
    1e1a:	40da      	lsrs	r2, r3
    1e1c:	687b      	ldr	r3, [r7, #4]
    1e1e:	609a      	str	r2, [r3, #8]
    1e20:	4b16      	ldr	r3, [pc, #88]	; (0x1e7c)
    1e22:	685b      	ldr	r3, [r3, #4]
    1e24:	f403 5360 	and.w	r3, r3, #14336	; 0x3800
    1e28:	617b      	str	r3, [r7, #20]
    1e2a:	697b      	ldr	r3, [r7, #20]
    1e2c:	0adb      	lsrs	r3, r3, #11
    1e2e:	617b      	str	r3, [r7, #20]
    1e30:	4a15      	ldr	r2, [pc, #84]	; (0x1e88)
    1e32:	697b      	ldr	r3, [r7, #20]
    1e34:	4413      	add	r3, r2
    1e36:	781b      	ldrb	r3, [r3, #0]
    1e38:	b2db      	uxtb	r3, r3
    1e3a:	60bb      	str	r3, [r7, #8]
    1e3c:	687b      	ldr	r3, [r7, #4]
    1e3e:	685a      	ldr	r2, [r3, #4]
    1e40:	68bb      	ldr	r3, [r7, #8]
    1e42:	40da      	lsrs	r2, r3
    1e44:	687b      	ldr	r3, [r7, #4]
    1e46:	60da      	str	r2, [r3, #12]
    1e48:	4b0c      	ldr	r3, [pc, #48]	; (0x1e7c)
    1e4a:	685b      	ldr	r3, [r3, #4]
    1e4c:	f403 4340 	and.w	r3, r3, #49152	; 0xc000
    1e50:	617b      	str	r3, [r7, #20]
    1e52:	697b      	ldr	r3, [r7, #20]
    1e54:	0b9b      	lsrs	r3, r3, #14
    1e56:	617b      	str	r3, [r7, #20]
    1e58:	4a0c      	ldr	r2, [pc, #48]	; (0x1e8c)
    1e5a:	697b      	ldr	r3, [r7, #20]
    1e5c:	4413      	add	r3, r2
    1e5e:	781b      	ldrb	r3, [r3, #0]
    1e60:	b2db      	uxtb	r3, r3
    1e62:	60bb      	str	r3, [r7, #8]
    1e64:	687b      	ldr	r3, [r7, #4]
    1e66:	68da      	ldr	r2, [r3, #12]
    1e68:	68bb      	ldr	r3, [r7, #8]
    1e6a:	fbb2 f2f3 	udiv	r2, r2, r3
    1e6e:	687b      	ldr	r3, [r7, #4]
    1e70:	611a      	str	r2, [r3, #16]
    1e72:	bf00      	nop
    1e74:	371c      	adds	r7, #28
    1e76:	46bd      	mov	sp, r7
    1e78:	bc80      	pop	{r7}
    1e7a:	4770      	bx	lr
    1e7c:	1000      	asrs	r0, r0, #32
    1e7e:	4002      	ands	r2, r0
    1e80:	1200      	asrs	r0, r0, #8
    1e82:	007a      	lsls	r2, r7, #1
    1e84:	0900      	lsrs	r0, r0, #4
    1e86:	003d      	movs	r5, r7
    1e88:	0000      	movs	r0, r0
    1e8a:	2000      	movs	r0, #0
    1e8c:	0010      	movs	r0, r2
    1e8e:	2000      	movs	r0, #0
    1e90:	b480      	push	{r7}
    1e92:	b083      	sub	sp, #12
    1e94:	af00      	add	r7, sp, #0
    1e96:	6078      	str	r0, [r7, #4]
    1e98:	460b      	mov	r3, r1
    1e9a:	70fb      	strb	r3, [r7, #3]
    1e9c:	78fb      	ldrb	r3, [r7, #3]
    1e9e:	2b00      	cmp	r3, #0
    1ea0:	d006      	beq.n	0x1eb0
    1ea2:	4909      	ldr	r1, [pc, #36]	; (0x1ec8)
    1ea4:	4b08      	ldr	r3, [pc, #32]	; (0x1ec8)
    1ea6:	699a      	ldr	r2, [r3, #24]
    1ea8:	687b      	ldr	r3, [r7, #4]
    1eaa:	4313      	orrs	r3, r2
    1eac:	618b      	str	r3, [r1, #24]
    1eae:	e006      	b.n	0x1ebe
    1eb0:	4905      	ldr	r1, [pc, #20]	; (0x1ec8)
    1eb2:	4b05      	ldr	r3, [pc, #20]	; (0x1ec8)
    1eb4:	699a      	ldr	r2, [r3, #24]
    1eb6:	687b      	ldr	r3, [r7, #4]
    1eb8:	43db      	mvns	r3, r3
    1eba:	4013      	ands	r3, r2
    1ebc:	618b      	str	r3, [r1, #24]
    1ebe:	bf00      	nop
    1ec0:	370c      	adds	r7, #12
    1ec2:	46bd      	mov	sp, r7
    1ec4:	bc80      	pop	{r7}
    1ec6:	4770      	bx	lr
    1ec8:	1000      	asrs	r0, r0, #32
    1eca:	4002      	ands	r2, r0
    1ecc:	b480      	push	{r7}
    1ece:	b083      	sub	sp, #12
    1ed0:	af00      	add	r7, sp, #0
    1ed2:	6078      	str	r0, [r7, #4]
    1ed4:	460b      	mov	r3, r1
    1ed6:	70fb      	strb	r3, [r7, #3]
    1ed8:	78fb      	ldrb	r3, [r7, #3]
    1eda:	2b00      	cmp	r3, #0
    1edc:	d006      	beq.n	0x1eec
    1ede:	4909      	ldr	r1, [pc, #36]	; (0x1f04)
    1ee0:	4b08      	ldr	r3, [pc, #32]	; (0x1f04)
    1ee2:	69da      	ldr	r2, [r3, #28]
    1ee4:	687b      	ldr	r3, [r7, #4]
    1ee6:	4313      	orrs	r3, r2
    1ee8:	61cb      	str	r3, [r1, #28]
    1eea:	e006      	b.n	0x1efa
    1eec:	4905      	ldr	r1, [pc, #20]	; (0x1f04)
    1eee:	4b05      	ldr	r3, [pc, #20]	; (0x1f04)
    1ef0:	69da      	ldr	r2, [r3, #28]
    1ef2:	687b      	ldr	r3, [r7, #4]
    1ef4:	43db      	mvns	r3, r3
    1ef6:	4013      	ands	r3, r2
    1ef8:	61cb      	str	r3, [r1, #28]
    1efa:	bf00      	nop
    1efc:	370c      	adds	r7, #12
    1efe:	46bd      	mov	sp, r7
    1f00:	bc80      	pop	{r7}
    1f02:	4770      	bx	lr
    1f04:	1000      	asrs	r0, r0, #32
    1f06:	4002      	ands	r2, r0
    1f08:	b480      	push	{r7}
    1f0a:	b083      	sub	sp, #12
    1f0c:	af00      	add	r7, sp, #0
    1f0e:	6078      	str	r0, [r7, #4]
    1f10:	460b      	mov	r3, r1
    1f12:	70fb      	strb	r3, [r7, #3]
    1f14:	78fb      	ldrb	r3, [r7, #3]
    1f16:	2b00      	cmp	r3, #0
    1f18:	d006      	beq.n	0x1f28
    1f1a:	4909      	ldr	r1, [pc, #36]	; (0x1f40)
    1f1c:	4b08      	ldr	r3, [pc, #32]	; (0x1f40)
    1f1e:	691a      	ldr	r2, [r3, #16]
    1f20:	687b      	ldr	r3, [r7, #4]
    1f22:	4313      	orrs	r3, r2
    1f24:	610b      	str	r3, [r1, #16]
    1f26:	e006      	b.n	0x1f36
    1f28:	4905      	ldr	r1, [pc, #20]	; (0x1f40)
    1f2a:	4b05      	ldr	r3, [pc, #20]	; (0x1f40)
    1f2c:	691a      	ldr	r2, [r3, #16]
    1f2e:	687b      	ldr	r3, [r7, #4]
    1f30:	43db      	mvns	r3, r3
    1f32:	4013      	ands	r3, r2
    1f34:	610b      	str	r3, [r1, #16]
    1f36:	bf00      	nop
    1f38:	370c      	adds	r7, #12
    1f3a:	46bd      	mov	sp, r7
    1f3c:	bc80      	pop	{r7}
    1f3e:	4770      	bx	lr
    1f40:	1000      	asrs	r0, r0, #32
    1f42:	4002      	ands	r2, r0
    1f44:	b480      	push	{r7}
    1f46:	b085      	sub	sp, #20
    1f48:	af00      	add	r7, sp, #0
    1f4a:	6078      	str	r0, [r7, #4]
    1f4c:	6039      	str	r1, [r7, #0]
    1f4e:	2300      	movs	r3, #0
    1f50:	81fb      	strh	r3, [r7, #14]
    1f52:	687b      	ldr	r3, [r7, #4]
    1f54:	881b      	ldrh	r3, [r3, #0]
    1f56:	81fb      	strh	r3, [r7, #14]
    1f58:	687b      	ldr	r3, [r7, #4]
    1f5a:	4a2e      	ldr	r2, [pc, #184]	; (0x2014)
    1f5c:	4293      	cmp	r3, r2
    1f5e:	d013      	beq.n	0x1f88
    1f60:	687b      	ldr	r3, [r7, #4]
    1f62:	4a2d      	ldr	r2, [pc, #180]	; (0x2018)
    1f64:	4293      	cmp	r3, r2
    1f66:	d00f      	beq.n	0x1f88
    1f68:	687b      	ldr	r3, [r7, #4]
    1f6a:	f1b3 4f80 	cmp.w	r3, #1073741824	; 0x40000000
    1f6e:	d00b      	beq.n	0x1f88
    1f70:	687b      	ldr	r3, [r7, #4]
    1f72:	4a2a      	ldr	r2, [pc, #168]	; (0x201c)
    1f74:	4293      	cmp	r3, r2
    1f76:	d007      	beq.n	0x1f88
    1f78:	687b      	ldr	r3, [r7, #4]
    1f7a:	4a29      	ldr	r2, [pc, #164]	; (0x2020)
    1f7c:	4293      	cmp	r3, r2
    1f7e:	d003      	beq.n	0x1f88
    1f80:	687b      	ldr	r3, [r7, #4]
    1f82:	4a28      	ldr	r2, [pc, #160]	; (0x2024)
    1f84:	4293      	cmp	r3, r2
    1f86:	d108      	bne.n	0x1f9a
    1f88:	89fb      	ldrh	r3, [r7, #14]
    1f8a:	f023 0370 	bic.w	r3, r3, #112	; 0x70
    1f8e:	81fb      	strh	r3, [r7, #14]
    1f90:	683b      	ldr	r3, [r7, #0]
    1f92:	885a      	ldrh	r2, [r3, #2]
    1f94:	89fb      	ldrh	r3, [r7, #14]
    1f96:	4313      	orrs	r3, r2
    1f98:	81fb      	strh	r3, [r7, #14]
    1f9a:	687b      	ldr	r3, [r7, #4]
    1f9c:	4a22      	ldr	r2, [pc, #136]	; (0x2028)
    1f9e:	4293      	cmp	r3, r2
    1fa0:	d00c      	beq.n	0x1fbc
    1fa2:	687b      	ldr	r3, [r7, #4]
    1fa4:	4a21      	ldr	r2, [pc, #132]	; (0x202c)
    1fa6:	4293      	cmp	r3, r2
    1fa8:	d008      	beq.n	0x1fbc
    1faa:	89fb      	ldrh	r3, [r7, #14]
    1fac:	f423 7340 	bic.w	r3, r3, #768	; 0x300
    1fb0:	81fb      	strh	r3, [r7, #14]
    1fb2:	683b      	ldr	r3, [r7, #0]
    1fb4:	88da      	ldrh	r2, [r3, #6]
    1fb6:	89fb      	ldrh	r3, [r7, #14]
    1fb8:	4313      	orrs	r3, r2
    1fba:	81fb      	strh	r3, [r7, #14]
    1fbc:	687b      	ldr	r3, [r7, #4]
    1fbe:	89fa      	ldrh	r2, [r7, #14]
    1fc0:	801a      	strh	r2, [r3, #0]
    1fc2:	683b      	ldr	r3, [r7, #0]
    1fc4:	889a      	ldrh	r2, [r3, #4]
    1fc6:	687b      	ldr	r3, [r7, #4]
    1fc8:	859a      	strh	r2, [r3, #44]	; 0x2c
    1fca:	683b      	ldr	r3, [r7, #0]
    1fcc:	881a      	ldrh	r2, [r3, #0]
    1fce:	687b      	ldr	r3, [r7, #4]
    1fd0:	851a      	strh	r2, [r3, #40]	; 0x28
    1fd2:	687b      	ldr	r3, [r7, #4]
    1fd4:	4a0f      	ldr	r2, [pc, #60]	; (0x2014)
    1fd6:	4293      	cmp	r3, r2
    1fd8:	d00f      	beq.n	0x1ffa
    1fda:	687b      	ldr	r3, [r7, #4]
    1fdc:	4a0e      	ldr	r2, [pc, #56]	; (0x2018)
    1fde:	4293      	cmp	r3, r2
    1fe0:	d00b      	beq.n	0x1ffa
    1fe2:	687b      	ldr	r3, [r7, #4]
    1fe4:	4a12      	ldr	r2, [pc, #72]	; (0x2030)
    1fe6:	4293      	cmp	r3, r2
    1fe8:	d007      	beq.n	0x1ffa
    1fea:	687b      	ldr	r3, [r7, #4]
    1fec:	4a11      	ldr	r2, [pc, #68]	; (0x2034)
    1fee:	4293      	cmp	r3, r2
    1ff0:	d003      	beq.n	0x1ffa
    1ff2:	687b      	ldr	r3, [r7, #4]
    1ff4:	4a10      	ldr	r2, [pc, #64]	; (0x2038)
    1ff6:	4293      	cmp	r3, r2
    1ff8:	d104      	bne.n	0x2004
    1ffa:	683b      	ldr	r3, [r7, #0]
    1ffc:	7a1b      	ldrb	r3, [r3, #8]
    1ffe:	b29a      	uxth	r2, r3
    2000:	687b      	ldr	r3, [r7, #4]
    2002:	861a      	strh	r2, [r3, #48]	; 0x30
    2004:	687b      	ldr	r3, [r7, #4]
    2006:	2201      	movs	r2, #1
    2008:	829a      	strh	r2, [r3, #20]
    200a:	bf00      	nop
    200c:	3714      	adds	r7, #20
    200e:	46bd      	mov	sp, r7
    2010:	bc80      	pop	{r7}
    2012:	4770      	bx	lr
    2014:	2c00      	cmp	r4, #0
    2016:	4001      	ands	r1, r0
    2018:	3400      	adds	r4, #0
    201a:	4001      	ands	r1, r0
    201c:	0400      	lsls	r0, r0, #16
    201e:	4000      	ands	r0, r0
    2020:	0800      	lsrs	r0, r0, #32
    2022:	4000      	ands	r0, r0
    2024:	0c00      	lsrs	r0, r0, #16
    2026:	4000      	ands	r0, r0
    2028:	1000      	asrs	r0, r0, #32
    202a:	4000      	ands	r0, r0
    202c:	1400      	asrs	r0, r0, #16
    202e:	4000      	ands	r0, r0
    2030:	4000      	ands	r0, r0
    2032:	4001      	ands	r1, r0
    2034:	4400      	add	r0, r0
    2036:	4001      	ands	r1, r0
    2038:	4800      	ldr	r0, [pc, #0]	; (0x203c)
    203a:	4001      	ands	r1, r0
    203c:	b480      	push	{r7}
    203e:	b085      	sub	sp, #20
    2040:	af00      	add	r7, sp, #0
    2042:	6078      	str	r0, [r7, #4]
    2044:	6039      	str	r1, [r7, #0]
    2046:	2300      	movs	r3, #0
    2048:	817b      	strh	r3, [r7, #10]
    204a:	2300      	movs	r3, #0
    204c:	81fb      	strh	r3, [r7, #14]
    204e:	2300      	movs	r3, #0
    2050:	81bb      	strh	r3, [r7, #12]
    2052:	687b      	ldr	r3, [r7, #4]
    2054:	8c1b      	ldrh	r3, [r3, #32]
    2056:	b29b      	uxth	r3, r3
    2058:	f023 0310 	bic.w	r3, r3, #16
    205c:	b29a      	uxth	r2, r3
    205e:	687b      	ldr	r3, [r7, #4]
    2060:	841a      	strh	r2, [r3, #32]
    2062:	687b      	ldr	r3, [r7, #4]
    2064:	8c1b      	ldrh	r3, [r3, #32]
    2066:	81fb      	strh	r3, [r7, #14]
    2068:	687b      	ldr	r3, [r7, #4]
    206a:	889b      	ldrh	r3, [r3, #4]
    206c:	81bb      	strh	r3, [r7, #12]
    206e:	687b      	ldr	r3, [r7, #4]
    2070:	8b1b      	ldrh	r3, [r3, #24]
    2072:	817b      	strh	r3, [r7, #10]
    2074:	897b      	ldrh	r3, [r7, #10]
    2076:	f423 43e0 	bic.w	r3, r3, #28672	; 0x7000
    207a:	817b      	strh	r3, [r7, #10]
    207c:	897b      	ldrh	r3, [r7, #10]
    207e:	f423 7340 	bic.w	r3, r3, #768	; 0x300
    2082:	817b      	strh	r3, [r7, #10]
    2084:	683b      	ldr	r3, [r7, #0]
    2086:	881b      	ldrh	r3, [r3, #0]
    2088:	021b      	lsls	r3, r3, #8
    208a:	b29a      	uxth	r2, r3
    208c:	897b      	ldrh	r3, [r7, #10]
    208e:	4313      	orrs	r3, r2
    2090:	817b      	strh	r3, [r7, #10]
    2092:	89fb      	ldrh	r3, [r7, #14]
    2094:	f023 0320 	bic.w	r3, r3, #32
    2098:	81fb      	strh	r3, [r7, #14]
    209a:	683b      	ldr	r3, [r7, #0]
    209c:	891b      	ldrh	r3, [r3, #8]
    209e:	011b      	lsls	r3, r3, #4
    20a0:	b29a      	uxth	r2, r3
    20a2:	89fb      	ldrh	r3, [r7, #14]
    20a4:	4313      	orrs	r3, r2
    20a6:	81fb      	strh	r3, [r7, #14]
    20a8:	683b      	ldr	r3, [r7, #0]
    20aa:	885b      	ldrh	r3, [r3, #2]
    20ac:	011b      	lsls	r3, r3, #4
    20ae:	b29a      	uxth	r2, r3
    20b0:	89fb      	ldrh	r3, [r7, #14]
    20b2:	4313      	orrs	r3, r2
    20b4:	81fb      	strh	r3, [r7, #14]
    20b6:	687b      	ldr	r3, [r7, #4]
    20b8:	4a22      	ldr	r2, [pc, #136]	; (0x2144)
    20ba:	4293      	cmp	r3, r2
    20bc:	d003      	beq.n	0x20c6
    20be:	687b      	ldr	r3, [r7, #4]
    20c0:	4a21      	ldr	r2, [pc, #132]	; (0x2148)
    20c2:	4293      	cmp	r3, r2
    20c4:	d12b      	bne.n	0x211e
    20c6:	89fb      	ldrh	r3, [r7, #14]
    20c8:	f023 0380 	bic.w	r3, r3, #128	; 0x80
    20cc:	81fb      	strh	r3, [r7, #14]
    20ce:	683b      	ldr	r3, [r7, #0]
    20d0:	895b      	ldrh	r3, [r3, #10]
    20d2:	011b      	lsls	r3, r3, #4
    20d4:	b29a      	uxth	r2, r3
    20d6:	89fb      	ldrh	r3, [r7, #14]
    20d8:	4313      	orrs	r3, r2
    20da:	81fb      	strh	r3, [r7, #14]
    20dc:	89fb      	ldrh	r3, [r7, #14]
    20de:	f023 0340 	bic.w	r3, r3, #64	; 0x40
    20e2:	81fb      	strh	r3, [r7, #14]
    20e4:	683b      	ldr	r3, [r7, #0]
    20e6:	889b      	ldrh	r3, [r3, #4]
    20e8:	011b      	lsls	r3, r3, #4
    20ea:	b29a      	uxth	r2, r3
    20ec:	89fb      	ldrh	r3, [r7, #14]
    20ee:	4313      	orrs	r3, r2
    20f0:	81fb      	strh	r3, [r7, #14]
    20f2:	89bb      	ldrh	r3, [r7, #12]
    20f4:	f423 6380 	bic.w	r3, r3, #1024	; 0x400
    20f8:	81bb      	strh	r3, [r7, #12]
    20fa:	89bb      	ldrh	r3, [r7, #12]
    20fc:	f423 6300 	bic.w	r3, r3, #2048	; 0x800
    2100:	81bb      	strh	r3, [r7, #12]
    2102:	683b      	ldr	r3, [r7, #0]
    2104:	899b      	ldrh	r3, [r3, #12]
    2106:	009b      	lsls	r3, r3, #2
    2108:	b29a      	uxth	r2, r3
    210a:	89bb      	ldrh	r3, [r7, #12]
    210c:	4313      	orrs	r3, r2
    210e:	81bb      	strh	r3, [r7, #12]
    2110:	683b      	ldr	r3, [r7, #0]
    2112:	89db      	ldrh	r3, [r3, #14]
    2114:	009b      	lsls	r3, r3, #2
    2116:	b29a      	uxth	r2, r3
    2118:	89bb      	ldrh	r3, [r7, #12]
    211a:	4313      	orrs	r3, r2
    211c:	81bb      	strh	r3, [r7, #12]
    211e:	687b      	ldr	r3, [r7, #4]
    2120:	89ba      	ldrh	r2, [r7, #12]
    2122:	809a      	strh	r2, [r3, #4]
    2124:	687b      	ldr	r3, [r7, #4]
    2126:	897a      	ldrh	r2, [r7, #10]
    2128:	831a      	strh	r2, [r3, #24]
    212a:	683b      	ldr	r3, [r7, #0]
    212c:	88da      	ldrh	r2, [r3, #6]
    212e:	687b      	ldr	r3, [r7, #4]
    2130:	871a      	strh	r2, [r3, #56]	; 0x38
    2132:	687b      	ldr	r3, [r7, #4]
    2134:	89fa      	ldrh	r2, [r7, #14]
    2136:	841a      	strh	r2, [r3, #32]
    2138:	bf00      	nop
    213a:	3714      	adds	r7, #20
    213c:	46bd      	mov	sp, r7
    213e:	bc80      	pop	{r7}
    2140:	4770      	bx	lr
    2142:	bf00      	nop
    2144:	2c00      	cmp	r4, #0
    2146:	4001      	ands	r1, r0
    2148:	3400      	adds	r4, #0
    214a:	4001      	ands	r1, r0
    214c:	b480      	push	{r7}
    214e:	b083      	sub	sp, #12
    2150:	af00      	add	r7, sp, #0
    2152:	6078      	str	r0, [r7, #4]
    2154:	460b      	mov	r3, r1
    2156:	70fb      	strb	r3, [r7, #3]
    2158:	78fb      	ldrb	r3, [r7, #3]
    215a:	2b00      	cmp	r3, #0
    215c:	d008      	beq.n	0x2170
    215e:	687b      	ldr	r3, [r7, #4]
    2160:	881b      	ldrh	r3, [r3, #0]
    2162:	b29b      	uxth	r3, r3
    2164:	f043 0301 	orr.w	r3, r3, #1
    2168:	b29a      	uxth	r2, r3
    216a:	687b      	ldr	r3, [r7, #4]
    216c:	801a      	strh	r2, [r3, #0]
    216e:	e007      	b.n	0x2180
    2170:	687b      	ldr	r3, [r7, #4]
    2172:	881b      	ldrh	r3, [r3, #0]
    2174:	b29b      	uxth	r3, r3
    2176:	f023 0301 	bic.w	r3, r3, #1
    217a:	b29a      	uxth	r2, r3
    217c:	687b      	ldr	r3, [r7, #4]
    217e:	801a      	strh	r2, [r3, #0]
    2180:	bf00      	nop
    2182:	370c      	adds	r7, #12
    2184:	46bd      	mov	sp, r7
    2186:	bc80      	pop	{r7}
    2188:	4770      	bx	lr
    218a:	bf00      	nop
    218c:	b480      	push	{r7}
    218e:	b083      	sub	sp, #12
    2190:	af00      	add	r7, sp, #0
    2192:	6078      	str	r0, [r7, #4]
    2194:	460b      	mov	r3, r1
    2196:	70fb      	strb	r3, [r7, #3]
    2198:	78fb      	ldrb	r3, [r7, #3]
    219a:	2b00      	cmp	r3, #0
    219c:	d00c      	beq.n	0x21b8
    219e:	687b      	ldr	r3, [r7, #4]
    21a0:	f8b3 3044 	ldrh.w	r3, [r3, #68]	; 0x44
    21a4:	b29b      	uxth	r3, r3
    21a6:	ea6f 4343 	mvn.w	r3, r3, lsl #17
    21aa:	ea6f 4353 	mvn.w	r3, r3, lsr #17
    21ae:	b29a      	uxth	r2, r3
    21b0:	687b      	ldr	r3, [r7, #4]
    21b2:	f8a3 2044 	strh.w	r2, [r3, #68]	; 0x44
    21b6:	e009      	b.n	0x21cc
    21b8:	687b      	ldr	r3, [r7, #4]
    21ba:	f8b3 3044 	ldrh.w	r3, [r3, #68]	; 0x44
    21be:	b29b      	uxth	r3, r3
    21c0:	f3c3 030e 	ubfx	r3, r3, #0, #15
    21c4:	b29a      	uxth	r2, r3
    21c6:	687b      	ldr	r3, [r7, #4]
    21c8:	f8a3 2044 	strh.w	r2, [r3, #68]	; 0x44
    21cc:	bf00      	nop
    21ce:	370c      	adds	r7, #12
    21d0:	46bd      	mov	sp, r7
    21d2:	bc80      	pop	{r7}
    21d4:	4770      	bx	lr
    21d6:	bf00      	nop
    21d8:	b580      	push	{r7, lr}
    21da:	b08c      	sub	sp, #48	; 0x30
    21dc:	af00      	add	r7, sp, #0
    21de:	6078      	str	r0, [r7, #4]
    21e0:	6039      	str	r1, [r7, #0]
    21e2:	2300      	movs	r3, #0
    21e4:	62fb      	str	r3, [r7, #44]	; 0x2c
    21e6:	2300      	movs	r3, #0
    21e8:	62bb      	str	r3, [r7, #40]	; 0x28
    21ea:	2300      	movs	r3, #0
    21ec:	627b      	str	r3, [r7, #36]	; 0x24
    21ee:	2300      	movs	r3, #0
    21f0:	623b      	str	r3, [r7, #32]
    21f2:	2300      	movs	r3, #0
    21f4:	61fb      	str	r3, [r7, #28]
    21f6:	687b      	ldr	r3, [r7, #4]
    21f8:	61fb      	str	r3, [r7, #28]
    21fa:	687b      	ldr	r3, [r7, #4]
    21fc:	8a1b      	ldrh	r3, [r3, #16]
    21fe:	b29b      	uxth	r3, r3
    2200:	62fb      	str	r3, [r7, #44]	; 0x2c
    2202:	6afa      	ldr	r2, [r7, #44]	; 0x2c
    2204:	f64c 73ff 	movw	r3, #53247	; 0xcfff
    2208:	4013      	ands	r3, r2
    220a:	62fb      	str	r3, [r7, #44]	; 0x2c
    220c:	683b      	ldr	r3, [r7, #0]
    220e:	88db      	ldrh	r3, [r3, #6]
    2210:	461a      	mov	r2, r3
    2212:	6afb      	ldr	r3, [r7, #44]	; 0x2c
    2214:	4313      	orrs	r3, r2
    2216:	62fb      	str	r3, [r7, #44]	; 0x2c
    2218:	6afb      	ldr	r3, [r7, #44]	; 0x2c
    221a:	b29a      	uxth	r2, r3
    221c:	687b      	ldr	r3, [r7, #4]
    221e:	821a      	strh	r2, [r3, #16]
    2220:	687b      	ldr	r3, [r7, #4]
    2222:	899b      	ldrh	r3, [r3, #12]
    2224:	b29b      	uxth	r3, r3
    2226:	62fb      	str	r3, [r7, #44]	; 0x2c
    2228:	6afa      	ldr	r2, [r7, #44]	; 0x2c
    222a:	f64e 13f3 	movw	r3, #59891	; 0xe9f3
    222e:	4013      	ands	r3, r2
    2230:	62fb      	str	r3, [r7, #44]	; 0x2c
    2232:	683b      	ldr	r3, [r7, #0]
    2234:	889a      	ldrh	r2, [r3, #4]
    2236:	683b      	ldr	r3, [r7, #0]
    2238:	891b      	ldrh	r3, [r3, #8]
    223a:	4313      	orrs	r3, r2
    223c:	b29a      	uxth	r2, r3
    223e:	683b      	ldr	r3, [r7, #0]
    2240:	895b      	ldrh	r3, [r3, #10]
    2242:	4313      	orrs	r3, r2
    2244:	b29b      	uxth	r3, r3
    2246:	461a      	mov	r2, r3
    2248:	6afb      	ldr	r3, [r7, #44]	; 0x2c
    224a:	4313      	orrs	r3, r2
    224c:	62fb      	str	r3, [r7, #44]	; 0x2c
    224e:	6afb      	ldr	r3, [r7, #44]	; 0x2c
    2250:	b29a      	uxth	r2, r3
    2252:	687b      	ldr	r3, [r7, #4]
    2254:	819a      	strh	r2, [r3, #12]
    2256:	687b      	ldr	r3, [r7, #4]
    2258:	8a9b      	ldrh	r3, [r3, #20]
    225a:	b29b      	uxth	r3, r3
    225c:	62fb      	str	r3, [r7, #44]	; 0x2c
    225e:	6afa      	ldr	r2, [r7, #44]	; 0x2c
    2260:	f64f 43ff 	movw	r3, #64767	; 0xfcff
    2264:	4013      	ands	r3, r2
    2266:	62fb      	str	r3, [r7, #44]	; 0x2c
    2268:	683b      	ldr	r3, [r7, #0]
    226a:	899b      	ldrh	r3, [r3, #12]
    226c:	461a      	mov	r2, r3
    226e:	6afb      	ldr	r3, [r7, #44]	; 0x2c
    2270:	4313      	orrs	r3, r2
    2272:	62fb      	str	r3, [r7, #44]	; 0x2c
    2274:	6afb      	ldr	r3, [r7, #44]	; 0x2c
    2276:	b29a      	uxth	r2, r3
    2278:	687b      	ldr	r3, [r7, #4]
    227a:	829a      	strh	r2, [r3, #20]
    227c:	f107 0308 	add.w	r3, r7, #8
    2280:	4618      	mov	r0, r3
    2282:	f7ff fd55 	bl	0x1d30
    2286:	69fb      	ldr	r3, [r7, #28]
    2288:	4a2e      	ldr	r2, [pc, #184]	; (0x2344)
    228a:	4293      	cmp	r3, r2
    228c:	d102      	bne.n	0x2294
    228e:	697b      	ldr	r3, [r7, #20]
    2290:	62bb      	str	r3, [r7, #40]	; 0x28
    2292:	e001      	b.n	0x2298
    2294:	693b      	ldr	r3, [r7, #16]
    2296:	62bb      	str	r3, [r7, #40]	; 0x28
    2298:	687b      	ldr	r3, [r7, #4]
    229a:	899b      	ldrh	r3, [r3, #12]
    229c:	b29b      	uxth	r3, r3
    229e:	b21b      	sxth	r3, r3
    22a0:	2b00      	cmp	r3, #0
    22a2:	da0c      	bge.n	0x22be
    22a4:	6aba      	ldr	r2, [r7, #40]	; 0x28
    22a6:	4613      	mov	r3, r2
    22a8:	009b      	lsls	r3, r3, #2
    22aa:	4413      	add	r3, r2
    22ac:	009a      	lsls	r2, r3, #2
    22ae:	441a      	add	r2, r3
    22b0:	683b      	ldr	r3, [r7, #0]
    22b2:	681b      	ldr	r3, [r3, #0]
    22b4:	005b      	lsls	r3, r3, #1
    22b6:	fbb2 f3f3 	udiv	r3, r2, r3
    22ba:	627b      	str	r3, [r7, #36]	; 0x24
    22bc:	e00b      	b.n	0x22d6
    22be:	6aba      	ldr	r2, [r7, #40]	; 0x28
    22c0:	4613      	mov	r3, r2
    22c2:	009b      	lsls	r3, r3, #2
    22c4:	4413      	add	r3, r2
    22c6:	009a      	lsls	r2, r3, #2
    22c8:	441a      	add	r2, r3
    22ca:	683b      	ldr	r3, [r7, #0]
    22cc:	681b      	ldr	r3, [r3, #0]
    22ce:	009b      	lsls	r3, r3, #2
    22d0:	fbb2 f3f3 	udiv	r3, r2, r3
    22d4:	627b      	str	r3, [r7, #36]	; 0x24
    22d6:	6a7b      	ldr	r3, [r7, #36]	; 0x24
    22d8:	4a1b      	ldr	r2, [pc, #108]	; (0x2348)
    22da:	fba2 2303 	umull	r2, r3, r2, r3
    22de:	095b      	lsrs	r3, r3, #5
    22e0:	011b      	lsls	r3, r3, #4
    22e2:	62fb      	str	r3, [r7, #44]	; 0x2c
    22e4:	6afb      	ldr	r3, [r7, #44]	; 0x2c
    22e6:	091b      	lsrs	r3, r3, #4
    22e8:	2264      	movs	r2, #100	; 0x64
    22ea:	fb02 f303 	mul.w	r3, r2, r3
    22ee:	6a7a      	ldr	r2, [r7, #36]	; 0x24
    22f0:	1ad3      	subs	r3, r2, r3
    22f2:	623b      	str	r3, [r7, #32]
    22f4:	687b      	ldr	r3, [r7, #4]
    22f6:	899b      	ldrh	r3, [r3, #12]
    22f8:	b29b      	uxth	r3, r3
    22fa:	b21b      	sxth	r3, r3
    22fc:	2b00      	cmp	r3, #0
    22fe:	da0c      	bge.n	0x231a
    2300:	6a3b      	ldr	r3, [r7, #32]
    2302:	00db      	lsls	r3, r3, #3
    2304:	3332      	adds	r3, #50	; 0x32
    2306:	4a10      	ldr	r2, [pc, #64]	; (0x2348)
    2308:	fba2 2303 	umull	r2, r3, r2, r3
    230c:	095b      	lsrs	r3, r3, #5
    230e:	f003 0307 	and.w	r3, r3, #7
    2312:	6afa      	ldr	r2, [r7, #44]	; 0x2c
    2314:	4313      	orrs	r3, r2
    2316:	62fb      	str	r3, [r7, #44]	; 0x2c
    2318:	e00b      	b.n	0x2332
    231a:	6a3b      	ldr	r3, [r7, #32]
    231c:	011b      	lsls	r3, r3, #4
    231e:	3332      	adds	r3, #50	; 0x32
    2320:	4a09      	ldr	r2, [pc, #36]	; (0x2348)
    2322:	fba2 2303 	umull	r2, r3, r2, r3
    2326:	095b      	lsrs	r3, r3, #5
    2328:	f003 030f 	and.w	r3, r3, #15
    232c:	6afa      	ldr	r2, [r7, #44]	; 0x2c
    232e:	4313      	orrs	r3, r2
    2330:	62fb      	str	r3, [r7, #44]	; 0x2c
    2332:	6afb      	ldr	r3, [r7, #44]	; 0x2c
    2334:	b29a      	uxth	r2, r3
    2336:	687b      	ldr	r3, [r7, #4]
    2338:	811a      	strh	r2, [r3, #8]
    233a:	bf00      	nop
    233c:	3730      	adds	r7, #48	; 0x30
    233e:	46bd      	mov	sp, r7
    2340:	bd80      	pop	{r7, pc}
    2342:	bf00      	nop
    2344:	3800      	subs	r0, #0
    2346:	4001      	ands	r1, r0
    2348:	851f      	strh	r7, [r3, #40]	; 0x28
    234a:	51eb      	str	r3, [r5, r7]
    234c:	b480      	push	{r7}
    234e:	b083      	sub	sp, #12
    2350:	af00      	add	r7, sp, #0
    2352:	6078      	str	r0, [r7, #4]
    2354:	460b      	mov	r3, r1
    2356:	70fb      	strb	r3, [r7, #3]
    2358:	78fb      	ldrb	r3, [r7, #3]
    235a:	2b00      	cmp	r3, #0
    235c:	d008      	beq.n	0x2370
    235e:	687b      	ldr	r3, [r7, #4]
    2360:	899b      	ldrh	r3, [r3, #12]
    2362:	b29b      	uxth	r3, r3
    2364:	f443 5300 	orr.w	r3, r3, #8192	; 0x2000
    2368:	b29a      	uxth	r2, r3
    236a:	687b      	ldr	r3, [r7, #4]
    236c:	819a      	strh	r2, [r3, #12]
    236e:	e007      	b.n	0x2380
    2370:	687b      	ldr	r3, [r7, #4]
    2372:	899b      	ldrh	r3, [r3, #12]
    2374:	b29b      	uxth	r3, r3
    2376:	f423 5300 	bic.w	r3, r3, #8192	; 0x2000
    237a:	b29a      	uxth	r2, r3
    237c:	687b      	ldr	r3, [r7, #4]
    237e:	819a      	strh	r2, [r3, #12]
    2380:	bf00      	nop
    2382:	370c      	adds	r7, #12
    2384:	46bd      	mov	sp, r7
    2386:	bc80      	pop	{r7}
    2388:	4770      	bx	lr
    238a:	bf00      	nop
    238c:	b480      	push	{r7}
    238e:	b083      	sub	sp, #12
    2390:	af00      	add	r7, sp, #0
    2392:	6078      	str	r0, [r7, #4]
    2394:	460b      	mov	r3, r1
    2396:	807b      	strh	r3, [r7, #2]
    2398:	887b      	ldrh	r3, [r7, #2]
    239a:	f3c3 0308 	ubfx	r3, r3, #0, #9
    239e:	b29a      	uxth	r2, r3
    23a0:	687b      	ldr	r3, [r7, #4]
    23a2:	809a      	strh	r2, [r3, #4]
    23a4:	bf00      	nop
    23a6:	370c      	adds	r7, #12
    23a8:	46bd      	mov	sp, r7
    23aa:	bc80      	pop	{r7}
    23ac:	4770      	bx	lr
    23ae:	bf00      	nop
    23b0:	b480      	push	{r7}
    23b2:	b083      	sub	sp, #12
    23b4:	af00      	add	r7, sp, #0
    23b6:	6078      	str	r0, [r7, #4]
    23b8:	687b      	ldr	r3, [r7, #4]
    23ba:	889b      	ldrh	r3, [r3, #4]
    23bc:	b29b      	uxth	r3, r3
    23be:	f3c3 0308 	ubfx	r3, r3, #0, #9
    23c2:	b29b      	uxth	r3, r3
    23c4:	4618      	mov	r0, r3
    23c6:	370c      	adds	r7, #12
    23c8:	46bd      	mov	sp, r7
    23ca:	bc80      	pop	{r7}
    23cc:	4770      	bx	lr
    23ce:	bf00      	nop
    23d0:	b480      	push	{r7}
    23d2:	b085      	sub	sp, #20
    23d4:	af00      	add	r7, sp, #0
    23d6:	6078      	str	r0, [r7, #4]
    23d8:	460b      	mov	r3, r1
    23da:	807b      	strh	r3, [r7, #2]
    23dc:	2300      	movs	r3, #0
    23de:	73fb      	strb	r3, [r7, #15]
    23e0:	687b      	ldr	r3, [r7, #4]
    23e2:	881b      	ldrh	r3, [r3, #0]
    23e4:	b29a      	uxth	r2, r3
    23e6:	887b      	ldrh	r3, [r7, #2]
    23e8:	4013      	ands	r3, r2
    23ea:	b29b      	uxth	r3, r3
    23ec:	2b00      	cmp	r3, #0
    23ee:	d002      	beq.n	0x23f6
    23f0:	2301      	movs	r3, #1
    23f2:	73fb      	strb	r3, [r7, #15]
    23f4:	e001      	b.n	0x23fa
    23f6:	2300      	movs	r3, #0
    23f8:	73fb      	strb	r3, [r7, #15]
    23fa:	7bfb      	ldrb	r3, [r7, #15]
    23fc:	4618      	mov	r0, r3
    23fe:	3714      	adds	r7, #20
    2400:	46bd      	mov	sp, r7
    2402:	bc80      	pop	{r7}
    2404:	4770      	bx	lr
    2406:	bf00      	nop
    2408:	b590      	push	{r4, r7, lr}
    240a:	b09b      	sub	sp, #108	; 0x6c
    240c:	af00      	add	r7, sp, #0
    240e:	2364      	movs	r3, #100	; 0x64
    2410:	f8a7 305a 	strh.w	r3, [r7, #90]	; 0x5a
    2414:	2300      	movs	r3, #0
    2416:	667b      	str	r3, [r7, #100]	; 0x64
    2418:	f107 0308 	add.w	r3, r7, #8
    241c:	657b      	str	r3, [r7, #84]	; 0x54
    241e:	6d78      	ldr	r0, [r7, #84]	; 0x54
    2420:	f7fe f96e 	bl	0x700
    2424:	f7fd ffb4 	bl	0x390
    2428:	f7fe f882 	bl	0x530
    242c:	f7fe fbf6 	bl	0xc1c
    2430:	48c2      	ldr	r0, [pc, #776]	; (0x273c)
    2432:	f7fe fc39 	bl	0xca8
    2436:	f7fe f843 	bl	0x4c0
    243a:	48c1      	ldr	r0, [pc, #772]	; (0x2740)
    243c:	f7fe fc34 	bl	0xca8
    2440:	f7fe f8b4 	bl	0x5ac
    2444:	48bf      	ldr	r0, [pc, #764]	; (0x2744)
    2446:	f7fe fc2f 	bl	0xca8
    244a:	f7fe fd81 	bl	0xf50
    244e:	48be      	ldr	r0, [pc, #760]	; (0x2748)
    2450:	f7fe fc2a 	bl	0xca8
    2454:	f7fd feb2 	bl	0x1bc
    2458:	48bc      	ldr	r0, [pc, #752]	; (0x274c)
    245a:	f7fe fc25 	bl	0xca8
    245e:	f7fd fee9 	bl	0x234
    2462:	48bb      	ldr	r0, [pc, #748]	; (0x2750)
    2464:	f7fe fc20 	bl	0xca8
    2468:	f7fe f8e2 	bl	0x630
    246c:	48b9      	ldr	r0, [pc, #740]	; (0x2754)
    246e:	f7fe fc1b 	bl	0xca8
    2472:	f7fe fc93 	bl	0xd9c
    2476:	f7fe fcd5 	bl	0xe24
    247a:	48b7      	ldr	r0, [pc, #732]	; (0x2758)
    247c:	f7fe fc14 	bl	0xca8
    2480:	2102      	movs	r1, #2
    2482:	48b6      	ldr	r0, [pc, #728]	; (0x275c)
    2484:	f7fe ffec 	bl	0x1460
    2488:	2101      	movs	r1, #1
    248a:	48b4      	ldr	r0, [pc, #720]	; (0x275c)
    248c:	f7fe fedc 	bl	0x1248
    2490:	4bb3      	ldr	r3, [pc, #716]	; (0x2760)
    2492:	2210      	movs	r2, #16
    2494:	611a      	str	r2, [r3, #16]
    2496:	48b3      	ldr	r0, [pc, #716]	; (0x2764)
    2498:	f7fe fc06 	bl	0xca8
    249c:	f107 0346 	add.w	r3, r7, #70	; 0x46
    24a0:	4618      	mov	r0, r3
    24a2:	f7fe fd25 	bl	0xef0
    24a6:	f897 3046 	ldrb.w	r3, [r7, #70]	; 0x46
    24aa:	2b00      	cmp	r3, #0
    24ac:	d04a      	beq.n	0x2544
    24ae:	2001      	movs	r0, #1
    24b0:	f7fe f822 	bl	0x4f8
    24b4:	f897 3046 	ldrb.w	r3, [r7, #70]	; 0x46
    24b8:	f003 0301 	and.w	r3, r3, #1
    24bc:	2b00      	cmp	r3, #0
    24be:	d00b      	beq.n	0x24d8
    24c0:	4ba9      	ldr	r3, [pc, #676]	; (0x2768)
    24c2:	781b      	ldrb	r3, [r3, #0]
    24c4:	f003 0301 	and.w	r3, r3, #1
    24c8:	2b00      	cmp	r3, #0
    24ca:	d105      	bne.n	0x24d8
    24cc:	2069      	movs	r0, #105	; 0x69
    24ce:	f7fe fcf3 	bl	0xeb8
    24d2:	48a6      	ldr	r0, [pc, #664]	; (0x276c)
    24d4:	f7fe fbe8 	bl	0xca8
    24d8:	f897 3046 	ldrb.w	r3, [r7, #70]	; 0x46
    24dc:	f003 0304 	and.w	r3, r3, #4
    24e0:	2b00      	cmp	r3, #0
    24e2:	d00b      	beq.n	0x24fc
    24e4:	4ba0      	ldr	r3, [pc, #640]	; (0x2768)
    24e6:	781b      	ldrb	r3, [r3, #0]
    24e8:	f003 0304 	and.w	r3, r3, #4
    24ec:	2b00      	cmp	r3, #0
    24ee:	d105      	bne.n	0x24fc
    24f0:	2063      	movs	r0, #99	; 0x63
    24f2:	f7fe fce1 	bl	0xeb8
    24f6:	489e      	ldr	r0, [pc, #632]	; (0x2770)
    24f8:	f7fe fbd6 	bl	0xca8
    24fc:	f897 3046 	ldrb.w	r3, [r7, #70]	; 0x46
    2500:	f003 0302 	and.w	r3, r3, #2
    2504:	2b00      	cmp	r3, #0
    2506:	d00b      	beq.n	0x2520
    2508:	4b97      	ldr	r3, [pc, #604]	; (0x2768)
    250a:	781b      	ldrb	r3, [r3, #0]
    250c:	f003 0302 	and.w	r3, r3, #2
    2510:	2b00      	cmp	r3, #0
    2512:	d105      	bne.n	0x2520
    2514:	203d      	movs	r0, #61	; 0x3d
    2516:	f7fe fccf 	bl	0xeb8
    251a:	4896      	ldr	r0, [pc, #600]	; (0x2774)
    251c:	f7fe fbc4 	bl	0xca8
    2520:	f897 3046 	ldrb.w	r3, [r7, #70]	; 0x46
    2524:	f003 0308 	and.w	r3, r3, #8
    2528:	2b00      	cmp	r3, #0
    252a:	d00b      	beq.n	0x2544
    252c:	4b8e      	ldr	r3, [pc, #568]	; (0x2768)
    252e:	781b      	ldrb	r3, [r3, #0]
    2530:	f003 0308 	and.w	r3, r3, #8
    2534:	2b00      	cmp	r3, #0
    2536:	d105      	bne.n	0x2544
    2538:	202d      	movs	r0, #45	; 0x2d
    253a:	f7fe fcbd 	bl	0xeb8
    253e:	488e      	ldr	r0, [pc, #568]	; (0x2778)
    2540:	f7fe fbb2 	bl	0xca8
    2544:	f897 2046 	ldrb.w	r2, [r7, #70]	; 0x46
    2548:	4b87      	ldr	r3, [pc, #540]	; (0x2768)
    254a:	701a      	strb	r2, [r3, #0]
    254c:	f107 0347 	add.w	r3, r7, #71	; 0x47
    2550:	4618      	mov	r0, r3
    2552:	f7fe fc95 	bl	0xe80
    2556:	4603      	mov	r3, r0
    2558:	f887 3053 	strb.w	r3, [r7, #83]	; 0x53
    255c:	f897 3047 	ldrb.w	r3, [r7, #71]	; 0x47
    2560:	2b72      	cmp	r3, #114	; 0x72
    2562:	d153      	bne.n	0x260c
    2564:	f897 3046 	ldrb.w	r3, [r7, #70]	; 0x46
    2568:	2b00      	cmp	r3, #0
    256a:	d14f      	bne.n	0x260c
    256c:	2300      	movs	r3, #0
    256e:	f887 3063 	strb.w	r3, [r7, #99]	; 0x63
    2572:	2300      	movs	r3, #0
    2574:	f8a7 3060 	strh.w	r3, [r7, #96]	; 0x60
    2578:	e02e      	b.n	0x25d8
    257a:	f107 0347 	add.w	r3, r7, #71	; 0x47
    257e:	4618      	mov	r0, r3
    2580:	f7fe fc7e 	bl	0xe80
    2584:	4603      	mov	r3, r0
    2586:	f887 3053 	strb.w	r3, [r7, #83]	; 0x53
    258a:	f897 3053 	ldrb.w	r3, [r7, #83]	; 0x53
    258e:	2b00      	cmp	r3, #0
    2590:	d01d      	beq.n	0x25ce
    2592:	f897 3047 	ldrb.w	r3, [r7, #71]	; 0x47
    2596:	2b2f      	cmp	r3, #47	; 0x2f
    2598:	d919      	bls.n	0x25ce
    259a:	f897 3047 	ldrb.w	r3, [r7, #71]	; 0x47
    259e:	2b39      	cmp	r3, #57	; 0x39
    25a0:	d815      	bhi.n	0x25ce
    25a2:	f897 3047 	ldrb.w	r3, [r7, #71]	; 0x47
    25a6:	3b30      	subs	r3, #48	; 0x30
    25a8:	b2db      	uxtb	r3, r3
    25aa:	f887 3047 	strb.w	r3, [r7, #71]	; 0x47
    25ae:	f8b7 3060 	ldrh.w	r3, [r7, #96]	; 0x60
    25b2:	461a      	mov	r2, r3
    25b4:	0092      	lsls	r2, r2, #2
    25b6:	4413      	add	r3, r2
    25b8:	005b      	lsls	r3, r3, #1
    25ba:	f8a7 3060 	strh.w	r3, [r7, #96]	; 0x60
    25be:	f897 3047 	ldrb.w	r3, [r7, #71]	; 0x47
    25c2:	b29a      	uxth	r2, r3
    25c4:	f8b7 3060 	ldrh.w	r3, [r7, #96]	; 0x60
    25c8:	4413      	add	r3, r2
    25ca:	f8a7 3060 	strh.w	r3, [r7, #96]	; 0x60
    25ce:	f897 3063 	ldrb.w	r3, [r7, #99]	; 0x63
    25d2:	3301      	adds	r3, #1
    25d4:	f887 3063 	strb.w	r3, [r7, #99]	; 0x63
    25d8:	f897 3047 	ldrb.w	r3, [r7, #71]	; 0x47
    25dc:	2b65      	cmp	r3, #101	; 0x65
    25de:	d1cc      	bne.n	0x257a
    25e0:	f8b7 3060 	ldrh.w	r3, [r7, #96]	; 0x60
    25e4:	f643 2297 	movw	r2, #14999	; 0x3a97
    25e8:	4293      	cmp	r3, r2
    25ea:	d821      	bhi.n	0x2630
    25ec:	4a63      	ldr	r2, [pc, #396]	; (0x277c)
    25ee:	f8b7 3060 	ldrh.w	r3, [r7, #96]	; 0x60
    25f2:	8013      	strh	r3, [r2, #0]
    25f4:	4862      	ldr	r0, [pc, #392]	; (0x2780)
    25f6:	f7fe fb57 	bl	0xca8
    25fa:	4b60      	ldr	r3, [pc, #384]	; (0x277c)
    25fc:	881b      	ldrh	r3, [r3, #0]
    25fe:	4618      	mov	r0, r3
    2600:	f7fe fb7a 	bl	0xcf8
    2604:	485f      	ldr	r0, [pc, #380]	; (0x2784)
    2606:	f7fe fb4f 	bl	0xca8
    260a:	e011      	b.n	0x2630
    260c:	f897 3053 	ldrb.w	r3, [r7, #83]	; 0x53
    2610:	2b00      	cmp	r3, #0
    2612:	d00e      	beq.n	0x2632
    2614:	f897 3046 	ldrb.w	r3, [r7, #70]	; 0x46
    2618:	2b00      	cmp	r3, #0
    261a:	d10a      	bne.n	0x2632
    261c:	f897 3047 	ldrb.w	r3, [r7, #71]	; 0x47
    2620:	713b      	strb	r3, [r7, #4]
    2622:	2300      	movs	r3, #0
    2624:	717b      	strb	r3, [r7, #5]
    2626:	1d3b      	adds	r3, r7, #4
    2628:	4618      	mov	r0, r3
    262a:	f7fe fb3d 	bl	0xca8
    262e:	e000      	b.n	0x2632
    2630:	bf00      	nop
    2632:	f107 0330 	add.w	r3, r7, #48	; 0x30
    2636:	4618      	mov	r0, r3
    2638:	f7fd fe8c 	bl	0x354
    263c:	6b7b      	ldr	r3, [r7, #52]	; 0x34
    263e:	2b00      	cmp	r3, #0
    2640:	d00a      	beq.n	0x2658
    2642:	f107 0330 	add.w	r3, r7, #48	; 0x30
    2646:	6d79      	ldr	r1, [r7, #84]	; 0x54
    2648:	4618      	mov	r0, r3
    264a:	f7fe f89b 	bl	0x784
    264e:	f107 0330 	add.w	r3, r7, #48	; 0x30
    2652:	4618      	mov	r0, r3
    2654:	f7fd fe58 	bl	0x308
    2658:	68fb      	ldr	r3, [r7, #12]
    265a:	2b00      	cmp	r3, #0
    265c:	d029      	beq.n	0x26b2
    265e:	68fb      	ldr	r3, [r7, #12]
    2660:	4a49      	ldr	r2, [pc, #292]	; (0x2788)
    2662:	4293      	cmp	r3, r2
    2664:	d125      	bne.n	0x26b2
    2666:	f897 3022 	ldrb.w	r3, [r7, #34]	; 0x22
    266a:	2b00      	cmp	r3, #0
    266c:	d00b      	beq.n	0x2686
    266e:	f8b7 305a 	ldrh.w	r3, [r7, #90]	; 0x5a
    2672:	4618      	mov	r0, r3
    2674:	f000 fe06 	bl	0x3284
    2678:	4603      	mov	r3, r0
    267a:	4619      	mov	r1, r3
    267c:	f04f 0000 	mov.w	r0, #0
    2680:	f000 f92c 	bl	0x28dc
    2684:	e010      	b.n	0x26a8
    2686:	f107 0308 	add.w	r3, r7, #8
    268a:	3316      	adds	r3, #22
    268c:	64fb      	str	r3, [r7, #76]	; 0x4c
    268e:	6cfb      	ldr	r3, [r7, #76]	; 0x4c
    2690:	681b      	ldr	r3, [r3, #0]
    2692:	64bb      	str	r3, [r7, #72]	; 0x48
    2694:	f8b7 305a 	ldrh.w	r3, [r7, #90]	; 0x5a
    2698:	4618      	mov	r0, r3
    269a:	f000 fdf3 	bl	0x3284
    269e:	4603      	mov	r3, r0
    26a0:	4619      	mov	r1, r3
    26a2:	6cb8      	ldr	r0, [r7, #72]	; 0x48
    26a4:	f000 f91a 	bl	0x28dc
    26a8:	f107 0308 	add.w	r3, r7, #8
    26ac:	4618      	mov	r0, r3
    26ae:	f7fe f827 	bl	0x700
    26b2:	2102      	movs	r1, #2
    26b4:	4829      	ldr	r0, [pc, #164]	; (0x275c)
    26b6:	f7fe feb9 	bl	0x142c
    26ba:	4603      	mov	r3, r0
    26bc:	2b01      	cmp	r3, #1
    26be:	f040 80ac 	bne.w	0x281a
    26c2:	2300      	movs	r3, #0
    26c4:	f887 305f 	strb.w	r3, [r7, #95]	; 0x5f
    26c8:	2102      	movs	r1, #2
    26ca:	4824      	ldr	r0, [pc, #144]	; (0x275c)
    26cc:	f7fe fec8 	bl	0x1460
    26d0:	4b2e      	ldr	r3, [pc, #184]	; (0x278c)
    26d2:	781b      	ldrb	r3, [r3, #0]
    26d4:	2b05      	cmp	r3, #5
    26d6:	d111      	bne.n	0x26fc
    26d8:	4b2d      	ldr	r3, [pc, #180]	; (0x2790)
    26da:	881b      	ldrh	r3, [r3, #0]
    26dc:	f8a7 305c 	strh.w	r3, [r7, #92]	; 0x5c
    26e0:	481e      	ldr	r0, [pc, #120]	; (0x275c)
    26e2:	f7fe fe97 	bl	0x1414
    26e6:	4603      	mov	r3, r0
    26e8:	461a      	mov	r2, r3
    26ea:	4b29      	ldr	r3, [pc, #164]	; (0x2790)
    26ec:	801a      	strh	r2, [r3, #0]
    26ee:	4b27      	ldr	r3, [pc, #156]	; (0x278c)
    26f0:	2201      	movs	r2, #1
    26f2:	701a      	strb	r2, [r3, #0]
    26f4:	2301      	movs	r3, #1
    26f6:	f887 305f 	strb.w	r3, [r7, #95]	; 0x5f
    26fa:	e055      	b.n	0x27a8
    26fc:	4b23      	ldr	r3, [pc, #140]	; (0x278c)
    26fe:	781b      	ldrb	r3, [r3, #0]
    2700:	2b00      	cmp	r3, #0
    2702:	d047      	beq.n	0x2794
    2704:	4b22      	ldr	r3, [pc, #136]	; (0x2790)
    2706:	881b      	ldrh	r3, [r3, #0]
    2708:	461a      	mov	r2, r3
    270a:	4b20      	ldr	r3, [pc, #128]	; (0x278c)
    270c:	781b      	ldrb	r3, [r3, #0]
    270e:	3b01      	subs	r3, #1
    2710:	fb03 f402 	mul.w	r4, r3, r2
    2714:	4811      	ldr	r0, [pc, #68]	; (0x275c)
    2716:	f7fe fe7d 	bl	0x1414
    271a:	4603      	mov	r3, r0
    271c:	4423      	add	r3, r4
    271e:	4a1b      	ldr	r2, [pc, #108]	; (0x278c)
    2720:	7812      	ldrb	r2, [r2, #0]
    2722:	fb93 f3f2 	sdiv	r3, r3, r2
    2726:	b29a      	uxth	r2, r3
    2728:	4b19      	ldr	r3, [pc, #100]	; (0x2790)
    272a:	801a      	strh	r2, [r3, #0]
    272c:	4b17      	ldr	r3, [pc, #92]	; (0x278c)
    272e:	781b      	ldrb	r3, [r3, #0]
    2730:	3301      	adds	r3, #1
    2732:	b2da      	uxtb	r2, r3
    2734:	4b15      	ldr	r3, [pc, #84]	; (0x278c)
    2736:	701a      	strb	r2, [r3, #0]
    2738:	e036      	b.n	0x27a8
    273a:	bf00      	nop
    273c:	3a7c      	subs	r2, #124	; 0x7c
    273e:	0800      	lsrs	r0, r0, #32
    2740:	3a88      	subs	r2, #136	; 0x88
    2742:	0800      	lsrs	r0, r0, #32
    2744:	3aa0      	subs	r2, #160	; 0xa0
    2746:	0800      	lsrs	r0, r0, #32
    2748:	3ab4      	subs	r2, #180	; 0xb4
    274a:	0800      	lsrs	r0, r0, #32
    274c:	3acc      	subs	r2, #204	; 0xcc
    274e:	0800      	lsrs	r0, r0, #32
    2750:	3ae0      	subs	r2, #224	; 0xe0
    2752:	0800      	lsrs	r0, r0, #32
    2754:	3af4      	subs	r2, #244	; 0xf4
    2756:	0800      	lsrs	r0, r0, #32
    2758:	3b08      	subs	r3, #8
    275a:	0800      	lsrs	r0, r0, #32
    275c:	2400      	movs	r4, #0
    275e:	4001      	ands	r1, r0
    2760:	0800      	lsrs	r0, r0, #32
    2762:	4001      	ands	r1, r0
    2764:	3b20      	subs	r3, #32
    2766:	0800      	lsrs	r0, r0, #32
    2768:	054a      	lsls	r2, r1, #21
    276a:	2000      	movs	r0, #0
    276c:	3b34      	subs	r3, #52	; 0x34
    276e:	0800      	lsrs	r0, r0, #32
    2770:	3b44      	subs	r3, #68	; 0x44
    2772:	0800      	lsrs	r0, r0, #32
    2774:	3b50      	subs	r3, #80	; 0x50
    2776:	0800      	lsrs	r0, r0, #32
    2778:	3b5c      	subs	r3, #92	; 0x5c
    277a:	0800      	lsrs	r0, r0, #32
    277c:	055c      	lsls	r4, r3, #21
    277e:	2000      	movs	r0, #0
    2780:	3b68      	subs	r3, #104	; 0x68
    2782:	0800      	lsrs	r0, r0, #32
    2784:	3b70      	subs	r3, #112	; 0x70
    2786:	0800      	lsrs	r0, r0, #32
    2788:	ef00 0001 	vhadd.s8	d0, d0, d1
    278c:	054b      	lsls	r3, r1, #21
    278e:	2000      	movs	r0, #0
    2790:	054c      	lsls	r4, r1, #21
    2792:	2000      	movs	r0, #0
    2794:	482c      	ldr	r0, [pc, #176]	; (0x2848)
    2796:	f7fe fe3d 	bl	0x1414
    279a:	4603      	mov	r3, r0
    279c:	461a      	mov	r2, r3
    279e:	4b2b      	ldr	r3, [pc, #172]	; (0x284c)
    27a0:	801a      	strh	r2, [r3, #0]
    27a2:	4b2b      	ldr	r3, [pc, #172]	; (0x2850)
    27a4:	2201      	movs	r2, #1
    27a6:	701a      	strb	r2, [r3, #0]
    27a8:	2101      	movs	r1, #1
    27aa:	4827      	ldr	r0, [pc, #156]	; (0x2848)
    27ac:	f7fe fd4c 	bl	0x1248
    27b0:	f897 305f 	ldrb.w	r3, [r7, #95]	; 0x5f
    27b4:	2b00      	cmp	r3, #0
    27b6:	d030      	beq.n	0x281a
    27b8:	f8b7 305c 	ldrh.w	r3, [r7, #92]	; 0x5c
    27bc:	f240 5284 	movw	r2, #1412	; 0x584
    27c0:	4293      	cmp	r3, r2
    27c2:	d90d      	bls.n	0x27e0
    27c4:	4b23      	ldr	r3, [pc, #140]	; (0x2854)
    27c6:	cb18      	ldmia	r3, {r3, r4}
    27c8:	4323      	orrs	r3, r4
    27ca:	d109      	bne.n	0x27e0
    27cc:	4b22      	ldr	r3, [pc, #136]	; (0x2858)
    27ce:	681b      	ldr	r3, [r3, #0]
    27d0:	f503 637a 	add.w	r3, r3, #4000	; 0xfa0
    27d4:	f04f 0400 	mov.w	r4, #0
    27d8:	4a1e      	ldr	r2, [pc, #120]	; (0x2854)
    27da:	e9c2 3400 	strd	r3, r4, [r2]
    27de:	e01c      	b.n	0x281a
    27e0:	f8b7 305c 	ldrh.w	r3, [r7, #92]	; 0x5c
    27e4:	f240 5284 	movw	r2, #1412	; 0x584
    27e8:	4293      	cmp	r3, r2
    27ea:	d807      	bhi.n	0x27fc
    27ec:	4a19      	ldr	r2, [pc, #100]	; (0x2854)
    27ee:	f04f 0300 	mov.w	r3, #0
    27f2:	f04f 0400 	mov.w	r4, #0
    27f6:	e9c2 3400 	strd	r3, r4, [r2]
    27fa:	e00e      	b.n	0x281a
    27fc:	4b16      	ldr	r3, [pc, #88]	; (0x2858)
    27fe:	681b      	ldr	r3, [r3, #0]
    2800:	4619      	mov	r1, r3
    2802:	f04f 0200 	mov.w	r2, #0
    2806:	4b13      	ldr	r3, [pc, #76]	; (0x2854)
    2808:	cb18      	ldmia	r3, {r3, r4}
    280a:	42a2      	cmp	r2, r4
    280c:	bf08      	it	eq
    280e:	4299      	cmpeq	r1, r3
    2810:	d303      	bcc.n	0x281a
    2812:	4b12      	ldr	r3, [pc, #72]	; (0x285c)
    2814:	781a      	ldrb	r2, [r3, #0]
    2816:	4b12      	ldr	r3, [pc, #72]	; (0x2860)
    2818:	701a      	strb	r2, [r3, #0]
    281a:	6e7b      	ldr	r3, [r7, #100]	; 0x64
    281c:	f103 0264 	add.w	r2, r3, #100	; 0x64
    2820:	4b0d      	ldr	r3, [pc, #52]	; (0x2858)
    2822:	681b      	ldr	r3, [r3, #0]
    2824:	429a      	cmp	r2, r3
    2826:	d805      	bhi.n	0x2834
    2828:	4b0b      	ldr	r3, [pc, #44]	; (0x2858)
    282a:	681b      	ldr	r3, [r3, #0]
    282c:	667b      	str	r3, [r7, #100]	; 0x64
    282e:	f000 f81d 	bl	0x286c
    2832:	e633      	b.n	0x249c
    2834:	6e7b      	ldr	r3, [r7, #100]	; 0x64
    2836:	4a0b      	ldr	r2, [pc, #44]	; (0x2864)
    2838:	4293      	cmp	r3, r2
    283a:	f67f ae2f 	bls.w	0x249c
    283e:	480a      	ldr	r0, [pc, #40]	; (0x2868)
    2840:	f7fe fa32 	bl	0xca8
    2844:	e62a      	b.n	0x249c
    2846:	bf00      	nop
    2848:	2400      	movs	r4, #0
    284a:	4001      	ands	r1, r0
    284c:	054c      	lsls	r4, r1, #21
    284e:	2000      	movs	r0, #0
    2850:	054b      	lsls	r3, r1, #21
    2852:	2000      	movs	r0, #0
    2854:	0550      	lsls	r0, r2, #21
    2856:	2000      	movs	r0, #0
    2858:	047c      	lsls	r4, r7, #17
    285a:	2000      	movs	r0, #0
    285c:	0548      	lsls	r0, r1, #21
    285e:	2000      	movs	r0, #0
    2860:	0549      	lsls	r1, r1, #21
    2862:	2000      	movs	r0, #0
    2864:	5c00      	ldrb	r0, [r0, r0]
    2866:	0526      	lsls	r6, r4, #20
    2868:	3b74      	subs	r3, #116	; 0x74
    286a:	0800      	lsrs	r0, r0, #32
    286c:	b580      	push	{r7, lr}
    286e:	b08a      	sub	sp, #40	; 0x28
    2870:	af02      	add	r7, sp, #8
    2872:	4b18      	ldr	r3, [pc, #96]	; (0x28d4)
    2874:	881b      	ldrh	r3, [r3, #0]
    2876:	009b      	lsls	r3, r3, #2
    2878:	83fb      	strh	r3, [r7, #30]
    287a:	2301      	movs	r3, #1
    287c:	703b      	strb	r3, [r7, #0]
    287e:	8bfb      	ldrh	r3, [r7, #30]
    2880:	b2db      	uxtb	r3, r3
    2882:	707b      	strb	r3, [r7, #1]
    2884:	8bfb      	ldrh	r3, [r7, #30]
    2886:	0a1b      	lsrs	r3, r3, #8
    2888:	b29b      	uxth	r3, r3
    288a:	b2db      	uxtb	r3, r3
    288c:	70bb      	strb	r3, [r7, #2]
    288e:	2300      	movs	r3, #0
    2890:	70fb      	strb	r3, [r7, #3]
    2892:	2300      	movs	r3, #0
    2894:	713b      	strb	r3, [r7, #4]
    2896:	2300      	movs	r3, #0
    2898:	717b      	strb	r3, [r7, #5]
    289a:	23ff      	movs	r3, #255	; 0xff
    289c:	71bb      	strb	r3, [r7, #6]
    289e:	23ff      	movs	r3, #255	; 0xff
    28a0:	71fb      	strb	r3, [r7, #7]
    28a2:	f107 0008 	add.w	r0, r7, #8
    28a6:	463b      	mov	r3, r7
    28a8:	9301      	str	r3, [sp, #4]
    28aa:	2300      	movs	r3, #0
    28ac:	9300      	str	r3, [sp, #0]
    28ae:	2304      	movs	r3, #4
    28b0:	f44f 32f9 	mov.w	r2, #127488	; 0x1f200
    28b4:	2102      	movs	r1, #2
    28b6:	f7fd fed5 	bl	0x664
    28ba:	f107 0308 	add.w	r3, r7, #8
    28be:	4619      	mov	r1, r3
    28c0:	4805      	ldr	r0, [pc, #20]	; (0x28d8)
    28c2:	f7fe ffb5 	bl	0x1830
    28c6:	4603      	mov	r3, r0
    28c8:	777b      	strb	r3, [r7, #29]
    28ca:	bf00      	nop
    28cc:	3720      	adds	r7, #32
    28ce:	46bd      	mov	sp, r7
    28d0:	bd80      	pop	{r7, pc}
    28d2:	bf00      	nop
    28d4:	055c      	lsls	r4, r3, #21
    28d6:	2000      	movs	r0, #0
    28d8:	6400      	str	r0, [r0, #64]	; 0x40
    28da:	4000      	ands	r0, r0
    28dc:	b590      	push	{r4, r7, lr}
    28de:	b085      	sub	sp, #20
    28e0:	af00      	add	r7, sp, #0
    28e2:	6078      	str	r0, [r7, #4]
    28e4:	6039      	str	r1, [r7, #0]
    28e6:	f04f 0100 	mov.w	r1, #0
    28ea:	6878      	ldr	r0, [r7, #4]
    28ec:	f000 fec0 	bl	0x3670
    28f0:	4603      	mov	r3, r0
    28f2:	2b00      	cmp	r3, #0
    28f4:	d009      	beq.n	0x290a
    28f6:	687b      	ldr	r3, [r7, #4]
    28f8:	f083 4300 	eor.w	r3, r3, #2147483648	; 0x80000000
    28fc:	6839      	ldr	r1, [r7, #0]
    28fe:	4618      	mov	r0, r3
    2900:	f000 fd18 	bl	0x3334
    2904:	4603      	mov	r3, r0
    2906:	60fb      	str	r3, [r7, #12]
    2908:	e005      	b.n	0x2916
    290a:	6839      	ldr	r1, [r7, #0]
    290c:	6878      	ldr	r0, [r7, #4]
    290e:	f000 fd11 	bl	0x3334
    2912:	4603      	mov	r3, r0
    2914:	60fb      	str	r3, [r7, #12]
    2916:	68f8      	ldr	r0, [r7, #12]
    2918:	f000 fb82 	bl	0x3020
    291c:	f04f 0200 	mov.w	r2, #0
    2920:	4b47      	ldr	r3, [pc, #284]	; (0x2a40)
    2922:	f000 fa1f 	bl	0x2d64
    2926:	4603      	mov	r3, r0
    2928:	460c      	mov	r4, r1
    292a:	4618      	mov	r0, r3
    292c:	4621      	mov	r1, r4
    292e:	f000 fbcb 	bl	0x30c8
    2932:	4604      	mov	r4, r0
    2934:	68f8      	ldr	r0, [r7, #12]
    2936:	f000 fec3 	bl	0x36c0
    293a:	4603      	mov	r3, r0
    293c:	429c      	cmp	r4, r3
    293e:	dd06      	ble.n	0x294e
    2940:	f04f 517c 	mov.w	r1, #1056964608	; 0x3f000000
    2944:	68f8      	ldr	r0, [r7, #12]
    2946:	f000 fbed 	bl	0x3124
    294a:	4603      	mov	r3, r0
    294c:	60fb      	str	r3, [r7, #12]
    294e:	493d      	ldr	r1, [pc, #244]	; (0x2a44)
    2950:	68f8      	ldr	r0, [r7, #12]
    2952:	f000 feab 	bl	0x36ac
    2956:	4603      	mov	r3, r0
    2958:	2b00      	cmp	r3, #0
    295a:	d001      	beq.n	0x2960
    295c:	4b39      	ldr	r3, [pc, #228]	; (0x2a44)
    295e:	60fb      	str	r3, [r7, #12]
    2960:	f04f 517e 	mov.w	r1, #1065353216	; 0x3f800000
    2964:	68f8      	ldr	r0, [r7, #12]
    2966:	f000 fe83 	bl	0x3670
    296a:	4603      	mov	r3, r0
    296c:	2b00      	cmp	r3, #0
    296e:	d002      	beq.n	0x2976
    2970:	f04f 0300 	mov.w	r3, #0
    2974:	60fb      	str	r3, [r7, #12]
    2976:	f04f 0100 	mov.w	r1, #0
    297a:	6878      	ldr	r0, [r7, #4]
    297c:	f000 fe96 	bl	0x36ac
    2980:	4603      	mov	r3, r0
    2982:	2b00      	cmp	r3, #0
    2984:	d021      	beq.n	0x29ca
    2986:	f04f 0100 	mov.w	r1, #0
    298a:	68f8      	ldr	r0, [r7, #12]
    298c:	f000 fe66 	bl	0x365c
    2990:	4603      	mov	r3, r0
    2992:	2b00      	cmp	r3, #0
    2994:	d119      	bne.n	0x29ca
    2996:	4b2c      	ldr	r3, [pc, #176]	; (0x2a48)
    2998:	781b      	ldrb	r3, [r3, #0]
    299a:	2b01      	cmp	r3, #1
    299c:	d015      	beq.n	0x29ca
    299e:	4b2b      	ldr	r3, [pc, #172]	; (0x2a4c)
    29a0:	2201      	movs	r2, #1
    29a2:	701a      	strb	r2, [r3, #0]
    29a4:	4b28      	ldr	r3, [pc, #160]	; (0x2a48)
    29a6:	2200      	movs	r2, #0
    29a8:	701a      	strb	r2, [r3, #0]
    29aa:	f04f 4480 	mov.w	r4, #1073741824	; 0x40000000
    29ae:	68f8      	ldr	r0, [r7, #12]
    29b0:	f000 feac 	bl	0x370c
    29b4:	4603      	mov	r3, r0
    29b6:	b2db      	uxtb	r3, r3
    29b8:	b29b      	uxth	r3, r3
    29ba:	8723      	strh	r3, [r4, #56]	; 0x38
    29bc:	4b24      	ldr	r3, [pc, #144]	; (0x2a50)
    29be:	2220      	movs	r2, #32
    29c0:	615a      	str	r2, [r3, #20]
    29c2:	4b23      	ldr	r3, [pc, #140]	; (0x2a50)
    29c4:	2240      	movs	r2, #64	; 0x40
    29c6:	611a      	str	r2, [r3, #16]
    29c8:	e036      	b.n	0x2a38
    29ca:	f04f 0100 	mov.w	r1, #0
    29ce:	6878      	ldr	r0, [r7, #4]
    29d0:	f000 fe4e 	bl	0x3670
    29d4:	4603      	mov	r3, r0
    29d6:	2b00      	cmp	r3, #0
    29d8:	d021      	beq.n	0x2a1e
    29da:	f04f 0100 	mov.w	r1, #0
    29de:	68f8      	ldr	r0, [r7, #12]
    29e0:	f000 fe3c 	bl	0x365c
    29e4:	4603      	mov	r3, r0
    29e6:	2b00      	cmp	r3, #0
    29e8:	d119      	bne.n	0x2a1e
    29ea:	4b17      	ldr	r3, [pc, #92]	; (0x2a48)
    29ec:	781b      	ldrb	r3, [r3, #0]
    29ee:	2b02      	cmp	r3, #2
    29f0:	d015      	beq.n	0x2a1e
    29f2:	4b16      	ldr	r3, [pc, #88]	; (0x2a4c)
    29f4:	2202      	movs	r2, #2
    29f6:	701a      	strb	r2, [r3, #0]
    29f8:	4b13      	ldr	r3, [pc, #76]	; (0x2a48)
    29fa:	2200      	movs	r2, #0
    29fc:	701a      	strb	r2, [r3, #0]
    29fe:	f04f 4480 	mov.w	r4, #1073741824	; 0x40000000
    2a02:	68f8      	ldr	r0, [r7, #12]
    2a04:	f000 fe82 	bl	0x370c
    2a08:	4603      	mov	r3, r0
    2a0a:	b2db      	uxtb	r3, r3
    2a0c:	b29b      	uxth	r3, r3
    2a0e:	8723      	strh	r3, [r4, #56]	; 0x38
    2a10:	4b0f      	ldr	r3, [pc, #60]	; (0x2a50)
    2a12:	2220      	movs	r2, #32
    2a14:	611a      	str	r2, [r3, #16]
    2a16:	4b0e      	ldr	r3, [pc, #56]	; (0x2a50)
    2a18:	2240      	movs	r2, #64	; 0x40
    2a1a:	615a      	str	r2, [r3, #20]
    2a1c:	e00c      	b.n	0x2a38
    2a1e:	4b0b      	ldr	r3, [pc, #44]	; (0x2a4c)
    2a20:	2200      	movs	r2, #0
    2a22:	701a      	strb	r2, [r3, #0]
    2a24:	f04f 4380 	mov.w	r3, #1073741824	; 0x40000000
    2a28:	2201      	movs	r2, #1
    2a2a:	871a      	strh	r2, [r3, #56]	; 0x38
    2a2c:	4b08      	ldr	r3, [pc, #32]	; (0x2a50)
    2a2e:	2220      	movs	r2, #32
    2a30:	611a      	str	r2, [r3, #16]
    2a32:	4b07      	ldr	r3, [pc, #28]	; (0x2a50)
    2a34:	2240      	movs	r2, #64	; 0x40
    2a36:	611a      	str	r2, [r3, #16]
    2a38:	bf00      	nop
    2a3a:	3714      	adds	r7, #20
    2a3c:	46bd      	mov	sp, r7
    2a3e:	bd90      	pop	{r4, r7, pc}
    2a40:	0000      	movs	r0, r0
    2a42:	3fe0      	subs	r7, #224	; 0xe0
    2a44:	0000      	movs	r0, r0
    2a46:	42fa      	cmn	r2, r7
    2a48:	0549      	lsls	r1, r1, #21
    2a4a:	2000      	movs	r0, #0
    2a4c:	0548      	lsls	r0, r1, #21
    2a4e:	2000      	movs	r0, #0
    2a50:	0800      	lsrs	r0, r0, #32
    2a52:	4001      	ands	r1, r0
    2a54:	4906      	ldr	r1, [pc, #24]	; (0x2a70)
    2a56:	4a07      	ldr	r2, [pc, #28]	; (0x2a74)
    2a58:	4b07      	ldr	r3, [pc, #28]	; (0x2a78)
    2a5a:	429a      	cmp	r2, r3
    2a5c:	bfbe      	ittt	lt
    2a5e:	f851 0b04 	ldrlt.w	r0, [r1], #4
    2a62:	f842 0b04 	strlt.w	r0, [r2], #4
    2a66:	e7f8      	blt.n	0x2a5a
    2a68:	4804      	ldr	r0, [pc, #16]	; (0x2a7c)
    2a6a:	4780      	blx	r0
    2a6c:	4804      	ldr	r0, [pc, #16]	; (0x2a80)
    2a6e:	4700      	bx	r0
    2a70:	3b9c      	subs	r3, #156	; 0x9c
    2a72:	0800      	lsrs	r0, r0, #32
    2a74:	0000      	movs	r0, r0
    2a76:	2000      	movs	r0, #0
    2a78:	045c      	lsls	r4, r3, #17
    2a7a:	2000      	movs	r0, #0
    2a7c:	2b0d      	cmp	r3, #13
    2a7e:	0800      	lsrs	r0, r0, #32
    2a80:	0149      	lsls	r1, r1, #5
    2a82:	0800      	lsrs	r0, r0, #32
    2a84:	491f      	ldr	r1, [pc, #124]	; (0x2b04)
    2a86:	4a20      	ldr	r2, [pc, #128]	; (0x2b08)
    2a88:	2300      	movs	r3, #0
    2a8a:	e001      	b.n	0x2a90
    2a8c:	f841 3b04 	str.w	r3, [r1], #4
    2a90:	4291      	cmp	r1, r2
    2a92:	d3fb      	bcc.n	0x2a8c
    2a94:	f7ff fcb8 	bl	0x2408
    2a98:	e7fe      	b.n	0x2a98
    2a9a:	e7fe      	b.n	0x2a9a
    2a9c:	e7fe      	b.n	0x2a9c
    2a9e:	e7fe      	b.n	0x2a9e
    2aa0:	e7fe      	b.n	0x2aa0
    2aa2:	e7fe      	b.n	0x2aa2
    2aa4:	e7fe      	b.n	0x2aa4
    2aa6:	e7fe      	b.n	0x2aa6
    2aa8:	e7fe      	b.n	0x2aa8
    2aaa:	e7fe      	b.n	0x2aaa
    2aac:	e7fe      	b.n	0x2aac
    2aae:	e7fe      	b.n	0x2aae
    2ab0:	e7fe      	b.n	0x2ab0
    2ab2:	e7fe      	b.n	0x2ab2
    2ab4:	e7fe      	b.n	0x2ab4
    2ab6:	e7fe      	b.n	0x2ab6
    2ab8:	e7fe      	b.n	0x2ab8
    2aba:	e7fe      	b.n	0x2aba
    2abc:	e7fe      	b.n	0x2abc
    2abe:	e7fe      	b.n	0x2abe
    2ac0:	e7fe      	b.n	0x2ac0
    2ac2:	e7fe      	b.n	0x2ac2
    2ac4:	e7fe      	b.n	0x2ac4
    2ac6:	e7fe      	b.n	0x2ac6
    2ac8:	e7fe      	b.n	0x2ac8
    2aca:	e7fe      	b.n	0x2aca
    2acc:	e7fe      	b.n	0x2acc
    2ace:	e7fe      	b.n	0x2ace
    2ad0:	e7fe      	b.n	0x2ad0
    2ad2:	e7fe      	b.n	0x2ad2
    2ad4:	e7fe      	b.n	0x2ad4
    2ad6:	e7fe      	b.n	0x2ad6
    2ad8:	e7fe      	b.n	0x2ad8
    2ada:	e7fe      	b.n	0x2ada
    2adc:	e7fe      	b.n	0x2adc
    2ade:	e7fe      	b.n	0x2ade
    2ae0:	e7fe      	b.n	0x2ae0
    2ae2:	e7fe      	b.n	0x2ae2
    2ae4:	e7fe      	b.n	0x2ae4
    2ae6:	e7fe      	b.n	0x2ae6
    2ae8:	e7fe      	b.n	0x2ae8
    2aea:	e7fe      	b.n	0x2aea
    2aec:	e7fe      	b.n	0x2aec
    2aee:	e7fe      	b.n	0x2aee
    2af0:	e7fe      	b.n	0x2af0
    2af2:	e7fe      	b.n	0x2af2
    2af4:	e7fe      	b.n	0x2af4
    2af6:	e7fe      	b.n	0x2af6
    2af8:	e7fe      	b.n	0x2af8
    2afa:	e7fe      	b.n	0x2afa
    2afc:	e7fe      	b.n	0x2afc
    2afe:	e7fe      	b.n	0x2afe
    2b00:	e7fe      	b.n	0x2b00
    2b02:	e7fe      	b.n	0x2b02
    2b04:	0460      	lsls	r0, r4, #17
    2b06:	2000      	movs	r0, #0
    2b08:	055e      	lsls	r6, r3, #21
    2b0a:	2000      	movs	r0, #0
    2b0c:	b580      	push	{r7, lr}
    2b0e:	af00      	add	r7, sp, #0
    2b10:	4a15      	ldr	r2, [pc, #84]	; (0x2b68)
    2b12:	4b15      	ldr	r3, [pc, #84]	; (0x2b68)
    2b14:	681b      	ldr	r3, [r3, #0]
    2b16:	f043 0301 	orr.w	r3, r3, #1
    2b1a:	6013      	str	r3, [r2, #0]
    2b1c:	4912      	ldr	r1, [pc, #72]	; (0x2b68)
    2b1e:	4b12      	ldr	r3, [pc, #72]	; (0x2b68)
    2b20:	685a      	ldr	r2, [r3, #4]
    2b22:	4b12      	ldr	r3, [pc, #72]	; (0x2b6c)
    2b24:	4013      	ands	r3, r2
    2b26:	604b      	str	r3, [r1, #4]
    2b28:	4a0f      	ldr	r2, [pc, #60]	; (0x2b68)
    2b2a:	4b0f      	ldr	r3, [pc, #60]	; (0x2b68)
    2b2c:	681b      	ldr	r3, [r3, #0]
    2b2e:	f023 7384 	bic.w	r3, r3, #17301504	; 0x1080000
    2b32:	f423 3380 	bic.w	r3, r3, #65536	; 0x10000
    2b36:	6013      	str	r3, [r2, #0]
    2b38:	4a0b      	ldr	r2, [pc, #44]	; (0x2b68)
    2b3a:	4b0b      	ldr	r3, [pc, #44]	; (0x2b68)
    2b3c:	681b      	ldr	r3, [r3, #0]
    2b3e:	f423 2380 	bic.w	r3, r3, #262144	; 0x40000
    2b42:	6013      	str	r3, [r2, #0]
    2b44:	4a08      	ldr	r2, [pc, #32]	; (0x2b68)
    2b46:	4b08      	ldr	r3, [pc, #32]	; (0x2b68)
    2b48:	685b      	ldr	r3, [r3, #4]
    2b4a:	f423 03fe 	bic.w	r3, r3, #8323072	; 0x7f0000
    2b4e:	6053      	str	r3, [r2, #4]
    2b50:	4b05      	ldr	r3, [pc, #20]	; (0x2b68)
    2b52:	f44f 021f 	mov.w	r2, #10420224	; 0x9f0000
    2b56:	609a      	str	r2, [r3, #8]
    2b58:	f000 f878 	bl	0x2c4c
    2b5c:	4b04      	ldr	r3, [pc, #16]	; (0x2b70)
    2b5e:	f04f 6200 	mov.w	r2, #134217728	; 0x8000000
    2b62:	609a      	str	r2, [r3, #8]
    2b64:	bf00      	nop
    2b66:	bd80      	pop	{r7, pc}
    2b68:	1000      	asrs	r0, r0, #32
    2b6a:	4002      	ands	r2, r0
    2b6c:	0000      	movs	r0, r0
    2b6e:	f8ff ed00 	ldr??.w	lr, [pc, #3328]	; 0x3870
    2b72:	e000      	b.n	0x2b76
    2b74:	b480      	push	{r7}
    2b76:	b085      	sub	sp, #20
    2b78:	af00      	add	r7, sp, #0
    2b7a:	2300      	movs	r3, #0
    2b7c:	60fb      	str	r3, [r7, #12]
    2b7e:	2300      	movs	r3, #0
    2b80:	60bb      	str	r3, [r7, #8]
    2b82:	2300      	movs	r3, #0
    2b84:	607b      	str	r3, [r7, #4]
    2b86:	4b2c      	ldr	r3, [pc, #176]	; (0x2c38)
    2b88:	685b      	ldr	r3, [r3, #4]
    2b8a:	f003 030c 	and.w	r3, r3, #12
    2b8e:	60fb      	str	r3, [r7, #12]
    2b90:	68fb      	ldr	r3, [r7, #12]
    2b92:	2b04      	cmp	r3, #4
    2b94:	d007      	beq.n	0x2ba6
    2b96:	2b08      	cmp	r3, #8
    2b98:	d009      	beq.n	0x2bae
    2b9a:	2b00      	cmp	r3, #0
    2b9c:	d133      	bne.n	0x2c06
    2b9e:	4b27      	ldr	r3, [pc, #156]	; (0x2c3c)
    2ba0:	4a27      	ldr	r2, [pc, #156]	; (0x2c40)
    2ba2:	601a      	str	r2, [r3, #0]
    2ba4:	e033      	b.n	0x2c0e
    2ba6:	4b25      	ldr	r3, [pc, #148]	; (0x2c3c)
    2ba8:	4a25      	ldr	r2, [pc, #148]	; (0x2c40)
    2baa:	601a      	str	r2, [r3, #0]
    2bac:	e02f      	b.n	0x2c0e
    2bae:	4b22      	ldr	r3, [pc, #136]	; (0x2c38)
    2bb0:	685b      	ldr	r3, [r3, #4]
    2bb2:	f403 1370 	and.w	r3, r3, #3932160	; 0x3c0000
    2bb6:	60bb      	str	r3, [r7, #8]
    2bb8:	4b1f      	ldr	r3, [pc, #124]	; (0x2c38)
    2bba:	685b      	ldr	r3, [r3, #4]
    2bbc:	f403 3380 	and.w	r3, r3, #65536	; 0x10000
    2bc0:	607b      	str	r3, [r7, #4]
    2bc2:	68bb      	ldr	r3, [r7, #8]
    2bc4:	0c9b      	lsrs	r3, r3, #18
    2bc6:	3302      	adds	r3, #2
    2bc8:	60bb      	str	r3, [r7, #8]
    2bca:	687b      	ldr	r3, [r7, #4]
    2bcc:	2b00      	cmp	r3, #0
    2bce:	d106      	bne.n	0x2bde
    2bd0:	68bb      	ldr	r3, [r7, #8]
    2bd2:	4a1c      	ldr	r2, [pc, #112]	; (0x2c44)
    2bd4:	fb02 f303 	mul.w	r3, r2, r3
    2bd8:	4a18      	ldr	r2, [pc, #96]	; (0x2c3c)
    2bda:	6013      	str	r3, [r2, #0]
    2bdc:	e017      	b.n	0x2c0e
    2bde:	4b16      	ldr	r3, [pc, #88]	; (0x2c38)
    2be0:	685b      	ldr	r3, [r3, #4]
    2be2:	f403 3300 	and.w	r3, r3, #131072	; 0x20000
    2be6:	2b00      	cmp	r3, #0
    2be8:	d006      	beq.n	0x2bf8
    2bea:	68bb      	ldr	r3, [r7, #8]
    2bec:	4a15      	ldr	r2, [pc, #84]	; (0x2c44)
    2bee:	fb02 f303 	mul.w	r3, r2, r3
    2bf2:	4a12      	ldr	r2, [pc, #72]	; (0x2c3c)
    2bf4:	6013      	str	r3, [r2, #0]
    2bf6:	e00a      	b.n	0x2c0e
    2bf8:	68bb      	ldr	r3, [r7, #8]
    2bfa:	4a11      	ldr	r2, [pc, #68]	; (0x2c40)
    2bfc:	fb02 f303 	mul.w	r3, r2, r3
    2c00:	4a0e      	ldr	r2, [pc, #56]	; (0x2c3c)
    2c02:	6013      	str	r3, [r2, #0]
    2c04:	e003      	b.n	0x2c0e
    2c06:	4b0d      	ldr	r3, [pc, #52]	; (0x2c3c)
    2c08:	4a0d      	ldr	r2, [pc, #52]	; (0x2c40)
    2c0a:	601a      	str	r2, [r3, #0]
    2c0c:	bf00      	nop
    2c0e:	4b0a      	ldr	r3, [pc, #40]	; (0x2c38)
    2c10:	685b      	ldr	r3, [r3, #4]
    2c12:	f003 03f0 	and.w	r3, r3, #240	; 0xf0
    2c16:	091b      	lsrs	r3, r3, #4
    2c18:	4a0b      	ldr	r2, [pc, #44]	; (0x2c48)
    2c1a:	5cd3      	ldrb	r3, [r2, r3]
    2c1c:	b2db      	uxtb	r3, r3
    2c1e:	60fb      	str	r3, [r7, #12]
    2c20:	4b06      	ldr	r3, [pc, #24]	; (0x2c3c)
    2c22:	681a      	ldr	r2, [r3, #0]
    2c24:	68fb      	ldr	r3, [r7, #12]
    2c26:	fa22 f303 	lsr.w	r3, r2, r3
    2c2a:	4a04      	ldr	r2, [pc, #16]	; (0x2c3c)
    2c2c:	6013      	str	r3, [r2, #0]
    2c2e:	bf00      	nop
    2c30:	3714      	adds	r7, #20
    2c32:	46bd      	mov	sp, r7
    2c34:	bc80      	pop	{r7}
    2c36:	4770      	bx	lr
    2c38:	1000      	asrs	r0, r0, #32
    2c3a:	4002      	ands	r2, r0
    2c3c:	0014      	movs	r4, r2
    2c3e:	2000      	movs	r0, #0
    2c40:	1200      	asrs	r0, r0, #8
    2c42:	007a      	lsls	r2, r7, #1
    2c44:	0900      	lsrs	r0, r0, #4
    2c46:	003d      	movs	r5, r7
    2c48:	0018      	movs	r0, r3
    2c4a:	2000      	movs	r0, #0
    2c4c:	b580      	push	{r7, lr}
    2c4e:	af00      	add	r7, sp, #0
    2c50:	f000 f802 	bl	0x2c58
    2c54:	bf00      	nop
    2c56:	bd80      	pop	{r7, pc}
    2c58:	b480      	push	{r7}
    2c5a:	b083      	sub	sp, #12
    2c5c:	af00      	add	r7, sp, #0
    2c5e:	2300      	movs	r3, #0
    2c60:	607b      	str	r3, [r7, #4]
    2c62:	2300      	movs	r3, #0
    2c64:	603b      	str	r3, [r7, #0]
    2c66:	4a3a      	ldr	r2, [pc, #232]	; (0x2d50)
    2c68:	4b39      	ldr	r3, [pc, #228]	; (0x2d50)
    2c6a:	681b      	ldr	r3, [r3, #0]
    2c6c:	f443 3380 	orr.w	r3, r3, #65536	; 0x10000
    2c70:	6013      	str	r3, [r2, #0]
    2c72:	4b37      	ldr	r3, [pc, #220]	; (0x2d50)
    2c74:	681b      	ldr	r3, [r3, #0]
    2c76:	f403 3300 	and.w	r3, r3, #131072	; 0x20000
    2c7a:	603b      	str	r3, [r7, #0]
    2c7c:	687b      	ldr	r3, [r7, #4]
    2c7e:	3301      	adds	r3, #1
    2c80:	607b      	str	r3, [r7, #4]
    2c82:	683b      	ldr	r3, [r7, #0]
    2c84:	2b00      	cmp	r3, #0
    2c86:	d103      	bne.n	0x2c90
    2c88:	687b      	ldr	r3, [r7, #4]
    2c8a:	f5b3 6fa0 	cmp.w	r3, #1280	; 0x500
    2c8e:	d1f0      	bne.n	0x2c72
    2c90:	4b2f      	ldr	r3, [pc, #188]	; (0x2d50)
    2c92:	681b      	ldr	r3, [r3, #0]
    2c94:	f403 3300 	and.w	r3, r3, #131072	; 0x20000
    2c98:	2b00      	cmp	r3, #0
    2c9a:	d002      	beq.n	0x2ca2
    2c9c:	2301      	movs	r3, #1
    2c9e:	603b      	str	r3, [r7, #0]
    2ca0:	e001      	b.n	0x2ca6
    2ca2:	2300      	movs	r3, #0
    2ca4:	603b      	str	r3, [r7, #0]
    2ca6:	683b      	ldr	r3, [r7, #0]
    2ca8:	2b01      	cmp	r3, #1
    2caa:	d14b      	bne.n	0x2d44
    2cac:	4a29      	ldr	r2, [pc, #164]	; (0x2d54)
    2cae:	4b29      	ldr	r3, [pc, #164]	; (0x2d54)
    2cb0:	681b      	ldr	r3, [r3, #0]
    2cb2:	f043 0310 	orr.w	r3, r3, #16
    2cb6:	6013      	str	r3, [r2, #0]
    2cb8:	4a26      	ldr	r2, [pc, #152]	; (0x2d54)
    2cba:	4b26      	ldr	r3, [pc, #152]	; (0x2d54)
    2cbc:	681b      	ldr	r3, [r3, #0]
    2cbe:	f023 0303 	bic.w	r3, r3, #3
    2cc2:	6013      	str	r3, [r2, #0]
    2cc4:	4a23      	ldr	r2, [pc, #140]	; (0x2d54)
    2cc6:	4b23      	ldr	r3, [pc, #140]	; (0x2d54)
    2cc8:	681b      	ldr	r3, [r3, #0]
    2cca:	f043 0302 	orr.w	r3, r3, #2
    2cce:	6013      	str	r3, [r2, #0]
    2cd0:	4a1f      	ldr	r2, [pc, #124]	; (0x2d50)
    2cd2:	4b1f      	ldr	r3, [pc, #124]	; (0x2d50)
    2cd4:	685b      	ldr	r3, [r3, #4]
    2cd6:	6053      	str	r3, [r2, #4]
    2cd8:	4a1d      	ldr	r2, [pc, #116]	; (0x2d50)
    2cda:	4b1d      	ldr	r3, [pc, #116]	; (0x2d50)
    2cdc:	685b      	ldr	r3, [r3, #4]
    2cde:	6053      	str	r3, [r2, #4]
    2ce0:	4a1b      	ldr	r2, [pc, #108]	; (0x2d50)
    2ce2:	4b1b      	ldr	r3, [pc, #108]	; (0x2d50)
    2ce4:	685b      	ldr	r3, [r3, #4]
    2ce6:	f443 6380 	orr.w	r3, r3, #1024	; 0x400
    2cea:	6053      	str	r3, [r2, #4]
    2cec:	4a18      	ldr	r2, [pc, #96]	; (0x2d50)
    2cee:	4b18      	ldr	r3, [pc, #96]	; (0x2d50)
    2cf0:	685b      	ldr	r3, [r3, #4]
    2cf2:	f423 137c 	bic.w	r3, r3, #4128768	; 0x3f0000
    2cf6:	6053      	str	r3, [r2, #4]
    2cf8:	4a15      	ldr	r2, [pc, #84]	; (0x2d50)
    2cfa:	4b15      	ldr	r3, [pc, #84]	; (0x2d50)
    2cfc:	685b      	ldr	r3, [r3, #4]
    2cfe:	f443 13e8 	orr.w	r3, r3, #1900544	; 0x1d0000
    2d02:	6053      	str	r3, [r2, #4]
    2d04:	4a12      	ldr	r2, [pc, #72]	; (0x2d50)
    2d06:	4b12      	ldr	r3, [pc, #72]	; (0x2d50)
    2d08:	681b      	ldr	r3, [r3, #0]
    2d0a:	f043 7380 	orr.w	r3, r3, #16777216	; 0x1000000
    2d0e:	6013      	str	r3, [r2, #0]
    2d10:	bf00      	nop
    2d12:	4b0f      	ldr	r3, [pc, #60]	; (0x2d50)
    2d14:	681b      	ldr	r3, [r3, #0]
    2d16:	f003 7300 	and.w	r3, r3, #33554432	; 0x2000000
    2d1a:	2b00      	cmp	r3, #0
    2d1c:	d0f9      	beq.n	0x2d12
    2d1e:	4a0c      	ldr	r2, [pc, #48]	; (0x2d50)
    2d20:	4b0b      	ldr	r3, [pc, #44]	; (0x2d50)
    2d22:	685b      	ldr	r3, [r3, #4]
    2d24:	f023 0303 	bic.w	r3, r3, #3
    2d28:	6053      	str	r3, [r2, #4]
    2d2a:	4a09      	ldr	r2, [pc, #36]	; (0x2d50)
    2d2c:	4b08      	ldr	r3, [pc, #32]	; (0x2d50)
    2d2e:	685b      	ldr	r3, [r3, #4]
    2d30:	f043 0302 	orr.w	r3, r3, #2
    2d34:	6053      	str	r3, [r2, #4]
    2d36:	bf00      	nop
    2d38:	4b05      	ldr	r3, [pc, #20]	; (0x2d50)
    2d3a:	685b      	ldr	r3, [r3, #4]
    2d3c:	f003 030c 	and.w	r3, r3, #12
    2d40:	2b08      	cmp	r3, #8
    2d42:	d1f9      	bne.n	0x2d38
    2d44:	bf00      	nop
    2d46:	370c      	adds	r7, #12
    2d48:	46bd      	mov	sp, r7
    2d4a:	bc80      	pop	{r7}
    2d4c:	4770      	bx	lr
    2d4e:	bf00      	nop
    2d50:	1000      	asrs	r0, r0, #32
    2d52:	4002      	ands	r2, r0
    2d54:	2000      	movs	r0, #0
    2d56:	4002      	ands	r2, r0
    2d58:	f081 4100 	eor.w	r1, r1, #2147483648	; 0x80000000
    2d5c:	e002      	b.n	0x2d64
    2d5e:	bf00      	nop
    2d60:	f083 4300 	eor.w	r3, r3, #2147483648	; 0x80000000
    2d64:	b530      	push	{r4, r5, lr}
    2d66:	ea4f 0441 	mov.w	r4, r1, lsl #1
    2d6a:	ea4f 0543 	mov.w	r5, r3, lsl #1
    2d6e:	ea94 0f05 	teq	r4, r5
    2d72:	bf08      	it	eq
    2d74:	ea90 0f02 	teqeq	r0, r2
    2d78:	bf1f      	itttt	ne
    2d7a:	ea54 0c00 	orrsne.w	ip, r4, r0
    2d7e:	ea55 0c02 	orrsne.w	ip, r5, r2
    2d82:	ea7f 5c64 	mvnsne.w	ip, r4, asr #21
    2d86:	ea7f 5c65 	mvnsne.w	ip, r5, asr #21
    2d8a:	f000 80e2 	beq.w	0x2f52
    2d8e:	ea4f 5454 	mov.w	r4, r4, lsr #21
    2d92:	ebd4 5555 	rsbs	r5, r4, r5, lsr #21
    2d96:	bfb8      	it	lt
    2d98:	426d      	neglt	r5, r5
    2d9a:	dd0c      	ble.n	0x2db6
    2d9c:	442c      	add	r4, r5
    2d9e:	ea80 0202 	eor.w	r2, r0, r2
    2da2:	ea81 0303 	eor.w	r3, r1, r3
    2da6:	ea82 0000 	eor.w	r0, r2, r0
    2daa:	ea83 0101 	eor.w	r1, r3, r1
    2dae:	ea80 0202 	eor.w	r2, r0, r2
    2db2:	ea81 0303 	eor.w	r3, r1, r3
    2db6:	2d36      	cmp	r5, #54	; 0x36
    2db8:	bf88      	it	hi
    2dba:	bd30      	pophi	{r4, r5, pc}
    2dbc:	f011 4f00 	tst.w	r1, #2147483648	; 0x80000000
    2dc0:	ea4f 3101 	mov.w	r1, r1, lsl #12
    2dc4:	f44f 1c80 	mov.w	ip, #1048576	; 0x100000
    2dc8:	ea4c 3111 	orr.w	r1, ip, r1, lsr #12
    2dcc:	d002      	beq.n	0x2dd4
    2dce:	4240      	negs	r0, r0
    2dd0:	eb61 0141 	sbc.w	r1, r1, r1, lsl #1
    2dd4:	f013 4f00 	tst.w	r3, #2147483648	; 0x80000000
    2dd8:	ea4f 3303 	mov.w	r3, r3, lsl #12
    2ddc:	ea4c 3313 	orr.w	r3, ip, r3, lsr #12
    2de0:	d002      	beq.n	0x2de8
    2de2:	4252      	negs	r2, r2
    2de4:	eb63 0343 	sbc.w	r3, r3, r3, lsl #1
    2de8:	ea94 0f05 	teq	r4, r5
    2dec:	f000 80a7 	beq.w	0x2f3e
    2df0:	f1a4 0401 	sub.w	r4, r4, #1
    2df4:	f1d5 0e20 	rsbs	lr, r5, #32
    2df8:	db0d      	blt.n	0x2e16
    2dfa:	fa02 fc0e 	lsl.w	ip, r2, lr
    2dfe:	fa22 f205 	lsr.w	r2, r2, r5
    2e02:	1880      	adds	r0, r0, r2
    2e04:	f141 0100 	adc.w	r1, r1, #0
    2e08:	fa03 f20e 	lsl.w	r2, r3, lr
    2e0c:	1880      	adds	r0, r0, r2
    2e0e:	fa43 f305 	asr.w	r3, r3, r5
    2e12:	4159      	adcs	r1, r3
    2e14:	e00e      	b.n	0x2e34
    2e16:	f1a5 0520 	sub.w	r5, r5, #32
    2e1a:	f10e 0e20 	add.w	lr, lr, #32
    2e1e:	2a01      	cmp	r2, #1
    2e20:	fa03 fc0e 	lsl.w	ip, r3, lr
    2e24:	bf28      	it	cs
    2e26:	f04c 0c02 	orrcs.w	ip, ip, #2
    2e2a:	fa43 f305 	asr.w	r3, r3, r5
    2e2e:	18c0      	adds	r0, r0, r3
    2e30:	eb51 71e3 	adcs.w	r1, r1, r3, asr #31
    2e34:	f001 4500 	and.w	r5, r1, #2147483648	; 0x80000000
    2e38:	d507      	bpl.n	0x2e4a
    2e3a:	f04f 0e00 	mov.w	lr, #0
    2e3e:	f1dc 0c00 	rsbs	ip, ip, #0
    2e42:	eb7e 0000 	sbcs.w	r0, lr, r0
    2e46:	eb6e 0101 	sbc.w	r1, lr, r1
    2e4a:	f5b1 1f80 	cmp.w	r1, #1048576	; 0x100000
    2e4e:	d31b      	bcc.n	0x2e88
    2e50:	f5b1 1f00 	cmp.w	r1, #2097152	; 0x200000
    2e54:	d30c      	bcc.n	0x2e70
    2e56:	0849      	lsrs	r1, r1, #1
    2e58:	ea5f 0030 	movs.w	r0, r0, rrx
    2e5c:	ea4f 0c3c 	mov.w	ip, ip, rrx
    2e60:	f104 0401 	add.w	r4, r4, #1
    2e64:	ea4f 5244 	mov.w	r2, r4, lsl #21
    2e68:	f512 0f80 	cmn.w	r2, #4194304	; 0x400000
    2e6c:	f080 809a 	bcs.w	0x2fa4
    2e70:	f1bc 4f00 	cmp.w	ip, #2147483648	; 0x80000000
    2e74:	bf08      	it	eq
    2e76:	ea5f 0c50 	movseq.w	ip, r0, lsr #1
    2e7a:	f150 0000 	adcs.w	r0, r0, #0
    2e7e:	eb41 5104 	adc.w	r1, r1, r4, lsl #20
    2e82:	ea41 0105 	orr.w	r1, r1, r5
    2e86:	bd30      	pop	{r4, r5, pc}
    2e88:	ea5f 0c4c 	movs.w	ip, ip, lsl #1
    2e8c:	4140      	adcs	r0, r0
    2e8e:	eb41 0101 	adc.w	r1, r1, r1
    2e92:	f411 1f80 	tst.w	r1, #1048576	; 0x100000
    2e96:	f1a4 0401 	sub.w	r4, r4, #1
    2e9a:	d1e9      	bne.n	0x2e70
    2e9c:	f091 0f00 	teq	r1, #0
    2ea0:	bf04      	itt	eq
    2ea2:	4601      	moveq	r1, r0
    2ea4:	2000      	moveq	r0, #0
    2ea6:	fab1 f381 	clz	r3, r1
    2eaa:	bf08      	it	eq
    2eac:	3320      	addeq	r3, #32
    2eae:	f1a3 030b 	sub.w	r3, r3, #11
    2eb2:	f1b3 0220 	subs.w	r2, r3, #32
    2eb6:	da0c      	bge.n	0x2ed2
    2eb8:	320c      	adds	r2, #12
    2eba:	dd08      	ble.n	0x2ece
    2ebc:	f102 0c14 	add.w	ip, r2, #20
    2ec0:	f1c2 020c 	rsb	r2, r2, #12
    2ec4:	fa01 f00c 	lsl.w	r0, r1, ip
    2ec8:	fa21 f102 	lsr.w	r1, r1, r2
    2ecc:	e00c      	b.n	0x2ee8
    2ece:	f102 0214 	add.w	r2, r2, #20
    2ed2:	bfd8      	it	le
    2ed4:	f1c2 0c20 	rsble	ip, r2, #32
    2ed8:	fa01 f102 	lsl.w	r1, r1, r2
    2edc:	fa20 fc0c 	lsr.w	ip, r0, ip
    2ee0:	bfdc      	itt	le
    2ee2:	ea41 010c 	orrle.w	r1, r1, ip
    2ee6:	4090      	lslle	r0, r2
    2ee8:	1ae4      	subs	r4, r4, r3
    2eea:	bfa2      	ittt	ge
    2eec:	eb01 5104 	addge.w	r1, r1, r4, lsl #20
    2ef0:	4329      	orrge	r1, r5
    2ef2:	bd30      	popge	{r4, r5, pc}
    2ef4:	ea6f 0404 	mvn.w	r4, r4
    2ef8:	3c1f      	subs	r4, #31
    2efa:	da1c      	bge.n	0x2f36
    2efc:	340c      	adds	r4, #12
    2efe:	dc0e      	bgt.n	0x2f1e
    2f00:	f104 0414 	add.w	r4, r4, #20
    2f04:	f1c4 0220 	rsb	r2, r4, #32
    2f08:	fa20 f004 	lsr.w	r0, r0, r4
    2f0c:	fa01 f302 	lsl.w	r3, r1, r2
    2f10:	ea40 0003 	orr.w	r0, r0, r3
    2f14:	fa21 f304 	lsr.w	r3, r1, r4
    2f18:	ea45 0103 	orr.w	r1, r5, r3
    2f1c:	bd30      	pop	{r4, r5, pc}
    2f1e:	f1c4 040c 	rsb	r4, r4, #12
    2f22:	f1c4 0220 	rsb	r2, r4, #32
    2f26:	fa20 f002 	lsr.w	r0, r0, r2
    2f2a:	fa01 f304 	lsl.w	r3, r1, r4
    2f2e:	ea40 0003 	orr.w	r0, r0, r3
    2f32:	4629      	mov	r1, r5
    2f34:	bd30      	pop	{r4, r5, pc}
    2f36:	fa21 f004 	lsr.w	r0, r1, r4
    2f3a:	4629      	mov	r1, r5
    2f3c:	bd30      	pop	{r4, r5, pc}
    2f3e:	f094 0f00 	teq	r4, #0
    2f42:	f483 1380 	eor.w	r3, r3, #1048576	; 0x100000
    2f46:	bf06      	itte	eq
    2f48:	f481 1180 	eoreq.w	r1, r1, #1048576	; 0x100000
    2f4c:	3401      	addeq	r4, #1
    2f4e:	3d01      	subne	r5, #1
    2f50:	e74e      	b.n	0x2df0
    2f52:	ea7f 5c64 	mvns.w	ip, r4, asr #21
    2f56:	bf18      	it	ne
    2f58:	ea7f 5c65 	mvnsne.w	ip, r5, asr #21
    2f5c:	d029      	beq.n	0x2fb2
    2f5e:	ea94 0f05 	teq	r4, r5
    2f62:	bf08      	it	eq
    2f64:	ea90 0f02 	teqeq	r0, r2
    2f68:	d005      	beq.n	0x2f76
    2f6a:	ea54 0c00 	orrs.w	ip, r4, r0
    2f6e:	bf04      	itt	eq
    2f70:	4619      	moveq	r1, r3
    2f72:	4610      	moveq	r0, r2
    2f74:	bd30      	pop	{r4, r5, pc}
    2f76:	ea91 0f03 	teq	r1, r3
    2f7a:	bf1e      	ittt	ne
    2f7c:	2100      	movne	r1, #0
    2f7e:	2000      	movne	r0, #0
    2f80:	bd30      	popne	{r4, r5, pc}
    2f82:	ea5f 5c54 	movs.w	ip, r4, lsr #21
    2f86:	d105      	bne.n	0x2f94
    2f88:	0040      	lsls	r0, r0, #1
    2f8a:	4149      	adcs	r1, r1
    2f8c:	bf28      	it	cs
    2f8e:	f041 4100 	orrcs.w	r1, r1, #2147483648	; 0x80000000
    2f92:	bd30      	pop	{r4, r5, pc}
    2f94:	f514 0480 	adds.w	r4, r4, #4194304	; 0x400000
    2f98:	bf3c      	itt	cc
    2f9a:	f501 1180 	addcc.w	r1, r1, #1048576	; 0x100000
    2f9e:	bd30      	popcc	{r4, r5, pc}
    2fa0:	f001 4500 	and.w	r5, r1, #2147483648	; 0x80000000
    2fa4:	f045 41fe 	orr.w	r1, r5, #2130706432	; 0x7f000000
    2fa8:	f441 0170 	orr.w	r1, r1, #15728640	; 0xf00000
    2fac:	f04f 0000 	mov.w	r0, #0
    2fb0:	bd30      	pop	{r4, r5, pc}
    2fb2:	ea7f 5c64 	mvns.w	ip, r4, asr #21
    2fb6:	bf1a      	itte	ne
    2fb8:	4619      	movne	r1, r3
    2fba:	4610      	movne	r0, r2
    2fbc:	ea7f 5c65 	mvnseq.w	ip, r5, asr #21
    2fc0:	bf1c      	itt	ne
    2fc2:	460b      	movne	r3, r1
    2fc4:	4602      	movne	r2, r0
    2fc6:	ea50 3401 	orrs.w	r4, r0, r1, lsl #12
    2fca:	bf06      	itte	eq
    2fcc:	ea52 3503 	orrseq.w	r5, r2, r3, lsl #12
    2fd0:	ea91 0f03 	teqeq	r1, r3
    2fd4:	f441 2100 	orrne.w	r1, r1, #524288	; 0x80000
    2fd8:	bd30      	pop	{r4, r5, pc}
    2fda:	bf00      	nop
    2fdc:	f090 0f00 	teq	r0, #0
    2fe0:	bf04      	itt	eq
    2fe2:	2100      	moveq	r1, #0
    2fe4:	4770      	bxeq	lr
    2fe6:	b530      	push	{r4, r5, lr}
    2fe8:	f44f 6480 	mov.w	r4, #1024	; 0x400
    2fec:	f104 0432 	add.w	r4, r4, #50	; 0x32
    2ff0:	f04f 0500 	mov.w	r5, #0
    2ff4:	f04f 0100 	mov.w	r1, #0
    2ff8:	e750      	b.n	0x2e9c
    2ffa:	bf00      	nop
    2ffc:	f090 0f00 	teq	r0, #0
    3000:	bf04      	itt	eq
    3002:	2100      	moveq	r1, #0
    3004:	4770      	bxeq	lr
    3006:	b530      	push	{r4, r5, lr}
    3008:	f44f 6480 	mov.w	r4, #1024	; 0x400
    300c:	f104 0432 	add.w	r4, r4, #50	; 0x32
    3010:	f010 4500 	ands.w	r5, r0, #2147483648	; 0x80000000
    3014:	bf48      	it	mi
    3016:	4240      	negmi	r0, r0
    3018:	f04f 0100 	mov.w	r1, #0
    301c:	e73e      	b.n	0x2e9c
    301e:	bf00      	nop
    3020:	0042      	lsls	r2, r0, #1
    3022:	ea4f 01e2 	mov.w	r1, r2, asr #3
    3026:	ea4f 0131 	mov.w	r1, r1, rrx
    302a:	ea4f 7002 	mov.w	r0, r2, lsl #28
    302e:	bf1f      	itttt	ne
    3030:	f012 437f 	andsne.w	r3, r2, #4278190080	; 0xff000000
    3034:	f093 4f7f 	teqne	r3, #4278190080	; 0xff000000
    3038:	f081 5160 	eorne.w	r1, r1, #939524096	; 0x38000000
    303c:	4770      	bxne	lr
    303e:	f092 0f00 	teq	r2, #0
    3042:	bf14      	ite	ne
    3044:	f093 4f7f 	teqne	r3, #4278190080	; 0xff000000
    3048:	4770      	bxeq	lr
    304a:	b530      	push	{r4, r5, lr}
    304c:	f44f 7460 	mov.w	r4, #896	; 0x380
    3050:	f001 4500 	and.w	r5, r1, #2147483648	; 0x80000000
    3054:	f021 4100 	bic.w	r1, r1, #2147483648	; 0x80000000
    3058:	e720      	b.n	0x2e9c
    305a:	bf00      	nop
    305c:	ea50 0201 	orrs.w	r2, r0, r1
    3060:	bf08      	it	eq
    3062:	4770      	bxeq	lr
    3064:	b530      	push	{r4, r5, lr}
    3066:	f04f 0500 	mov.w	r5, #0
    306a:	e00a      	b.n	0x3082
    306c:	ea50 0201 	orrs.w	r2, r0, r1
    3070:	bf08      	it	eq
    3072:	4770      	bxeq	lr
    3074:	b530      	push	{r4, r5, lr}
    3076:	f011 4500 	ands.w	r5, r1, #2147483648	; 0x80000000
    307a:	d502      	bpl.n	0x3082
    307c:	4240      	negs	r0, r0
    307e:	eb61 0141 	sbc.w	r1, r1, r1, lsl #1
    3082:	f44f 6480 	mov.w	r4, #1024	; 0x400
    3086:	f104 0432 	add.w	r4, r4, #50	; 0x32
    308a:	ea5f 5c91 	movs.w	ip, r1, lsr #22
    308e:	f43f aedc 	beq.w	0x2e4a
    3092:	f04f 0203 	mov.w	r2, #3
    3096:	ea5f 0cdc 	movs.w	ip, ip, lsr #3
    309a:	bf18      	it	ne
    309c:	3203      	addne	r2, #3
    309e:	ea5f 0cdc 	movs.w	ip, ip, lsr #3
    30a2:	bf18      	it	ne
    30a4:	3203      	addne	r2, #3
    30a6:	eb02 02dc 	add.w	r2, r2, ip, lsr #3
    30aa:	f1c2 0320 	rsb	r3, r2, #32
    30ae:	fa00 fc03 	lsl.w	ip, r0, r3
    30b2:	fa20 f002 	lsr.w	r0, r0, r2
    30b6:	fa01 fe03 	lsl.w	lr, r1, r3
    30ba:	ea40 000e 	orr.w	r0, r0, lr
    30be:	fa21 f102 	lsr.w	r1, r1, r2
    30c2:	4414      	add	r4, r2
    30c4:	e6c1      	b.n	0x2e4a
    30c6:	bf00      	nop
    30c8:	ea4f 0241 	mov.w	r2, r1, lsl #1
    30cc:	f512 1200 	adds.w	r2, r2, #2097152	; 0x200000
    30d0:	d215      	bcs.n	0x30fe
    30d2:	d511      	bpl.n	0x30f8
    30d4:	f46f 7378 	mvn.w	r3, #992	; 0x3e0
    30d8:	ebb3 5262 	subs.w	r2, r3, r2, asr #21
    30dc:	d912      	bls.n	0x3104
    30de:	ea4f 23c1 	mov.w	r3, r1, lsl #11
    30e2:	f043 4300 	orr.w	r3, r3, #2147483648	; 0x80000000
    30e6:	ea43 5350 	orr.w	r3, r3, r0, lsr #21
    30ea:	f011 4f00 	tst.w	r1, #2147483648	; 0x80000000
    30ee:	fa23 f002 	lsr.w	r0, r3, r2
    30f2:	bf18      	it	ne
    30f4:	4240      	negne	r0, r0
    30f6:	4770      	bx	lr
    30f8:	f04f 0000 	mov.w	r0, #0
    30fc:	4770      	bx	lr
    30fe:	ea50 3001 	orrs.w	r0, r0, r1, lsl #12
    3102:	d105      	bne.n	0x3110
    3104:	f011 4000 	ands.w	r0, r1, #2147483648	; 0x80000000
    3108:	bf08      	it	eq
    310a:	f06f 4000 	mvneq.w	r0, #2147483648	; 0x80000000
    310e:	4770      	bx	lr
    3110:	f04f 0000 	mov.w	r0, #0
    3114:	4770      	bx	lr
    3116:	bf00      	nop
    3118:	f080 4000 	eor.w	r0, r0, #2147483648	; 0x80000000
    311c:	e002      	b.n	0x3124
    311e:	bf00      	nop
    3120:	f081 4100 	eor.w	r1, r1, #2147483648	; 0x80000000
    3124:	0042      	lsls	r2, r0, #1
    3126:	bf1f      	itttt	ne
    3128:	ea5f 0341 	movsne.w	r3, r1, lsl #1
    312c:	ea92 0f03 	teqne	r2, r3
    3130:	ea7f 6c22 	mvnsne.w	ip, r2, asr #24
    3134:	ea7f 6c23 	mvnsne.w	ip, r3, asr #24
    3138:	d06a      	beq.n	0x3210
    313a:	ea4f 6212 	mov.w	r2, r2, lsr #24
    313e:	ebd2 6313 	rsbs	r3, r2, r3, lsr #24
    3142:	bfc1      	itttt	gt
    3144:	18d2      	addgt	r2, r2, r3
    3146:	4041      	eorgt	r1, r0
    3148:	4048      	eorgt	r0, r1
    314a:	4041      	eorgt	r1, r0
    314c:	bfb8      	it	lt
    314e:	425b      	neglt	r3, r3
    3150:	2b19      	cmp	r3, #25
    3152:	bf88      	it	hi
    3154:	4770      	bxhi	lr
    3156:	f010 4f00 	tst.w	r0, #2147483648	; 0x80000000
    315a:	f440 0000 	orr.w	r0, r0, #8388608	; 0x800000
    315e:	f020 407f 	bic.w	r0, r0, #4278190080	; 0xff000000
    3162:	bf18      	it	ne
    3164:	4240      	negne	r0, r0
    3166:	f011 4f00 	tst.w	r1, #2147483648	; 0x80000000
    316a:	f441 0100 	orr.w	r1, r1, #8388608	; 0x800000
    316e:	f021 417f 	bic.w	r1, r1, #4278190080	; 0xff000000
    3172:	bf18      	it	ne
    3174:	4249      	negne	r1, r1
    3176:	ea92 0f03 	teq	r2, r3
    317a:	d03f      	beq.n	0x31fc
    317c:	f1a2 0201 	sub.w	r2, r2, #1
    3180:	fa41 fc03 	asr.w	ip, r1, r3
    3184:	eb10 000c 	adds.w	r0, r0, ip
    3188:	f1c3 0320 	rsb	r3, r3, #32
    318c:	fa01 f103 	lsl.w	r1, r1, r3
    3190:	f000 4300 	and.w	r3, r0, #2147483648	; 0x80000000
    3194:	d502      	bpl.n	0x319c
    3196:	4249      	negs	r1, r1
    3198:	eb60 0040 	sbc.w	r0, r0, r0, lsl #1
    319c:	f5b0 0f00 	cmp.w	r0, #8388608	; 0x800000
    31a0:	d313      	bcc.n	0x31ca
    31a2:	f1b0 7f80 	cmp.w	r0, #16777216	; 0x1000000
    31a6:	d306      	bcc.n	0x31b6
    31a8:	0840      	lsrs	r0, r0, #1
    31aa:	ea4f 0131 	mov.w	r1, r1, rrx
    31ae:	f102 0201 	add.w	r2, r2, #1
    31b2:	2afe      	cmp	r2, #254	; 0xfe
    31b4:	d251      	bcs.n	0x325a
    31b6:	f1b1 4f00 	cmp.w	r1, #2147483648	; 0x80000000
    31ba:	eb40 50c2 	adc.w	r0, r0, r2, lsl #23
    31be:	bf08      	it	eq
    31c0:	f020 0001 	biceq.w	r0, r0, #1
    31c4:	ea40 0003 	orr.w	r0, r0, r3
    31c8:	4770      	bx	lr
    31ca:	0049      	lsls	r1, r1, #1
    31cc:	eb40 0000 	adc.w	r0, r0, r0
    31d0:	f410 0f00 	tst.w	r0, #8388608	; 0x800000
    31d4:	f1a2 0201 	sub.w	r2, r2, #1
    31d8:	d1ed      	bne.n	0x31b6
    31da:	fab0 fc80 	clz	ip, r0
    31de:	f1ac 0c08 	sub.w	ip, ip, #8
    31e2:	ebb2 020c 	subs.w	r2, r2, ip
    31e6:	fa00 f00c 	lsl.w	r0, r0, ip
    31ea:	bfaa      	itet	ge
    31ec:	eb00 50c2 	addge.w	r0, r0, r2, lsl #23
    31f0:	4252      	neglt	r2, r2
    31f2:	4318      	orrge	r0, r3
    31f4:	bfbc      	itt	lt
    31f6:	40d0      	lsrlt	r0, r2
    31f8:	4318      	orrlt	r0, r3
    31fa:	4770      	bx	lr
    31fc:	f092 0f00 	teq	r2, #0
    3200:	f481 0100 	eor.w	r1, r1, #8388608	; 0x800000
    3204:	bf06      	itte	eq
    3206:	f480 0000 	eoreq.w	r0, r0, #8388608	; 0x800000
    320a:	3201      	addeq	r2, #1
    320c:	3b01      	subne	r3, #1
    320e:	e7b5      	b.n	0x317c
    3210:	ea4f 0341 	mov.w	r3, r1, lsl #1
    3214:	ea7f 6c22 	mvns.w	ip, r2, asr #24
    3218:	bf18      	it	ne
    321a:	ea7f 6c23 	mvnsne.w	ip, r3, asr #24
    321e:	d021      	beq.n	0x3264
    3220:	ea92 0f03 	teq	r2, r3
    3224:	d004      	beq.n	0x3230
    3226:	f092 0f00 	teq	r2, #0
    322a:	bf08      	it	eq
    322c:	4608      	moveq	r0, r1
    322e:	4770      	bx	lr
    3230:	ea90 0f01 	teq	r0, r1
    3234:	bf1c      	itt	ne
    3236:	2000      	movne	r0, #0
    3238:	4770      	bxne	lr
    323a:	f012 4f7f 	tst.w	r2, #4278190080	; 0xff000000
    323e:	d104      	bne.n	0x324a
    3240:	0040      	lsls	r0, r0, #1
    3242:	bf28      	it	cs
    3244:	f040 4000 	orrcs.w	r0, r0, #2147483648	; 0x80000000
    3248:	4770      	bx	lr
    324a:	f112 7200 	adds.w	r2, r2, #33554432	; 0x2000000
    324e:	bf3c      	itt	cc
    3250:	f500 0000 	addcc.w	r0, r0, #8388608	; 0x800000
    3254:	4770      	bxcc	lr
    3256:	f000 4300 	and.w	r3, r0, #2147483648	; 0x80000000
    325a:	f043 40fe 	orr.w	r0, r3, #2130706432	; 0x7f000000
    325e:	f440 0000 	orr.w	r0, r0, #8388608	; 0x800000
    3262:	4770      	bx	lr
    3264:	ea7f 6222 	mvns.w	r2, r2, asr #24
    3268:	bf16      	itet	ne
    326a:	4608      	movne	r0, r1
    326c:	ea7f 6323 	mvnseq.w	r3, r3, asr #24
    3270:	4601      	movne	r1, r0
    3272:	0242      	lsls	r2, r0, #9
    3274:	bf06      	itte	eq
    3276:	ea5f 2341 	movseq.w	r3, r1, lsl #9
    327a:	ea90 0f01 	teqeq	r0, r1
    327e:	f440 0080 	orrne.w	r0, r0, #4194304	; 0x400000
    3282:	4770      	bx	lr
    3284:	f04f 0300 	mov.w	r3, #0
    3288:	e004      	b.n	0x3294
    328a:	bf00      	nop
    328c:	f010 4300 	ands.w	r3, r0, #2147483648	; 0x80000000
    3290:	bf48      	it	mi
    3292:	4240      	negmi	r0, r0
    3294:	ea5f 0c00 	movs.w	ip, r0
    3298:	bf08      	it	eq
    329a:	4770      	bxeq	lr
    329c:	f043 4396 	orr.w	r3, r3, #1258291200	; 0x4b000000
    32a0:	4601      	mov	r1, r0
    32a2:	f04f 0000 	mov.w	r0, #0
    32a6:	e01c      	b.n	0x32e2
    32a8:	ea50 0201 	orrs.w	r2, r0, r1
    32ac:	bf08      	it	eq
    32ae:	4770      	bxeq	lr
    32b0:	f04f 0300 	mov.w	r3, #0
    32b4:	e00a      	b.n	0x32cc
    32b6:	bf00      	nop
    32b8:	ea50 0201 	orrs.w	r2, r0, r1
    32bc:	bf08      	it	eq
    32be:	4770      	bxeq	lr
    32c0:	f011 4300 	ands.w	r3, r1, #2147483648	; 0x80000000
    32c4:	d502      	bpl.n	0x32cc
    32c6:	4240      	negs	r0, r0
    32c8:	eb61 0141 	sbc.w	r1, r1, r1, lsl #1
    32cc:	ea5f 0c01 	movs.w	ip, r1
    32d0:	bf02      	ittt	eq
    32d2:	4684      	moveq	ip, r0
    32d4:	4601      	moveq	r1, r0
    32d6:	2000      	moveq	r0, #0
    32d8:	f043 43b6 	orr.w	r3, r3, #1526726656	; 0x5b000000
    32dc:	bf08      	it	eq
    32de:	f1a3 5380 	subeq.w	r3, r3, #268435456	; 0x10000000
    32e2:	f5a3 0300 	sub.w	r3, r3, #8388608	; 0x800000
    32e6:	fabc f28c 	clz	r2, ip
    32ea:	3a08      	subs	r2, #8
    32ec:	eba3 53c2 	sub.w	r3, r3, r2, lsl #23
    32f0:	db10      	blt.n	0x3314
    32f2:	fa01 fc02 	lsl.w	ip, r1, r2
    32f6:	4463      	add	r3, ip
    32f8:	fa00 fc02 	lsl.w	ip, r0, r2
    32fc:	f1c2 0220 	rsb	r2, r2, #32
    3300:	f1bc 4f00 	cmp.w	ip, #2147483648	; 0x80000000
    3304:	fa20 f202 	lsr.w	r2, r0, r2
    3308:	eb43 0002 	adc.w	r0, r3, r2
    330c:	bf08      	it	eq
    330e:	f020 0001 	biceq.w	r0, r0, #1
    3312:	4770      	bx	lr
    3314:	f102 0220 	add.w	r2, r2, #32
    3318:	fa01 fc02 	lsl.w	ip, r1, r2
    331c:	f1c2 0220 	rsb	r2, r2, #32
    3320:	ea50 004c 	orrs.w	r0, r0, ip, lsl #1
    3324:	fa21 f202 	lsr.w	r2, r1, r2
    3328:	eb43 0002 	adc.w	r0, r3, r2
    332c:	bf08      	it	eq
    332e:	ea20 70dc 	biceq.w	r0, r0, ip, lsr #31
    3332:	4770      	bx	lr
    3334:	f04f 0cff 	mov.w	ip, #255	; 0xff
    3338:	ea1c 52d0 	ands.w	r2, ip, r0, lsr #23
    333c:	bf1e      	ittt	ne
    333e:	ea1c 53d1 	andsne.w	r3, ip, r1, lsr #23
    3342:	ea92 0f0c 	teqne	r2, ip
    3346:	ea93 0f0c 	teqne	r3, ip
    334a:	d06f      	beq.n	0x342c
    334c:	441a      	add	r2, r3
    334e:	ea80 0c01 	eor.w	ip, r0, r1
    3352:	0240      	lsls	r0, r0, #9
    3354:	bf18      	it	ne
    3356:	ea5f 2141 	movsne.w	r1, r1, lsl #9
    335a:	d01e      	beq.n	0x339a
    335c:	f04f 6300 	mov.w	r3, #134217728	; 0x8000000
    3360:	ea43 1050 	orr.w	r0, r3, r0, lsr #5
    3364:	ea43 1151 	orr.w	r1, r3, r1, lsr #5
    3368:	fba0 3101 	umull	r3, r1, r0, r1
    336c:	f00c 4000 	and.w	r0, ip, #2147483648	; 0x80000000
    3370:	f5b1 0f00 	cmp.w	r1, #8388608	; 0x800000
    3374:	bf3e      	ittt	cc
    3376:	0049      	lslcc	r1, r1, #1
    3378:	ea41 71d3 	orrcc.w	r1, r1, r3, lsr #31
    337c:	005b      	lslcc	r3, r3, #1
    337e:	ea40 0001 	orr.w	r0, r0, r1
    3382:	f162 027f 	sbc.w	r2, r2, #127	; 0x7f
    3386:	2afd      	cmp	r2, #253	; 0xfd
    3388:	d81d      	bhi.n	0x33c6
    338a:	f1b3 4f00 	cmp.w	r3, #2147483648	; 0x80000000
    338e:	eb40 50c2 	adc.w	r0, r0, r2, lsl #23
    3392:	bf08      	it	eq
    3394:	f020 0001 	biceq.w	r0, r0, #1
    3398:	4770      	bx	lr
    339a:	f090 0f00 	teq	r0, #0
    339e:	f00c 4c00 	and.w	ip, ip, #2147483648	; 0x80000000
    33a2:	bf08      	it	eq
    33a4:	0249      	lsleq	r1, r1, #9
    33a6:	ea4c 2050 	orr.w	r0, ip, r0, lsr #9
    33aa:	ea40 2051 	orr.w	r0, r0, r1, lsr #9
    33ae:	3a7f      	subs	r2, #127	; 0x7f
    33b0:	bfc2      	ittt	gt
    33b2:	f1d2 03ff 	rsbsgt	r3, r2, #255	; 0xff
    33b6:	ea40 50c2 	orrgt.w	r0, r0, r2, lsl #23
    33ba:	4770      	bxgt	lr
    33bc:	f440 0000 	orr.w	r0, r0, #8388608	; 0x800000
    33c0:	f04f 0300 	mov.w	r3, #0
    33c4:	3a01      	subs	r2, #1
    33c6:	dc5d      	bgt.n	0x3484
    33c8:	f112 0f19 	cmn.w	r2, #25
    33cc:	bfdc      	itt	le
    33ce:	f000 4000 	andle.w	r0, r0, #2147483648	; 0x80000000
    33d2:	4770      	bxle	lr
    33d4:	f1c2 0200 	rsb	r2, r2, #0
    33d8:	0041      	lsls	r1, r0, #1
    33da:	fa21 f102 	lsr.w	r1, r1, r2
    33de:	f1c2 0220 	rsb	r2, r2, #32
    33e2:	fa00 fc02 	lsl.w	ip, r0, r2
    33e6:	ea5f 0031 	movs.w	r0, r1, rrx
    33ea:	f140 0000 	adc.w	r0, r0, #0
    33ee:	ea53 034c 	orrs.w	r3, r3, ip, lsl #1
    33f2:	bf08      	it	eq
    33f4:	ea20 70dc 	biceq.w	r0, r0, ip, lsr #31
    33f8:	4770      	bx	lr
    33fa:	f092 0f00 	teq	r2, #0
    33fe:	f000 4c00 	and.w	ip, r0, #2147483648	; 0x80000000
    3402:	bf02      	ittt	eq
    3404:	0040      	lsleq	r0, r0, #1
    3406:	f410 0f00 	tsteq.w	r0, #8388608	; 0x800000
    340a:	3a01      	subeq	r2, #1
    340c:	d0f9      	beq.n	0x3402
    340e:	ea40 000c 	orr.w	r0, r0, ip
    3412:	f093 0f00 	teq	r3, #0
    3416:	f001 4c00 	and.w	ip, r1, #2147483648	; 0x80000000
    341a:	bf02      	ittt	eq
    341c:	0049      	lsleq	r1, r1, #1
    341e:	f411 0f00 	tsteq.w	r1, #8388608	; 0x800000
    3422:	3b01      	subeq	r3, #1
    3424:	d0f9      	beq.n	0x341a
    3426:	ea41 010c 	orr.w	r1, r1, ip
    342a:	e78f      	b.n	0x334c
    342c:	ea0c 53d1 	and.w	r3, ip, r1, lsr #23
    3430:	ea92 0f0c 	teq	r2, ip
    3434:	bf18      	it	ne
    3436:	ea93 0f0c 	teqne	r3, ip
    343a:	d00a      	beq.n	0x3452
    343c:	f030 4c00 	bics.w	ip, r0, #2147483648	; 0x80000000
    3440:	bf18      	it	ne
    3442:	f031 4c00 	bicsne.w	ip, r1, #2147483648	; 0x80000000
    3446:	d1d8      	bne.n	0x33fa
    3448:	ea80 0001 	eor.w	r0, r0, r1
    344c:	f000 4000 	and.w	r0, r0, #2147483648	; 0x80000000
    3450:	4770      	bx	lr
    3452:	f090 0f00 	teq	r0, #0
    3456:	bf17      	itett	ne
    3458:	f090 4f00 	teqne	r0, #2147483648	; 0x80000000
    345c:	4608      	moveq	r0, r1
    345e:	f091 0f00 	teqne	r1, #0
    3462:	f091 4f00 	teqne	r1, #2147483648	; 0x80000000
    3466:	d014      	beq.n	0x3492
    3468:	ea92 0f0c 	teq	r2, ip
    346c:	d101      	bne.n	0x3472
    346e:	0242      	lsls	r2, r0, #9
    3470:	d10f      	bne.n	0x3492
    3472:	ea93 0f0c 	teq	r3, ip
    3476:	d103      	bne.n	0x3480
    3478:	024b      	lsls	r3, r1, #9
    347a:	bf18      	it	ne
    347c:	4608      	movne	r0, r1
    347e:	d108      	bne.n	0x3492
    3480:	ea80 0001 	eor.w	r0, r0, r1
    3484:	f000 4000 	and.w	r0, r0, #2147483648	; 0x80000000
    3488:	f040 40fe 	orr.w	r0, r0, #2130706432	; 0x7f000000
    348c:	f440 0000 	orr.w	r0, r0, #8388608	; 0x800000
    3490:	4770      	bx	lr
    3492:	f040 40fe 	orr.w	r0, r0, #2130706432	; 0x7f000000
    3496:	f440 0040 	orr.w	r0, r0, #12582912	; 0xc00000
    349a:	4770      	bx	lr
    349c:	f04f 0cff 	mov.w	ip, #255	; 0xff
    34a0:	ea1c 52d0 	ands.w	r2, ip, r0, lsr #23
    34a4:	bf1e      	ittt	ne
    34a6:	ea1c 53d1 	andsne.w	r3, ip, r1, lsr #23
    34aa:	ea92 0f0c 	teqne	r2, ip
    34ae:	ea93 0f0c 	teqne	r3, ip
    34b2:	d069      	beq.n	0x3588
    34b4:	eba2 0203 	sub.w	r2, r2, r3
    34b8:	ea80 0c01 	eor.w	ip, r0, r1
    34bc:	0249      	lsls	r1, r1, #9
    34be:	ea4f 2040 	mov.w	r0, r0, lsl #9
    34c2:	d037      	beq.n	0x3534
    34c4:	f04f 5380 	mov.w	r3, #268435456	; 0x10000000
    34c8:	ea43 1111 	orr.w	r1, r3, r1, lsr #4
    34cc:	ea43 1310 	orr.w	r3, r3, r0, lsr #4
    34d0:	f00c 4000 	and.w	r0, ip, #2147483648	; 0x80000000
    34d4:	428b      	cmp	r3, r1
    34d6:	bf38      	it	cc
    34d8:	005b      	lslcc	r3, r3, #1
    34da:	f142 027d 	adc.w	r2, r2, #125	; 0x7d
    34de:	f44f 0c00 	mov.w	ip, #8388608	; 0x800000
    34e2:	428b      	cmp	r3, r1
    34e4:	bf24      	itt	cs
    34e6:	1a5b      	subcs	r3, r3, r1
    34e8:	ea40 000c 	orrcs.w	r0, r0, ip
    34ec:	ebb3 0f51 	cmp.w	r3, r1, lsr #1
    34f0:	bf24      	itt	cs
    34f2:	eba3 0351 	subcs.w	r3, r3, r1, lsr #1
    34f6:	ea40 005c 	orrcs.w	r0, r0, ip, lsr #1
    34fa:	ebb3 0f91 	cmp.w	r3, r1, lsr #2
    34fe:	bf24      	itt	cs
    3500:	eba3 0391 	subcs.w	r3, r3, r1, lsr #2
    3504:	ea40 009c 	orrcs.w	r0, r0, ip, lsr #2
    3508:	ebb3 0fd1 	cmp.w	r3, r1, lsr #3
    350c:	bf24      	itt	cs
    350e:	eba3 03d1 	subcs.w	r3, r3, r1, lsr #3
    3512:	ea40 00dc 	orrcs.w	r0, r0, ip, lsr #3
    3516:	011b      	lsls	r3, r3, #4
    3518:	bf18      	it	ne
    351a:	ea5f 1c1c 	movsne.w	ip, ip, lsr #4
    351e:	d1e0      	bne.n	0x34e2
    3520:	2afd      	cmp	r2, #253	; 0xfd
    3522:	f63f af50 	bhi.w	0x33c6
    3526:	428b      	cmp	r3, r1
    3528:	eb40 50c2 	adc.w	r0, r0, r2, lsl #23
    352c:	bf08      	it	eq
    352e:	f020 0001 	biceq.w	r0, r0, #1
    3532:	4770      	bx	lr
    3534:	f00c 4c00 	and.w	ip, ip, #2147483648	; 0x80000000
    3538:	ea4c 2050 	orr.w	r0, ip, r0, lsr #9
    353c:	327f      	adds	r2, #127	; 0x7f
    353e:	bfc2      	ittt	gt
    3540:	f1d2 03ff 	rsbsgt	r3, r2, #255	; 0xff
    3544:	ea40 50c2 	orrgt.w	r0, r0, r2, lsl #23
    3548:	4770      	bxgt	lr
    354a:	f440 0000 	orr.w	r0, r0, #8388608	; 0x800000
    354e:	f04f 0300 	mov.w	r3, #0
    3552:	3a01      	subs	r2, #1
    3554:	e737      	b.n	0x33c6
    3556:	f092 0f00 	teq	r2, #0
    355a:	f000 4c00 	and.w	ip, r0, #2147483648	; 0x80000000
    355e:	bf02      	ittt	eq
    3560:	0040      	lsleq	r0, r0, #1
    3562:	f410 0f00 	tsteq.w	r0, #8388608	; 0x800000
    3566:	3a01      	subeq	r2, #1
    3568:	d0f9      	beq.n	0x355e
    356a:	ea40 000c 	orr.w	r0, r0, ip
    356e:	f093 0f00 	teq	r3, #0
    3572:	f001 4c00 	and.w	ip, r1, #2147483648	; 0x80000000
    3576:	bf02      	ittt	eq
    3578:	0049      	lsleq	r1, r1, #1
    357a:	f411 0f00 	tsteq.w	r1, #8388608	; 0x800000
    357e:	3b01      	subeq	r3, #1
    3580:	d0f9      	beq.n	0x3576
    3582:	ea41 010c 	orr.w	r1, r1, ip
    3586:	e795      	b.n	0x34b4
    3588:	ea0c 53d1 	and.w	r3, ip, r1, lsr #23
    358c:	ea92 0f0c 	teq	r2, ip
    3590:	d108      	bne.n	0x35a4
    3592:	0242      	lsls	r2, r0, #9
    3594:	f47f af7d 	bne.w	0x3492
    3598:	ea93 0f0c 	teq	r3, ip
    359c:	f47f af70 	bne.w	0x3480
    35a0:	4608      	mov	r0, r1
    35a2:	e776      	b.n	0x3492
    35a4:	ea93 0f0c 	teq	r3, ip
    35a8:	d104      	bne.n	0x35b4
    35aa:	024b      	lsls	r3, r1, #9
    35ac:	f43f af4c 	beq.w	0x3448
    35b0:	4608      	mov	r0, r1
    35b2:	e76e      	b.n	0x3492
    35b4:	f030 4c00 	bics.w	ip, r0, #2147483648	; 0x80000000
    35b8:	bf18      	it	ne
    35ba:	f031 4c00 	bicsne.w	ip, r1, #2147483648	; 0x80000000
    35be:	d1ca      	bne.n	0x3556
    35c0:	f030 4200 	bics.w	r2, r0, #2147483648	; 0x80000000
    35c4:	f47f af5c 	bne.w	0x3480
    35c8:	f031 4300 	bics.w	r3, r1, #2147483648	; 0x80000000
    35cc:	f47f af3c 	bne.w	0x3448
    35d0:	e75f      	b.n	0x3492
    35d2:	bf00      	nop
    35d4:	f04f 3cff 	mov.w	ip, #4294967295	; 0xffffffff
    35d8:	e006      	b.n	0x35e8
    35da:	bf00      	nop
    35dc:	f04f 0c01 	mov.w	ip, #1
    35e0:	e002      	b.n	0x35e8
    35e2:	bf00      	nop
    35e4:	f04f 0c01 	mov.w	ip, #1
    35e8:	f84d cd04 	str.w	ip, [sp, #-4]!
    35ec:	ea4f 0240 	mov.w	r2, r0, lsl #1
    35f0:	ea4f 0341 	mov.w	r3, r1, lsl #1
    35f4:	ea7f 6c22 	mvns.w	ip, r2, asr #24
    35f8:	bf18      	it	ne
    35fa:	ea7f 6c23 	mvnsne.w	ip, r3, asr #24
    35fe:	d011      	beq.n	0x3624
    3600:	b001      	add	sp, #4
    3602:	ea52 0c53 	orrs.w	ip, r2, r3, lsr #1
    3606:	bf18      	it	ne
    3608:	ea90 0f01 	teqne	r0, r1
    360c:	bf58      	it	pl
    360e:	ebb2 0003 	subspl.w	r0, r2, r3
    3612:	bf88      	it	hi
    3614:	17c8      	asrhi	r0, r1, #31
    3616:	bf38      	it	cc
    3618:	ea6f 70e1 	mvncc.w	r0, r1, asr #31
    361c:	bf18      	it	ne
    361e:	f040 0001 	orrne.w	r0, r0, #1
    3622:	4770      	bx	lr
    3624:	ea7f 6c22 	mvns.w	ip, r2, asr #24
    3628:	d102      	bne.n	0x3630
    362a:	ea5f 2c40 	movs.w	ip, r0, lsl #9
    362e:	d105      	bne.n	0x363c
    3630:	ea7f 6c23 	mvns.w	ip, r3, asr #24
    3634:	d1e4      	bne.n	0x3600
    3636:	ea5f 2c41 	movs.w	ip, r1, lsl #9
    363a:	d0e1      	beq.n	0x3600
    363c:	f85d 0b04 	ldr.w	r0, [sp], #4
    3640:	4770      	bx	lr
    3642:	bf00      	nop
    3644:	4684      	mov	ip, r0
    3646:	4608      	mov	r0, r1
    3648:	4661      	mov	r1, ip
    364a:	e7ff      	b.n	0x364c
    364c:	b50f      	push	{r0, r1, r2, r3, lr}
    364e:	f7ff ffc9 	bl	0x35e4
    3652:	2800      	cmp	r0, #0
    3654:	bf48      	it	mi
    3656:	f110 0f00 	cmnmi.w	r0, #0
    365a:	bd0f      	pop	{r0, r1, r2, r3, pc}
    365c:	f84d ed08 	str.w	lr, [sp, #-8]!
    3660:	f7ff fff4 	bl	0x364c
    3664:	bf0c      	ite	eq
    3666:	2001      	moveq	r0, #1
    3668:	2000      	movne	r0, #0
    366a:	f85d fb08 	ldr.w	pc, [sp], #8
    366e:	bf00      	nop
    3670:	f84d ed08 	str.w	lr, [sp, #-8]!
    3674:	f7ff ffea 	bl	0x364c
    3678:	bf34      	ite	cc
    367a:	2001      	movcc	r0, #1
    367c:	2000      	movcs	r0, #0
    367e:	f85d fb08 	ldr.w	pc, [sp], #8
    3682:	bf00      	nop
    3684:	f84d ed08 	str.w	lr, [sp, #-8]!
    3688:	f7ff ffe0 	bl	0x364c
    368c:	bf94      	ite	ls
    368e:	2001      	movls	r0, #1
    3690:	2000      	movhi	r0, #0
    3692:	f85d fb08 	ldr.w	pc, [sp], #8
    3696:	bf00      	nop
    3698:	f84d ed08 	str.w	lr, [sp, #-8]!
    369c:	f7ff ffd2 	bl	0x3644
    36a0:	bf94      	ite	ls
    36a2:	2001      	movls	r0, #1
    36a4:	2000      	movhi	r0, #0
    36a6:	f85d fb08 	ldr.w	pc, [sp], #8
    36aa:	bf00      	nop
    36ac:	f84d ed08 	str.w	lr, [sp, #-8]!
    36b0:	f7ff ffc8 	bl	0x3644
    36b4:	bf34      	ite	cc
    36b6:	2001      	movcc	r0, #1
    36b8:	2000      	movcs	r0, #0
    36ba:	f85d fb08 	ldr.w	pc, [sp], #8
    36be:	bf00      	nop
    36c0:	ea4f 0240 	mov.w	r2, r0, lsl #1
    36c4:	f1b2 4ffe 	cmp.w	r2, #2130706432	; 0x7f000000
    36c8:	d30f      	bcc.n	0x36ea
    36ca:	f04f 039e 	mov.w	r3, #158	; 0x9e
    36ce:	ebb3 6212 	subs.w	r2, r3, r2, lsr #24
    36d2:	d90d      	bls.n	0x36f0
    36d4:	ea4f 2300 	mov.w	r3, r0, lsl #8
    36d8:	f043 4300 	orr.w	r3, r3, #2147483648	; 0x80000000
    36dc:	f010 4f00 	tst.w	r0, #2147483648	; 0x80000000
    36e0:	fa23 f002 	lsr.w	r0, r3, r2
    36e4:	bf18      	it	ne
    36e6:	4240      	negne	r0, r0
    36e8:	4770      	bx	lr
    36ea:	f04f 0000 	mov.w	r0, #0
    36ee:	4770      	bx	lr
    36f0:	f112 0f61 	cmn.w	r2, #97	; 0x61
    36f4:	d101      	bne.n	0x36fa
    36f6:	0242      	lsls	r2, r0, #9
    36f8:	d105      	bne.n	0x3706
    36fa:	f010 4000 	ands.w	r0, r0, #2147483648	; 0x80000000
    36fe:	bf08      	it	eq
    3700:	f06f 4000 	mvneq.w	r0, #2147483648	; 0x80000000
    3704:	4770      	bx	lr
    3706:	f04f 0000 	mov.w	r0, #0
    370a:	4770      	bx	lr
    370c:	0042      	lsls	r2, r0, #1
    370e:	d20e      	bcs.n	0x372e
    3710:	f1b2 4ffe 	cmp.w	r2, #2130706432	; 0x7f000000
    3714:	d30b      	bcc.n	0x372e
    3716:	f04f 039e 	mov.w	r3, #158	; 0x9e
    371a:	ebb3 6212 	subs.w	r2, r3, r2, lsr #24
    371e:	d409      	bmi.n	0x3734
    3720:	ea4f 2300 	mov.w	r3, r0, lsl #8
    3724:	f043 4300 	orr.w	r3, r3, #2147483648	; 0x80000000
    3728:	fa23 f002 	lsr.w	r0, r3, r2
    372c:	4770      	bx	lr
    372e:	f04f 0000 	mov.w	r0, #0
    3732:	4770      	bx	lr
    3734:	f112 0f61 	cmn.w	r2, #97	; 0x61
    3738:	d101      	bne.n	0x373e
    373a:	0242      	lsls	r2, r0, #9
    373c:	d102      	bne.n	0x3744
    373e:	f04f 30ff 	mov.w	r0, #4294967295	; 0xffffffff
    3742:	4770      	bx	lr
    3744:	f04f 0000 	mov.w	r0, #0
    3748:	4770      	bx	lr
    374a:	bf00      	nop
    374c:	b508      	push	{r3, lr}
    374e:	2100      	movs	r1, #0
    3750:	4604      	mov	r4, r0
    3752:	f000 f88b 	bl	0x386c
    3756:	4b04      	ldr	r3, [pc, #16]	; (0x3768)
    3758:	6818      	ldr	r0, [r3, #0]
    375a:	6bc3      	ldr	r3, [r0, #60]	; 0x3c
    375c:	b103      	cbz	r3, 0x3760
    375e:	4798      	blx	r3
    3760:	4620      	mov	r0, r4
    3762:	f000 f95b 	bl	0x3a1c
    3766:	bf00      	nop
    3768:	3b8c      	subs	r3, #140	; 0x8c
    376a:	0800      	lsrs	r0, r0, #32
    376c:	b570      	push	{r4, r5, r6, lr}
    376e:	4e0f      	ldr	r6, [pc, #60]	; (0x37ac)
    3770:	4d0f      	ldr	r5, [pc, #60]	; (0x37b0)
    3772:	1b76      	subs	r6, r6, r5
    3774:	10b6      	asrs	r6, r6, #2
    3776:	bf18      	it	ne
    3778:	2400      	movne	r4, #0
    377a:	d005      	beq.n	0x3788
    377c:	3401      	adds	r4, #1
    377e:	f855 3b04 	ldr.w	r3, [r5], #4
    3782:	4798      	blx	r3
    3784:	42a6      	cmp	r6, r4
    3786:	d1f9      	bne.n	0x377c
    3788:	4e0a      	ldr	r6, [pc, #40]	; (0x37b4)
    378a:	4d0b      	ldr	r5, [pc, #44]	; (0x37b8)
    378c:	f000 f948 	bl	0x3a20
    3790:	1b76      	subs	r6, r6, r5
    3792:	10b6      	asrs	r6, r6, #2
    3794:	bf18      	it	ne
    3796:	2400      	movne	r4, #0
    3798:	d006      	beq.n	0x37a8
    379a:	3401      	adds	r4, #1
    379c:	f855 3b04 	ldr.w	r3, [r5], #4
    37a0:	4798      	blx	r3
    37a2:	42a6      	cmp	r6, r4
    37a4:	d1f9      	bne.n	0x379a
    37a6:	bd70      	pop	{r4, r5, r6, pc}
    37a8:	bd70      	pop	{r4, r5, r6, pc}
    37aa:	bf00      	nop
    37ac:	0450      	lsls	r0, r2, #17
    37ae:	2000      	movs	r0, #0
    37b0:	0450      	lsls	r0, r2, #17
    37b2:	2000      	movs	r0, #0
    37b4:	0458      	lsls	r0, r3, #17
    37b6:	2000      	movs	r0, #0
    37b8:	0450      	lsls	r0, r2, #17
    37ba:	2000      	movs	r0, #0
    37bc:	b470      	push	{r4, r5, r6}
    37be:	0784      	lsls	r4, r0, #30
    37c0:	d046      	beq.n	0x3850
    37c2:	1e54      	subs	r4, r2, #1
    37c4:	2a00      	cmp	r2, #0
    37c6:	d041      	beq.n	0x384c
    37c8:	b2cd      	uxtb	r5, r1
    37ca:	4603      	mov	r3, r0
    37cc:	e002      	b.n	0x37d4
    37ce:	1e62      	subs	r2, r4, #1
    37d0:	b3e4      	cbz	r4, 0x384c
    37d2:	4614      	mov	r4, r2
    37d4:	f803 5b01 	strb.w	r5, [r3], #1
    37d8:	079a      	lsls	r2, r3, #30
    37da:	d1f8      	bne.n	0x37ce
    37dc:	2c03      	cmp	r4, #3
    37de:	d92e      	bls.n	0x383e
    37e0:	b2cd      	uxtb	r5, r1
    37e2:	ea45 2505 	orr.w	r5, r5, r5, lsl #8
    37e6:	2c0f      	cmp	r4, #15
    37e8:	ea45 4505 	orr.w	r5, r5, r5, lsl #16
    37ec:	d919      	bls.n	0x3822
    37ee:	4626      	mov	r6, r4
    37f0:	f103 0210 	add.w	r2, r3, #16
    37f4:	3e10      	subs	r6, #16
    37f6:	2e0f      	cmp	r6, #15
    37f8:	f842 5c10 	str.w	r5, [r2, #-16]
    37fc:	f842 5c0c 	str.w	r5, [r2, #-12]
    3800:	f842 5c08 	str.w	r5, [r2, #-8]
    3804:	f842 5c04 	str.w	r5, [r2, #-4]
    3808:	f102 0210 	add.w	r2, r2, #16
    380c:	d8f2      	bhi.n	0x37f4
    380e:	f1a4 0210 	sub.w	r2, r4, #16
    3812:	f022 020f 	bic.w	r2, r2, #15
    3816:	f004 040f 	and.w	r4, r4, #15
    381a:	3210      	adds	r2, #16
    381c:	2c03      	cmp	r4, #3
    381e:	4413      	add	r3, r2
    3820:	d90d      	bls.n	0x383e
    3822:	461e      	mov	r6, r3
    3824:	4622      	mov	r2, r4
    3826:	3a04      	subs	r2, #4
    3828:	2a03      	cmp	r2, #3
    382a:	f846 5b04 	str.w	r5, [r6], #4
    382e:	d8fa      	bhi.n	0x3826
    3830:	1f22      	subs	r2, r4, #4
    3832:	f022 0203 	bic.w	r2, r2, #3
    3836:	3204      	adds	r2, #4
    3838:	4413      	add	r3, r2
    383a:	f004 0403 	and.w	r4, r4, #3
    383e:	b12c      	cbz	r4, 0x384c
    3840:	b2c9      	uxtb	r1, r1
    3842:	441c      	add	r4, r3
    3844:	f803 1b01 	strb.w	r1, [r3], #1
    3848:	42a3      	cmp	r3, r4
    384a:	d1fb      	bne.n	0x3844
    384c:	bc70      	pop	{r4, r5, r6}
    384e:	4770      	bx	lr
    3850:	4614      	mov	r4, r2
    3852:	4603      	mov	r3, r0
    3854:	e7c2      	b.n	0x37dc
    3856:	bf00      	nop
    3858:	4b02      	ldr	r3, [pc, #8]	; (0x3864)
    385a:	b113      	cbz	r3, 0x3862
    385c:	4802      	ldr	r0, [pc, #8]	; (0x3868)
    385e:	f000 b871 	b.w	0x3944
    3862:	4770      	bx	lr
    3864:	0000      	movs	r0, r0
    3866:	0000      	movs	r0, r0
    3868:	3951      	subs	r1, #81	; 0x51
    386a:	0800      	lsrs	r0, r0, #32
    386c:	e92d 4ff0 	stmdb	sp!, {r4, r5, r6, r7, r8, r9, sl, fp, lr}
    3870:	460e      	mov	r6, r1
    3872:	4b32      	ldr	r3, [pc, #200]	; (0x393c)
    3874:	b085      	sub	sp, #20
    3876:	681b      	ldr	r3, [r3, #0]
    3878:	9001      	str	r0, [sp, #4]
    387a:	9302      	str	r3, [sp, #8]
    387c:	f503 73a4 	add.w	r3, r3, #328	; 0x148
    3880:	9303      	str	r3, [sp, #12]
    3882:	9b02      	ldr	r3, [sp, #8]
    3884:	f8d3 7148 	ldr.w	r7, [r3, #328]	; 0x148
    3888:	b33f      	cbz	r7, 0x38da
    388a:	f8dd a00c 	ldr.w	sl, [sp, #12]
    388e:	f04f 0901 	mov.w	r9, #1
    3892:	46d3      	mov	fp, sl
    3894:	687c      	ldr	r4, [r7, #4]
    3896:	1e65      	subs	r5, r4, #1
    3898:	d40e      	bmi.n	0x38b8
    389a:	3401      	adds	r4, #1
    389c:	eb07 0484 	add.w	r4, r7, r4, lsl #2
    38a0:	f04f 0800 	mov.w	r8, #0
    38a4:	b1e6      	cbz	r6, 0x38e0
    38a6:	f8d4 3100 	ldr.w	r3, [r4, #256]	; 0x100
    38aa:	429e      	cmp	r6, r3
    38ac:	d018      	beq.n	0x38e0
    38ae:	3d01      	subs	r5, #1
    38b0:	1c6b      	adds	r3, r5, #1
    38b2:	f1a4 0404 	sub.w	r4, r4, #4
    38b6:	d1f5      	bne.n	0x38a4
    38b8:	4b21      	ldr	r3, [pc, #132]	; (0x3940)
    38ba:	b173      	cbz	r3, 0x38da
    38bc:	687b      	ldr	r3, [r7, #4]
    38be:	2b00      	cmp	r3, #0
    38c0:	d136      	bne.n	0x3930
    38c2:	683b      	ldr	r3, [r7, #0]
    38c4:	2b00      	cmp	r3, #0
    38c6:	d034      	beq.n	0x3932
    38c8:	4638      	mov	r0, r7
    38ca:	f8cb 3000 	str.w	r3, [fp]
    38ce:	f3af 8000 	nop.w
    38d2:	f8db 7000 	ldr.w	r7, [fp]
    38d6:	2f00      	cmp	r7, #0
    38d8:	d1dc      	bne.n	0x3894
    38da:	b005      	add	sp, #20
    38dc:	e8bd 8ff0 	ldmia.w	sp!, {r4, r5, r6, r7, r8, r9, sl, fp, pc}
    38e0:	687b      	ldr	r3, [r7, #4]
    38e2:	6822      	ldr	r2, [r4, #0]
    38e4:	3b01      	subs	r3, #1
    38e6:	42ab      	cmp	r3, r5
    38e8:	bf0c      	ite	eq
    38ea:	607d      	streq	r5, [r7, #4]
    38ec:	f8c4 8000 	strne.w	r8, [r4]
    38f0:	2a00      	cmp	r2, #0
    38f2:	d0dc      	beq.n	0x38ae
    38f4:	f8d7 1188 	ldr.w	r1, [r7, #392]	; 0x188
    38f8:	fa09 f305 	lsl.w	r3, r9, r5
    38fc:	420b      	tst	r3, r1
    38fe:	f8d7 a004 	ldr.w	sl, [r7, #4]
    3902:	d00f      	beq.n	0x3924
    3904:	f8d7 118c 	ldr.w	r1, [r7, #396]	; 0x18c
    3908:	420b      	tst	r3, r1
    390a:	d10d      	bne.n	0x3928
    390c:	f8d4 1080 	ldr.w	r1, [r4, #128]	; 0x80
    3910:	9801      	ldr	r0, [sp, #4]
    3912:	4790      	blx	r2
    3914:	687b      	ldr	r3, [r7, #4]
    3916:	4553      	cmp	r3, sl
    3918:	d1b3      	bne.n	0x3882
    391a:	f8db 3000 	ldr.w	r3, [fp]
    391e:	42bb      	cmp	r3, r7
    3920:	d0c5      	beq.n	0x38ae
    3922:	e7ae      	b.n	0x3882
    3924:	4790      	blx	r2
    3926:	e7f5      	b.n	0x3914
    3928:	f8d4 0080 	ldr.w	r0, [r4, #128]	; 0x80
    392c:	4790      	blx	r2
    392e:	e7f1      	b.n	0x3914
    3930:	683b      	ldr	r3, [r7, #0]
    3932:	46bb      	mov	fp, r7
    3934:	461f      	mov	r7, r3
    3936:	2f00      	cmp	r7, #0
    3938:	d1ac      	bne.n	0x3894
    393a:	e7ce      	b.n	0x38da
    393c:	3b8c      	subs	r3, #140	; 0x8c
    393e:	0800      	lsrs	r0, r0, #32
    3940:	0000      	movs	r0, r0
    3942:	0000      	movs	r0, r0
    3944:	2300      	movs	r3, #0
    3946:	4601      	mov	r1, r0
    3948:	461a      	mov	r2, r3
    394a:	4618      	mov	r0, r3
    394c:	f000 b814 	b.w	0x3978
    3950:	b538      	push	{r3, r4, r5, lr}
    3952:	4d07      	ldr	r5, [pc, #28]	; (0x3970)
    3954:	4c07      	ldr	r4, [pc, #28]	; (0x3974)
    3956:	1b2c      	subs	r4, r5, r4
    3958:	10a4      	asrs	r4, r4, #2
    395a:	d005      	beq.n	0x3968
    395c:	3c01      	subs	r4, #1
    395e:	f855 3d04 	ldr.w	r3, [r5, #-4]!
    3962:	4798      	blx	r3
    3964:	2c00      	cmp	r4, #0
    3966:	d1f9      	bne.n	0x395c
    3968:	e8bd 4038 	ldmia.w	sp!, {r3, r4, r5, lr}
    396c:	f000 b85e 	b.w	0x3a2c
    3970:	045c      	lsls	r4, r3, #17
    3972:	2000      	movs	r0, #0
    3974:	0458      	lsls	r0, r3, #17
    3976:	2000      	movs	r0, #0
    3978:	e92d 47f0 	stmdb	sp!, {r4, r5, r6, r7, r8, r9, sl, lr}
    397c:	4c25      	ldr	r4, [pc, #148]	; (0x3a14)
    397e:	4606      	mov	r6, r0
    3980:	6825      	ldr	r5, [r4, #0]
    3982:	4688      	mov	r8, r1
    3984:	f8d5 4148 	ldr.w	r4, [r5, #328]	; 0x148
    3988:	4692      	mov	sl, r2
    398a:	4699      	mov	r9, r3
    398c:	b3c4      	cbz	r4, 0x3a00
    398e:	6860      	ldr	r0, [r4, #4]
    3990:	281f      	cmp	r0, #31
    3992:	dc17      	bgt.n	0x39c4
    3994:	1c41      	adds	r1, r0, #1
    3996:	b176      	cbz	r6, 0x39b6
    3998:	eb04 0380 	add.w	r3, r4, r0, lsl #2
    399c:	f8c3 a088 	str.w	sl, [r3, #136]	; 0x88
    39a0:	f8d4 5188 	ldr.w	r5, [r4, #392]	; 0x188
    39a4:	2201      	movs	r2, #1
    39a6:	4082      	lsls	r2, r0
    39a8:	4315      	orrs	r5, r2
    39aa:	2e02      	cmp	r6, #2
    39ac:	f8c4 5188 	str.w	r5, [r4, #392]	; 0x188
    39b0:	f8c3 9108 	str.w	r9, [r3, #264]	; 0x108
    39b4:	d01e      	beq.n	0x39f4
    39b6:	1c83      	adds	r3, r0, #2
    39b8:	6061      	str	r1, [r4, #4]
    39ba:	2000      	movs	r0, #0
    39bc:	f844 8023 	str.w	r8, [r4, r3, lsl #2]
    39c0:	e8bd 87f0 	ldmia.w	sp!, {r4, r5, r6, r7, r8, r9, sl, pc}
    39c4:	4b14      	ldr	r3, [pc, #80]	; (0x3a18)
    39c6:	b303      	cbz	r3, 0x3a0a
    39c8:	f44f 70c8 	mov.w	r0, #400	; 0x190
    39cc:	f3af 8000 	nop.w
    39d0:	4604      	mov	r4, r0
    39d2:	b1d0      	cbz	r0, 0x3a0a
    39d4:	f8d5 3148 	ldr.w	r3, [r5, #328]	; 0x148
    39d8:	2700      	movs	r7, #0
    39da:	e884 0088 	stmia.w	r4, {r3, r7}
    39de:	4638      	mov	r0, r7
    39e0:	f8c5 4148 	str.w	r4, [r5, #328]	; 0x148
    39e4:	2101      	movs	r1, #1
    39e6:	f8c4 7188 	str.w	r7, [r4, #392]	; 0x188
    39ea:	f8c4 718c 	str.w	r7, [r4, #396]	; 0x18c
    39ee:	2e00      	cmp	r6, #0
    39f0:	d0e1      	beq.n	0x39b6
    39f2:	e7d1      	b.n	0x3998
    39f4:	f8d4 318c 	ldr.w	r3, [r4, #396]	; 0x18c
    39f8:	431a      	orrs	r2, r3
    39fa:	f8c4 218c 	str.w	r2, [r4, #396]	; 0x18c
    39fe:	e7da      	b.n	0x39b6
    3a00:	f505 74a6 	add.w	r4, r5, #332	; 0x14c
    3a04:	f8c5 4148 	str.w	r4, [r5, #328]	; 0x148
    3a08:	e7c1      	b.n	0x398e
    3a0a:	f04f 30ff 	mov.w	r0, #4294967295	; 0xffffffff
    3a0e:	e8bd 87f0 	ldmia.w	sp!, {r4, r5, r6, r7, r8, r9, sl, pc}
    3a12:	bf00      	nop
    3a14:	3b8c      	subs	r3, #140	; 0x8c
    3a16:	0800      	lsrs	r0, r0, #32
    3a18:	0000      	movs	r0, r0
    3a1a:	0000      	movs	r0, r0
    3a1c:	e7fe      	b.n	0x3a1c
    3a1e:	bf00      	nop
    3a20:	b5f8      	push	{r3, r4, r5, r6, r7, lr}
    3a22:	bf00      	nop
    3a24:	bcf8      	pop	{r3, r4, r5, r6, r7}
    3a26:	bc08      	pop	{r3}
    3a28:	469e      	mov	lr, r3
    3a2a:	4770      	bx	lr
    3a2c:	b5f8      	push	{r3, r4, r5, r6, r7, lr}
    3a2e:	bf00      	nop
    3a30:	bcf8      	pop	{r3, r4, r5, r6, r7}
    3a32:	bc08      	pop	{r3}
    3a34:	469e      	mov	lr, r3
    3a36:	4770      	bx	lr
    3a38:	6f6c      	ldr	r4, [r5, #116]	; 0x74
    3a3a:	7473      	strb	r3, [r6, #17]
    3a3c:	7520      	strb	r0, [r4, #20]
    3a3e:	0d73      	lsrs	r3, r6, #21
    3a40:	000a      	movs	r2, r1
    3a42:	0000      	movs	r0, r0
    3a44:	7953      	ldrb	r3, [r2, #5]
    3a46:	7473      	strb	r3, [r6, #17]
    3a48:	6369      	str	r1, [r5, #52]	; 0x34
    3a4a:	206b      	movs	r0, #107	; 0x6b
    3a4c:	6964      	ldr	r4, [r4, #20]
    3a4e:	6e64      	ldr	r4, [r4, #100]	; 0x64
    3a50:	7427      	strb	r7, [r4, #16]
    3a52:	6320      	str	r0, [r4, #48]	; 0x30
    3a54:	6e6f      	ldr	r7, [r5, #100]	; 0x64
    3a56:	6966      	ldr	r6, [r4, #20]
    3a58:	7567      	strb	r7, [r4, #21]
    3a5a:	6572      	str	r2, [r6, #84]	; 0x54
    3a5c:	2121      	movs	r1, #33	; 0x21
    3a5e:	0000      	movs	r0, r0
    3a60:	6f4c      	ldr	r4, [r1, #116]	; 0x74
    3a62:	7473      	strb	r3, [r6, #17]
    3a64:	7520      	strb	r0, [r4, #20]
    3a66:	0d73      	lsrs	r3, r6, #21
    3a68:	000a      	movs	r2, r1
    3a6a:	0000      	movs	r0, r0
    3a6c:	0030      	movs	r0, r6
    3a6e:	0000      	movs	r0, r0
    3a70:	002d      	movs	r5, r5
    3a72:	0000      	movs	r0, r0
    3a74:	002e      	movs	r6, r5
    3a76:	0000      	movs	r0, r0
    3a78:	0a0d      	lsrs	r5, r1, #8
    3a7a:	0000      	movs	r0, r0
    3a7c:	480c      	ldr	r0, [pc, #48]	; (0x3ab0)
    3a7e:	2069      	movs	r0, #105	; 0x69
    3a80:	6854      	ldr	r4, [r2, #4]
    3a82:	7265      	strb	r5, [r4, #9]
    3a84:	0d65      	lsrs	r5, r4, #21
    3a86:	000a      	movs	r2, r1
    3a88:	6e49      	ldr	r1, [r1, #100]	; 0x64
    3a8a:	7469      	strb	r1, [r5, #17]
    3a8c:	6169      	str	r1, [r5, #20]
    3a8e:	696c      	ldr	r4, [r5, #20]
    3a90:	657a      	str	r2, [r7, #84]	; 0x54
    3a92:	2064      	movs	r0, #100	; 0x64
    3a94:	6544      	str	r4, [r0, #84]	; 0x54
    3a96:	616c      	str	r4, [r5, #20]
    3a98:	7379      	strb	r1, [r7, #13]
    3a9a:	0a0d      	lsrs	r5, r1, #8
    3a9c:	0000      	movs	r0, r0
    3a9e:	0000      	movs	r0, r0
    3aa0:	6e49      	ldr	r1, [r1, #100]	; 0x64
    3aa2:	7469      	strb	r1, [r5, #17]
    3aa4:	6169      	str	r1, [r5, #20]
    3aa6:	696c      	ldr	r4, [r5, #20]
    3aa8:	657a      	str	r2, [r7, #84]	; 0x54
    3aaa:	2064      	movs	r0, #100	; 0x64
    3aac:	564e      	ldrsb	r6, [r1, r1]
    3aae:	4349      	muls	r1, r1
    3ab0:	0a0d      	lsrs	r5, r1, #8
    3ab2:	0000      	movs	r0, r0
    3ab4:	6e49      	ldr	r1, [r1, #100]	; 0x64
    3ab6:	7469      	strb	r1, [r5, #17]
    3ab8:	6169      	str	r1, [r5, #20]
    3aba:	696c      	ldr	r4, [r5, #20]
    3abc:	657a      	str	r2, [r7, #84]	; 0x54
    3abe:	2064      	movs	r0, #100	; 0x64
    3ac0:	6954      	ldr	r4, [r2, #20]
    3ac2:	656d      	str	r5, [r5, #84]	; 0x54
    3ac4:	7372      	strb	r2, [r6, #13]
    3ac6:	0a0d      	lsrs	r5, r1, #8
    3ac8:	0000      	movs	r0, r0
    3aca:	0000      	movs	r0, r0
    3acc:	6e49      	ldr	r1, [r1, #100]	; 0x64
    3ace:	7469      	strb	r1, [r5, #17]
    3ad0:	6169      	str	r1, [r5, #20]
    3ad2:	696c      	ldr	r4, [r5, #20]
    3ad4:	657a      	str	r2, [r7, #84]	; 0x54
    3ad6:	2064      	movs	r0, #100	; 0x64
    3ad8:	4441      	add	r1, r8
    3ada:	0d43      	lsrs	r3, r0, #21
    3adc:	000a      	movs	r2, r1
    3ade:	0000      	movs	r0, r0
    3ae0:	6e49      	ldr	r1, [r1, #100]	; 0x64
    3ae2:	7469      	strb	r1, [r5, #17]
    3ae4:	6169      	str	r1, [r5, #20]
    3ae6:	696c      	ldr	r4, [r5, #20]
    3ae8:	657a      	str	r2, [r7, #84]	; 0x54
    3aea:	2064      	movs	r0, #100	; 0x64
    3aec:	4143      	adcs	r3, r0
    3aee:	0d4e      	lsrs	r6, r1, #21
    3af0:	000a      	movs	r2, r1
    3af2:	0000      	movs	r0, r0
    3af4:	6e49      	ldr	r1, [r1, #100]	; 0x64
    3af6:	7469      	strb	r1, [r5, #17]
    3af8:	6169      	str	r1, [r5, #20]
    3afa:	696c      	ldr	r4, [r5, #20]
    3afc:	657a      	str	r2, [r7, #84]	; 0x54
    3afe:	2064      	movs	r0, #100	; 0x64
    3b00:	324e      	adds	r2, #78	; 0x4e
    3b02:	0d4b      	lsrs	r3, r1, #21
    3b04:	000a      	movs	r2, r1
    3b06:	0000      	movs	r0, r0
    3b08:	6e49      	ldr	r1, [r1, #100]	; 0x64
    3b0a:	7469      	strb	r1, [r5, #17]
    3b0c:	6169      	str	r1, [r5, #20]
    3b0e:	696c      	ldr	r4, [r5, #20]
    3b10:	657a      	str	r2, [r7, #84]	; 0x54
    3b12:	2064      	movs	r0, #100	; 0x64
    3b14:	6854      	ldr	r4, [r2, #4]
    3b16:	6f72      	ldr	r2, [r6, #116]	; 0x74
    3b18:	7474      	strb	r4, [r6, #17]
    3b1a:	656c      	str	r4, [r5, #84]	; 0x54
    3b1c:	0a0d      	lsrs	r5, r1, #8
    3b1e:	0000      	movs	r0, r0
    3b20:	6e45      	ldr	r5, [r0, #100]	; 0x64
    3b22:	6574      	str	r4, [r6, #84]	; 0x54
    3b24:	6972      	ldr	r2, [r6, #20]
    3b26:	676e      	str	r6, [r5, #116]	; 0x74
    3b28:	7720      	strb	r0, [r4, #28]
    3b2a:	6968      	ldr	r0, [r5, #20]
    3b2c:	656c      	str	r4, [r5, #84]	; 0x54
    3b2e:	3120      	adds	r1, #32
    3b30:	0a0d      	lsrs	r5, r1, #8
    3b32:	0000      	movs	r0, r0
    3b34:	6449      	str	r1, [r1, #68]	; 0x44
    3b36:	656c      	str	r4, [r5, #84]	; 0x54
    3b38:	522d      	strh	r5, [r5, r0]
    3b3a:	7365      	strb	r5, [r4, #13]
    3b3c:	6d75      	ldr	r5, [r6, #84]	; 0x54
    3b3e:	0d65      	lsrs	r5, r4, #21
    3b40:	000a      	movs	r2, r1
    3b42:	0000      	movs	r0, r0
    3b44:	6143      	str	r3, [r0, #20]
    3b46:	696c      	ldr	r4, [r5, #20]
    3b48:	7262      	strb	r2, [r4, #9]
    3b4a:	7461      	strb	r1, [r4, #17]
    3b4c:	0d65      	lsrs	r5, r4, #21
    3b4e:	000a      	movs	r2, r1
    3b50:	6e49      	ldr	r1, [r1, #100]	; 0x64
    3b52:	7263      	strb	r3, [r4, #9]
    3b54:	6165      	str	r5, [r4, #20]
    3b56:	6573      	str	r3, [r6, #84]	; 0x54
    3b58:	0a0d      	lsrs	r5, r1, #8
    3b5a:	0000      	movs	r0, r0
    3b5c:	6544      	str	r4, [r0, #84]	; 0x54
    3b5e:	7263      	strb	r3, [r4, #9]
    3b60:	6165      	str	r5, [r4, #20]
    3b62:	6573      	str	r3, [r6, #84]	; 0x54
    3b64:	0a0d      	lsrs	r5, r1, #8
    3b66:	0000      	movs	r0, r0
    3b68:	5052      	str	r2, [r2, r1]
    3b6a:	3a4d      	subs	r2, #77	; 0x4d
    3b6c:	0020      	movs	r0, r4
    3b6e:	0000      	movs	r0, r0
    3b70:	0a0d      	lsrs	r5, r1, #8
    3b72:	0000      	movs	r0, r0
    3b74:	6f6c      	ldr	r4, [r5, #116]	; 0x74
    3b76:	7473      	strb	r3, [r6, #17]
    3b78:	6c20      	ldr	r0, [r4, #64]	; 0x40
    3b7a:	7361      	strb	r1, [r4, #13]
    3b7c:	5f74      	ldrsh	r4, [r6, r5]
    3b7e:	6974      	ldr	r4, [r6, #20]
    3b80:	656d      	str	r5, [r5, #84]	; 0x54
    3b82:	0a0d      	lsrs	r5, r1, #8
    3b84:	0000      	movs	r0, r0
    3b86:	0000      	movs	r0, r0
    3b88:	0043      	lsls	r3, r0, #1
    3b8a:	0000      	movs	r0, r0
    3b8c:	0028      	movs	r0, r5
    3b8e:	2000      	movs	r0, #0
    3b90:	0000      	movs	r0, r0
    3b92:	0000      	movs	r0, r0
    3b94:	c5b4      	stmia	r5!, {r2, r4, r5, r7}
    3b96:	7fff      	ldrb	r7, [r7, #31]
    3b98:	0001      	movs	r1, r0
    3b9a:	0000      	movs	r0, r0
    3b9c:	0000      	movs	r0, r0
    3b9e:	0000      	movs	r0, r0
    3ba0:	0201      	lsls	r1, r0, #8
    3ba2:	0403      	lsls	r3, r0, #16
    3ba4:	0201      	lsls	r1, r0, #8
    3ba6:	0403      	lsls	r3, r0, #16
    3ba8:	0706      	lsls	r6, r0, #28
    3baa:	0908      	lsrs	r0, r1, #4
    3bac:	0402      	lsls	r2, r0, #16
    3bae:	0806      	lsrs	r6, r0, #32
    3bb0:	a200      	add	r2, pc, #0	; (adr r2, 0x3bb4)
    3bb2:	044a      	lsls	r2, r1, #17
	...
    3bbc:	0201      	lsls	r1, r0, #8
    3bbe:	0403      	lsls	r3, r0, #16
    3bc0:	0706      	lsls	r6, r0, #28
    3bc2:	0908      	lsrs	r0, r1, #4
    3bc4:	0000      	movs	r0, r0
    3bc6:	0000      	movs	r0, r0
    3bc8:	0314      	lsls	r4, r2, #12
    3bca:	2000      	movs	r0, #0
    3bcc:	037c      	lsls	r4, r7, #13
    3bce:	2000      	movs	r0, #0
    3bd0:	03e4      	lsls	r4, r4, #15
    3bd2:	2000      	movs	r0, #0
	...
    3bf8:	3b88      	subs	r3, #136	; 0x88
    3bfa:	0800      	lsrs	r0, r0, #32
	...
    3c6c:	0001      	movs	r1, r0
    3c6e:	0000      	movs	r0, r0
    3c70:	0000      	movs	r0, r0
    3c72:	0000      	movs	r0, r0
    3c74:	330e      	adds	r3, #14
    3c76:	abcd      	add	r3, sp, #820	; 0x334
    3c78:	1234      	asrs	r4, r6, #8
    3c7a:	e66d      	b.n	0x3958
    3c7c:	deec      	udf	#236	; 0xec
    3c7e:	0005      	movs	r5, r0
    3c80:	000b      	movs	r3, r1
	...
    3fea:	0000      	movs	r0, r0
    3fec:	3859      	subs	r0, #89	; 0x59
    3fee:	0800      	lsrs	r0, r0, #32
    3ff0:	0111      	lsls	r1, r2, #4
    3ff2:	0800      	lsrs	r0, r0, #32
    3ff4:	00ed      	lsls	r5, r5, #3
    3ff6:	0800      	lsrs	r0, r0, #32
	...
    4000:	ffff ffff 			; <UNDEFINED> instruction: 0xffffffff
    4004:	ffff ffff 			; <UNDEFINED> instruction: 0xffffffff
    4008:	ffff ffff 			; <UNDEFINED> instruction: 0xffffffff
    400c:	ffff ffff 			; <UNDEFINED> instruction: 0xffffffff
    4010:	ffff ffff 			; <UNDEFINED> instruction: 0xffffffff
    4014:	ffff ffff 			; <UNDEFINED> instruction: 0xffffffff
    4018:	ffff ffff 			; <UNDEFINED> instruction: 0xffffffff
    401c:	ffff ffff 			; <UNDEFINED> instruction: 0xffffffff
    4020:	ffff ffff 			; <UNDEFINED> instruction: 0xffffffff
    4024:	ffff ffff 			; <UNDEFINED> instruction: 0xffffffff
    4028:	ffff ffff 			; <UNDEFINED> instruction: 0xffffffff
    402c:	ffff ffff 			; <UNDEFINED> instruction: 0xffffffff
    4030:	ffff ffff 			; <UNDEFINED> instruction: 0xffffffff
    4034:	ffff ffff 			; <UNDEFINED> instruction: 0xffffffff
    4038:	ffff ffff 			; <UNDEFINED> instruction: 0xffffffff
    403c:	ffff ffff 			; <UNDEFINED> instruction: 0xffffffff
    4040:	ffff ffff 			; <UNDEFINED> instruction: 0xffffffff
    4044:	ffff ffff 			; <UNDEFINED> instruction: 0xffffffff
    4048:	ffff ffff 			; <UNDEFINED> instruction: 0xffffffff
    404c:	ffff ffff 			; <UNDEFINED> instruction: 0xffffffff
    4050:	ffff ffff 			; <UNDEFINED> instruction: 0xffffffff
    4054:	ffff ffff 			; <UNDEFINED> instruction: 0xffffffff
    4058:	ffff ffff 			; <UNDEFINED> instruction: 0xffffffff
    405c:	ffff ffff 			; <UNDEFINED> instruction: 0xffffffff
    4060:	ffff ffff 			; <UNDEFINED> instruction: 0xffffffff
    4064:	ffff ffff 			; <UNDEFINED> instruction: 0xffffffff
    4068:	ffff ffff 			; <UNDEFINED> instruction: 0xffffffff
    406c:	ffff ffff 			; <UNDEFINED> instruction: 0xffffffff
    4070:	ffff ffff 			; <UNDEFINED> instruction: 0xffffffff
    4074:	ffff ffff 			; <UNDEFINED> instruction: 0xffffffff
    4078:	ffff ffff 			; <UNDEFINED> instruction: 0xffffffff
    407c:	ffff ffff 			; <UNDEFINED> instruction: 0xffffffff
    4080:	ffff ffff 			; <UNDEFINED> instruction: 0xffffffff
    4084:	ffff ffff 			; <UNDEFINED> instruction: 0xffffffff
    4088:	ffff ffff 			; <UNDEFINED> instruction: 0xffffffff
    408c:	ffff ffff 			; <UNDEFINED> instruction: 0xffffffff
    4090:	ffff ffff 			; <UNDEFINED> instruction: 0xffffffff
    4094:	ffff ffff 			; <UNDEFINED> instruction: 0xffffffff
    4098:	ffff ffff 			; <UNDEFINED> instruction: 0xffffffff
    409c:	ffff ffff 			; <UNDEFINED> instruction: 0xffffffff
    40a0:	ffff ffff 			; <UNDEFINED> instruction: 0xffffffff
    40a4:	ffff ffff 			; <UNDEFINED> instruction: 0xffffffff
    40a8:	ffff ffff 			; <UNDEFINED> instruction: 0xffffffff
    40ac:	ffff ffff 			; <UNDEFINED> instruction: 0xffffffff
    40b0:	ffff ffff 			; <UNDEFINED> instruction: 0xffffffff
    40b4:	ffff ffff 			; <UNDEFINED> instruction: 0xffffffff
    40b8:	ffff ffff 			; <UNDEFINED> instruction: 0xffffffff
    40bc:	ffff ffff 			; <UNDEFINED> instruction: 0xffffffff
    40c0:	ffff ffff 			; <UNDEFINED> instruction: 0xffffffff
    40c4:	ffff ffff 			; <UNDEFINED> instruction: 0xffffffff
    40c8:	ffff ffff 			; <UNDEFINED> instruction: 0xffffffff
    40cc:	ffff ffff 			; <UNDEFINED> instruction: 0xffffffff
    40d0:	ffff ffff 			; <UNDEFINED> instruction: 0xffffffff
    40d4:	ffff ffff 			; <UNDEFINED> instruction: 0xffffffff
    40d8:	ffff ffff 			; <UNDEFINED> instruction: 0xffffffff
    40dc:	ffff ffff 			; <UNDEFINED> instruction: 0xffffffff
    40e0:	ffff ffff 			; <UNDEFINED> instruction: 0xffffffff
    40e4:	ffff ffff 			; <UNDEFINED> instruction: 0xffffffff
    40e8:	ffff ffff 			; <UNDEFINED> instruction: 0xffffffff
    40ec:	ffff ffff 			; <UNDEFINED> instruction: 0xffffffff
    40f0:	ffff ffff 			; <UNDEFINED> instruction: 0xffffffff
    40f4:	ffff ffff 			; <UNDEFINED> instruction: 0xffffffff
    40f8:	ffff ffff 			; <UNDEFINED> instruction: 0xffffffff
    40fc:	ffff ffff 			; <UNDEFINED> instruction: 0xffffffff
    4100:	ffff ffff 			; <UNDEFINED> instruction: 0xffffffff
    4104:	ffff ffff 			; <UNDEFINED> instruction: 0xffffffff
    4108:	ffff ffff 			; <UNDEFINED> instruction: 0xffffffff
    410c:	ffff ffff 			; <UNDEFINED> instruction: 0xffffffff
    4110:	ffff ffff 			; <UNDEFINED> instruction: 0xffffffff
    4114:	ffff ffff 			; <UNDEFINED> instruction: 0xffffffff
    4118:	ffff ffff 			; <UNDEFINED> instruction: 0xffffffff
    411c:	ffff ffff 			; <UNDEFINED> instruction: 0xffffffff
    4120:	ffff ffff 			; <UNDEFINED> instruction: 0xffffffff
    4124:	ffff ffff 			; <UNDEFINED> instruction: 0xffffffff
    4128:	ffff ffff 			; <UNDEFINED> instruction: 0xffffffff
    412c:	ffff ffff 			; <UNDEFINED> instruction: 0xffffffff
    4130:	ffff ffff 			; <UNDEFINED> instruction: 0xffffffff
    4134:	ffff ffff 			; <UNDEFINED> instruction: 0xffffffff
    4138:	ffff ffff 			; <UNDEFINED> instruction: 0xffffffff
    413c:	ffff ffff 			; <UNDEFINED> instruction: 0xffffffff
    4140:	ffff ffff 			; <UNDEFINED> instruction: 0xffffffff
    4144:	ffff ffff 			; <UNDEFINED> instruction: 0xffffffff
    4148:	ffff ffff 			; <UNDEFINED> instruction: 0xffffffff
    414c:	ffff ffff 			; <UNDEFINED> instruction: 0xffffffff
    4150:	ffff ffff 			; <UNDEFINED> instruction: 0xffffffff
    4154:	ffff ffff 			; <UNDEFINED> instruction: 0xffffffff
    4158:	ffff ffff 			; <UNDEFINED> instruction: 0xffffffff
    415c:	ffff ffff 			; <UNDEFINED> instruction: 0xffffffff
    4160:	ffff ffff 			; <UNDEFINED> instruction: 0xffffffff
    4164:	ffff ffff 			; <UNDEFINED> instruction: 0xffffffff
    4168:	ffff ffff 			; <UNDEFINED> instruction: 0xffffffff
    416c:	ffff ffff 			; <UNDEFINED> instruction: 0xffffffff
    4170:	ffff ffff 			; <UNDEFINED> instruction: 0xffffffff
    4174:	ffff ffff 			; <UNDEFINED> instruction: 0xffffffff
    4178:	ffff ffff 			; <UNDEFINED> instruction: 0xffffffff
    417c:	ffff ffff 			; <UNDEFINED> instruction: 0xffffffff
    4180:	ffff ffff 			; <UNDEFINED> instruction: 0xffffffff
    4184:	ffff ffff 			; <UNDEFINED> instruction: 0xffffffff
    4188:	ffff ffff 			; <UNDEFINED> instruction: 0xffffffff
    418c:	ffff ffff 			; <UNDEFINED> instruction: 0xffffffff
    4190:	ffff ffff 			; <UNDEFINED> instruction: 0xffffffff
    4194:	ffff ffff 			; <UNDEFINED> instruction: 0xffffffff
    4198:	ffff ffff 			; <UNDEFINED> instruction: 0xffffffff
    419c:	ffff ffff 			; <UNDEFINED> instruction: 0xffffffff
    41a0:	ffff ffff 			; <UNDEFINED> instruction: 0xffffffff
    41a4:	ffff ffff 			; <UNDEFINED> instruction: 0xffffffff
    41a8:	ffff ffff 			; <UNDEFINED> instruction: 0xffffffff
    41ac:	ffff ffff 			; <UNDEFINED> instruction: 0xffffffff
    41b0:	ffff ffff 			; <UNDEFINED> instruction: 0xffffffff
    41b4:	ffff ffff 			; <UNDEFINED> instruction: 0xffffffff
    41b8:	ffff ffff 			; <UNDEFINED> instruction: 0xffffffff
    41bc:	ffff ffff 			; <UNDEFINED> instruction: 0xffffffff
    41c0:	ffff ffff 			; <UNDEFINED> instruction: 0xffffffff
    41c4:	ffff ffff 			; <UNDEFINED> instruction: 0xffffffff
    41c8:	ffff ffff 			; <UNDEFINED> instruction: 0xffffffff
    41cc:	ffff ffff 			; <UNDEFINED> instruction: 0xffffffff
    41d0:	ffff ffff 			; <UNDEFINED> instruction: 0xffffffff
    41d4:	ffff ffff 			; <UNDEFINED> instruction: 0xffffffff
    41d8:	ffff ffff 			; <UNDEFINED> instruction: 0xffffffff
    41dc:	ffff ffff 			; <UNDEFINED> instruction: 0xffffffff
    41e0:	ffff ffff 			; <UNDEFINED> instruction: 0xffffffff
    41e4:	ffff ffff 			; <UNDEFINED> instruction: 0xffffffff
    41e8:	ffff ffff 			; <UNDEFINED> instruction: 0xffffffff
    41ec:	ffff ffff 			; <UNDEFINED> instruction: 0xffffffff
    41f0:	ffff ffff 			; <UNDEFINED> instruction: 0xffffffff
    41f4:	ffff ffff 			; <UNDEFINED> instruction: 0xffffffff
    41f8:	ffff ffff 			; <UNDEFINED> instruction: 0xffffffff
    41fc:	ffff ffff 			; <UNDEFINED> instruction: 0xffffffff
    4200:	ffff ffff 			; <UNDEFINED> instruction: 0xffffffff
    4204:	ffff ffff 			; <UNDEFINED> instruction: 0xffffffff
    4208:	ffff ffff 			; <UNDEFINED> instruction: 0xffffffff
    420c:	ffff ffff 			; <UNDEFINED> instruction: 0xffffffff
    4210:	ffff ffff 			; <UNDEFINED> instruction: 0xffffffff
    4214:	ffff ffff 			; <UNDEFINED> instruction: 0xffffffff
    4218:	ffff ffff 			; <UNDEFINED> instruction: 0xffffffff
    421c:	ffff ffff 			; <UNDEFINED> instruction: 0xffffffff
    4220:	ffff ffff 			; <UNDEFINED> instruction: 0xffffffff
    4224:	ffff ffff 			; <UNDEFINED> instruction: 0xffffffff
    4228:	ffff ffff 			; <UNDEFINED> instruction: 0xffffffff
    422c:	ffff ffff 			; <UNDEFINED> instruction: 0xffffffff
    4230:	ffff ffff 			; <UNDEFINED> instruction: 0xffffffff
    4234:	ffff ffff 			; <UNDEFINED> instruction: 0xffffffff
    4238:	ffff ffff 			; <UNDEFINED> instruction: 0xffffffff
    423c:	ffff ffff 			; <UNDEFINED> instruction: 0xffffffff
    4240:	ffff ffff 			; <UNDEFINED> instruction: 0xffffffff
    4244:	ffff ffff 			; <UNDEFINED> instruction: 0xffffffff
    4248:	ffff ffff 			; <UNDEFINED> instruction: 0xffffffff
    424c:	ffff ffff 			; <UNDEFINED> instruction: 0xffffffff
    4250:	ffff ffff 			; <UNDEFINED> instruction: 0xffffffff
    4254:	ffff ffff 			; <UNDEFINED> instruction: 0xffffffff
    4258:	ffff ffff 			; <UNDEFINED> instruction: 0xffffffff
    425c:	ffff ffff 			; <UNDEFINED> instruction: 0xffffffff
    4260:	ffff ffff 			; <UNDEFINED> instruction: 0xffffffff
    4264:	ffff ffff 			; <UNDEFINED> instruction: 0xffffffff
    4268:	ffff ffff 			; <UNDEFINED> instruction: 0xffffffff
    426c:	ffff ffff 			; <UNDEFINED> instruction: 0xffffffff
    4270:	ffff ffff 			; <UNDEFINED> instruction: 0xffffffff
    4274:	ffff ffff 			; <UNDEFINED> instruction: 0xffffffff
    4278:	ffff ffff 			; <UNDEFINED> instruction: 0xffffffff
    427c:	ffff ffff 			; <UNDEFINED> instruction: 0xffffffff
    4280:	ffff ffff 			; <UNDEFINED> instruction: 0xffffffff
    4284:	ffff ffff 			; <UNDEFINED> instruction: 0xffffffff
    4288:	ffff ffff 			; <UNDEFINED> instruction: 0xffffffff
    428c:	ffff ffff 			; <UNDEFINED> instruction: 0xffffffff
    4290:	ffff ffff 			; <UNDEFINED> instruction: 0xffffffff
    4294:	ffff ffff 			; <UNDEFINED> instruction: 0xffffffff
    4298:	ffff ffff 			; <UNDEFINED> instruction: 0xffffffff
    429c:	ffff ffff 			; <UNDEFINED> instruction: 0xffffffff
    42a0:	ffff ffff 			; <UNDEFINED> instruction: 0xffffffff
    42a4:	ffff ffff 			; <UNDEFINED> instruction: 0xffffffff
    42a8:	ffff ffff 			; <UNDEFINED> instruction: 0xffffffff
    42ac:	ffff ffff 			; <UNDEFINED> instruction: 0xffffffff
    42b0:	ffff ffff 			; <UNDEFINED> instruction: 0xffffffff
    42b4:	ffff ffff 			; <UNDEFINED> instruction: 0xffffffff
    42b8:	ffff ffff 			; <UNDEFINED> instruction: 0xffffffff
    42bc:	ffff ffff 			; <UNDEFINED> instruction: 0xffffffff
    42c0:	ffff ffff 			; <UNDEFINED> instruction: 0xffffffff
    42c4:	ffff ffff 			; <UNDEFINED> instruction: 0xffffffff
    42c8:	ffff ffff 			; <UNDEFINED> instruction: 0xffffffff
    42cc:	ffff ffff 			; <UNDEFINED> instruction: 0xffffffff
    42d0:	ffff ffff 			; <UNDEFINED> instruction: 0xffffffff
    42d4:	ffff ffff 			; <UNDEFINED> instruction: 0xffffffff
    42d8:	ffff ffff 			; <UNDEFINED> instruction: 0xffffffff
    42dc:	ffff ffff 			; <UNDEFINED> instruction: 0xffffffff
    42e0:	ffff ffff 			; <UNDEFINED> instruction: 0xffffffff
    42e4:	ffff ffff 			; <UNDEFINED> instruction: 0xffffffff
    42e8:	ffff ffff 			; <UNDEFINED> instruction: 0xffffffff
    42ec:	ffff ffff 			; <UNDEFINED> instruction: 0xffffffff
    42f0:	ffff ffff 			; <UNDEFINED> instruction: 0xffffffff
    42f4:	ffff ffff 			; <UNDEFINED> instruction: 0xffffffff
    42f8:	ffff ffff 			; <UNDEFINED> instruction: 0xffffffff
    42fc:	ffff ffff 			; <UNDEFINED> instruction: 0xffffffff
    4300:	ffff ffff 			; <UNDEFINED> instruction: 0xffffffff
    4304:	ffff ffff 			; <UNDEFINED> instruction: 0xffffffff
    4308:	ffff ffff 			; <UNDEFINED> instruction: 0xffffffff
    430c:	ffff ffff 			; <UNDEFINED> instruction: 0xffffffff
    4310:	ffff ffff 			; <UNDEFINED> instruction: 0xffffffff
    4314:	ffff ffff 			; <UNDEFINED> instruction: 0xffffffff
    4318:	ffff ffff 			; <UNDEFINED> instruction: 0xffffffff
    431c:	ffff ffff 			; <UNDEFINED> instruction: 0xffffffff
    4320:	ffff ffff 			; <UNDEFINED> instruction: 0xffffffff
    4324:	ffff ffff 			; <UNDEFINED> instruction: 0xffffffff
    4328:	ffff ffff 			; <UNDEFINED> instruction: 0xffffffff
    432c:	ffff ffff 			; <UNDEFINED> instruction: 0xffffffff
    4330:	ffff ffff 			; <UNDEFINED> instruction: 0xffffffff
    4334:	ffff ffff 			; <UNDEFINED> instruction: 0xffffffff
    4338:	ffff ffff 			; <UNDEFINED> instruction: 0xffffffff
    433c:	ffff ffff 			; <UNDEFINED> instruction: 0xffffffff
    4340:	ffff ffff 			; <UNDEFINED> instruction: 0xffffffff
    4344:	ffff ffff 			; <UNDEFINED> instruction: 0xffffffff
    4348:	ffff ffff 			; <UNDEFINED> instruction: 0xffffffff
    434c:	ffff ffff 			; <UNDEFINED> instruction: 0xffffffff
    4350:	ffff ffff 			; <UNDEFINED> instruction: 0xffffffff
    4354:	ffff ffff 			; <UNDEFINED> instruction: 0xffffffff
    4358:	ffff ffff 			; <UNDEFINED> instruction: 0xffffffff
    435c:	ffff ffff 			; <UNDEFINED> instruction: 0xffffffff
    4360:	ffff ffff 			; <UNDEFINED> instruction: 0xffffffff
    4364:	ffff ffff 			; <UNDEFINED> instruction: 0xffffffff
    4368:	ffff ffff 			; <UNDEFINED> instruction: 0xffffffff
    436c:	ffff ffff 			; <UNDEFINED> instruction: 0xffffffff
    4370:	ffff ffff 			; <UNDEFINED> instruction: 0xffffffff
    4374:	ffff ffff 			; <UNDEFINED> instruction: 0xffffffff
    4378:	ffff ffff 			; <UNDEFINED> instruction: 0xffffffff
    437c:	ffff ffff 			; <UNDEFINED> instruction: 0xffffffff
    4380:	ffff ffff 			; <UNDEFINED> instruction: 0xffffffff
    4384:	ffff ffff 			; <UNDEFINED> instruction: 0xffffffff
    4388:	ffff ffff 			; <UNDEFINED> instruction: 0xffffffff
    438c:	ffff ffff 			; <UNDEFINED> instruction: 0xffffffff
    4390:	ffff ffff 			; <UNDEFINED> instruction: 0xffffffff
    4394:	ffff ffff 			; <UNDEFINED> instruction: 0xffffffff
    4398:	ffff ffff 			; <UNDEFINED> instruction: 0xffffffff
    439c:	ffff ffff 			; <UNDEFINED> instruction: 0xffffffff
    43a0:	ffff ffff 			; <UNDEFINED> instruction: 0xffffffff
    43a4:	ffff ffff 			; <UNDEFINED> instruction: 0xffffffff
    43a8:	ffff ffff 			; <UNDEFINED> instruction: 0xffffffff
    43ac:	ffff ffff 			; <UNDEFINED> instruction: 0xffffffff
    43b0:	ffff ffff 			; <UNDEFINED> instruction: 0xffffffff
    43b4:	ffff ffff 			; <UNDEFINED> instruction: 0xffffffff
    43b8:	ffff ffff 			; <UNDEFINED> instruction: 0xffffffff
    43bc:	ffff ffff 			; <UNDEFINED> instruction: 0xffffffff
    43c0:	ffff ffff 			; <UNDEFINED> instruction: 0xffffffff
    43c4:	ffff ffff 			; <UNDEFINED> instruction: 0xffffffff
    43c8:	ffff ffff 			; <UNDEFINED> instruction: 0xffffffff
    43cc:	ffff ffff 			; <UNDEFINED> instruction: 0xffffffff
    43d0:	ffff ffff 			; <UNDEFINED> instruction: 0xffffffff
    43d4:	ffff ffff 			; <UNDEFINED> instruction: 0xffffffff
    43d8:	ffff ffff 			; <UNDEFINED> instruction: 0xffffffff
    43dc:	ffff ffff 			; <UNDEFINED> instruction: 0xffffffff
    43e0:	ffff ffff 			; <UNDEFINED> instruction: 0xffffffff
    43e4:	ffff ffff 			; <UNDEFINED> instruction: 0xffffffff
    43e8:	ffff ffff 			; <UNDEFINED> instruction: 0xffffffff
    43ec:	ffff ffff 			; <UNDEFINED> instruction: 0xffffffff
    43f0:	ffff ffff 			; <UNDEFINED> instruction: 0xffffffff
    43f4:	ffff ffff 			; <UNDEFINED> instruction: 0xffffffff
    43f8:	ffff ffff 			; <UNDEFINED> instruction: 0xffffffff
    43fc:	ffff ffff 			; <UNDEFINED> instruction: 0xffffffff
    4400:	ffff ffff 			; <UNDEFINED> instruction: 0xffffffff
    4404:	ffff ffff 			; <UNDEFINED> instruction: 0xffffffff
    4408:	ffff ffff 			; <UNDEFINED> instruction: 0xffffffff
    440c:	ffff ffff 			; <UNDEFINED> instruction: 0xffffffff
    4410:	ffff ffff 			; <UNDEFINED> instruction: 0xffffffff
    4414:	ffff ffff 			; <UNDEFINED> instruction: 0xffffffff
    4418:	ffff ffff 			; <UNDEFINED> instruction: 0xffffffff
    441c:	ffff ffff 			; <UNDEFINED> instruction: 0xffffffff
    4420:	ffff ffff 			; <UNDEFINED> instruction: 0xffffffff
    4424:	ffff ffff 			; <UNDEFINED> instruction: 0xffffffff
    4428:	ffff ffff 			; <UNDEFINED> instruction: 0xffffffff
    442c:	ffff ffff 			; <UNDEFINED> instruction: 0xffffffff
    4430:	ffff ffff 			; <UNDEFINED> instruction: 0xffffffff
    4434:	ffff ffff 			; <UNDEFINED> instruction: 0xffffffff
    4438:	ffff ffff 			; <UNDEFINED> instruction: 0xffffffff
    443c:	ffff ffff 			; <UNDEFINED> instruction: 0xffffffff
    4440:	ffff ffff 			; <UNDEFINED> instruction: 0xffffffff
    4444:	ffff ffff 			; <UNDEFINED> instruction: 0xffffffff
    4448:	ffff ffff 			; <UNDEFINED> instruction: 0xffffffff
    444c:	ffff ffff 			; <UNDEFINED> instruction: 0xffffffff
    4450:	ffff ffff 			; <UNDEFINED> instruction: 0xffffffff
    4454:	ffff ffff 			; <UNDEFINED> instruction: 0xffffffff
    4458:	ffff ffff 			; <UNDEFINED> instruction: 0xffffffff
    445c:	ffff ffff 			; <UNDEFINED> instruction: 0xffffffff
    4460:	ffff ffff 			; <UNDEFINED> instruction: 0xffffffff
    4464:	ffff ffff 			; <UNDEFINED> instruction: 0xffffffff
    4468:	ffff ffff 			; <UNDEFINED> instruction: 0xffffffff
    446c:	ffff ffff 			; <UNDEFINED> instruction: 0xffffffff
    4470:	ffff ffff 			; <UNDEFINED> instruction: 0xffffffff
    4474:	ffff ffff 			; <UNDEFINED> instruction: 0xffffffff
    4478:	ffff ffff 			; <UNDEFINED> instruction: 0xffffffff
    447c:	ffff ffff 			; <UNDEFINED> instruction: 0xffffffff
    4480:	ffff ffff 			; <UNDEFINED> instruction: 0xffffffff
    4484:	ffff ffff 			; <UNDEFINED> instruction: 0xffffffff
    4488:	ffff ffff 			; <UNDEFINED> instruction: 0xffffffff
    448c:	ffff ffff 			; <UNDEFINED> instruction: 0xffffffff
    4490:	ffff ffff 			; <UNDEFINED> instruction: 0xffffffff
    4494:	ffff ffff 			; <UNDEFINED> instruction: 0xffffffff
    4498:	ffff ffff 			; <UNDEFINED> instruction: 0xffffffff
    449c:	ffff ffff 			; <UNDEFINED> instruction: 0xffffffff
    44a0:	ffff ffff 			; <UNDEFINED> instruction: 0xffffffff
    44a4:	ffff ffff 			; <UNDEFINED> instruction: 0xffffffff
    44a8:	ffff ffff 			; <UNDEFINED> instruction: 0xffffffff
    44ac:	ffff ffff 			; <UNDEFINED> instruction: 0xffffffff
    44b0:	ffff ffff 			; <UNDEFINED> instruction: 0xffffffff
    44b4:	ffff ffff 			; <UNDEFINED> instruction: 0xffffffff
    44b8:	ffff ffff 			; <UNDEFINED> instruction: 0xffffffff
    44bc:	ffff ffff 			; <UNDEFINED> instruction: 0xffffffff
    44c0:	ffff ffff 			; <UNDEFINED> instruction: 0xffffffff
    44c4:	ffff ffff 			; <UNDEFINED> instruction: 0xffffffff
    44c8:	ffff ffff 			; <UNDEFINED> instruction: 0xffffffff
    44cc:	ffff ffff 			; <UNDEFINED> instruction: 0xffffffff
    44d0:	ffff ffff 			; <UNDEFINED> instruction: 0xffffffff
    44d4:	ffff ffff 			; <UNDEFINED> instruction: 0xffffffff
    44d8:	ffff ffff 			; <UNDEFINED> instruction: 0xffffffff
    44dc:	ffff ffff 			; <UNDEFINED> instruction: 0xffffffff
    44e0:	ffff ffff 			; <UNDEFINED> instruction: 0xffffffff
    44e4:	ffff ffff 			; <UNDEFINED> instruction: 0xffffffff
    44e8:	ffff ffff 			; <UNDEFINED> instruction: 0xffffffff
    44ec:	ffff ffff 			; <UNDEFINED> instruction: 0xffffffff
    44f0:	ffff ffff 			; <UNDEFINED> instruction: 0xffffffff
    44f4:	ffff ffff 			; <UNDEFINED> instruction: 0xffffffff
    44f8:	ffff ffff 			; <UNDEFINED> instruction: 0xffffffff
    44fc:	ffff ffff 			; <UNDEFINED> instruction: 0xffffffff
    4500:	ffff ffff 			; <UNDEFINED> instruction: 0xffffffff
    4504:	ffff ffff 			; <UNDEFINED> instruction: 0xffffffff
    4508:	ffff ffff 			; <UNDEFINED> instruction: 0xffffffff
    450c:	ffff ffff 			; <UNDEFINED> instruction: 0xffffffff
    4510:	ffff ffff 			; <UNDEFINED> instruction: 0xffffffff
    4514:	ffff ffff 			; <UNDEFINED> instruction: 0xffffffff
    4518:	ffff ffff 			; <UNDEFINED> instruction: 0xffffffff
    451c:	ffff ffff 			; <UNDEFINED> instruction: 0xffffffff
    4520:	ffff ffff 			; <UNDEFINED> instruction: 0xffffffff
    4524:	ffff ffff 			; <UNDEFINED> instruction: 0xffffffff
    4528:	ffff ffff 			; <UNDEFINED> instruction: 0xffffffff
    452c:	ffff ffff 			; <UNDEFINED> instruction: 0xffffffff
    4530:	ffff ffff 			; <UNDEFINED> instruction: 0xffffffff
    4534:	ffff ffff 			; <UNDEFINED> instruction: 0xffffffff
    4538:	ffff ffff 			; <UNDEFINED> instruction: 0xffffffff
    453c:	ffff ffff 			; <UNDEFINED> instruction: 0xffffffff
    4540:	ffff ffff 			; <UNDEFINED> instruction: 0xffffffff
    4544:	ffff ffff 			; <UNDEFINED> instruction: 0xffffffff
    4548:	ffff ffff 			; <UNDEFINED> instruction: 0xffffffff
    454c:	ffff ffff 			; <UNDEFINED> instruction: 0xffffffff
    4550:	ffff ffff 			; <UNDEFINED> instruction: 0xffffffff
    4554:	ffff ffff 			; <UNDEFINED> instruction: 0xffffffff
    4558:	ffff ffff 			; <UNDEFINED> instruction: 0xffffffff
    455c:	ffff ffff 			; <UNDEFINED> instruction: 0xffffffff
    4560:	ffff ffff 			; <UNDEFINED> instruction: 0xffffffff
    4564:	ffff ffff 			; <UNDEFINED> instruction: 0xffffffff
    4568:	ffff ffff 			; <UNDEFINED> instruction: 0xffffffff
    456c:	ffff ffff 			; <UNDEFINED> instruction: 0xffffffff
    4570:	ffff ffff 			; <UNDEFINED> instruction: 0xffffffff
    4574:	ffff ffff 			; <UNDEFINED> instruction: 0xffffffff
    4578:	ffff ffff 			; <UNDEFINED> instruction: 0xffffffff
    457c:	ffff ffff 			; <UNDEFINED> instruction: 0xffffffff
    4580:	ffff ffff 			; <UNDEFINED> instruction: 0xffffffff
    4584:	ffff ffff 			; <UNDEFINED> instruction: 0xffffffff
    4588:	ffff ffff 			; <UNDEFINED> instruction: 0xffffffff
    458c:	ffff ffff 			; <UNDEFINED> instruction: 0xffffffff
    4590:	ffff ffff 			; <UNDEFINED> instruction: 0xffffffff
    4594:	ffff ffff 			; <UNDEFINED> instruction: 0xffffffff
    4598:	ffff ffff 			; <UNDEFINED> instruction: 0xffffffff
    459c:	ffff ffff 			; <UNDEFINED> instruction: 0xffffffff
    45a0:	ffff ffff 			; <UNDEFINED> instruction: 0xffffffff
    45a4:	ffff ffff 			; <UNDEFINED> instruction: 0xffffffff
    45a8:	ffff ffff 			; <UNDEFINED> instruction: 0xffffffff
    45ac:	ffff ffff 			; <UNDEFINED> instruction: 0xffffffff
    45b0:	ffff ffff 			; <UNDEFINED> instruction: 0xffffffff
    45b4:	ffff ffff 			; <UNDEFINED> instruction: 0xffffffff
    45b8:	ffff ffff 			; <UNDEFINED> instruction: 0xffffffff
    45bc:	ffff ffff 			; <UNDEFINED> instruction: 0xffffffff
    45c0:	ffff ffff 			; <UNDEFINED> instruction: 0xffffffff
    45c4:	ffff ffff 			; <UNDEFINED> instruction: 0xffffffff
    45c8:	ffff ffff 			; <UNDEFINED> instruction: 0xffffffff
    45cc:	ffff ffff 			; <UNDEFINED> instruction: 0xffffffff
    45d0:	ffff ffff 			; <UNDEFINED> instruction: 0xffffffff
    45d4:	ffff ffff 			; <UNDEFINED> instruction: 0xffffffff
    45d8:	ffff ffff 			; <UNDEFINED> instruction: 0xffffffff
    45dc:	ffff ffff 			; <UNDEFINED> instruction: 0xffffffff
    45e0:	ffff ffff 			; <UNDEFINED> instruction: 0xffffffff
    45e4:	ffff ffff 			; <UNDEFINED> instruction: 0xffffffff
    45e8:	ffff ffff 			; <UNDEFINED> instruction: 0xffffffff
    45ec:	ffff ffff 			; <UNDEFINED> instruction: 0xffffffff
    45f0:	ffff ffff 			; <UNDEFINED> instruction: 0xffffffff
    45f4:	ffff ffff 			; <UNDEFINED> instruction: 0xffffffff
    45f8:	ffff ffff 			; <UNDEFINED> instruction: 0xffffffff
    45fc:	ffff ffff 			; <UNDEFINED> instruction: 0xffffffff
    4600:	ffff ffff 			; <UNDEFINED> instruction: 0xffffffff
    4604:	ffff ffff 			; <UNDEFINED> instruction: 0xffffffff
    4608:	ffff ffff 			; <UNDEFINED> instruction: 0xffffffff
    460c:	ffff ffff 			; <UNDEFINED> instruction: 0xffffffff
    4610:	ffff ffff 			; <UNDEFINED> instruction: 0xffffffff
    4614:	ffff ffff 			; <UNDEFINED> instruction: 0xffffffff
    4618:	ffff ffff 			; <UNDEFINED> instruction: 0xffffffff
    461c:	ffff ffff 			; <UNDEFINED> instruction: 0xffffffff
    4620:	ffff ffff 			; <UNDEFINED> instruction: 0xffffffff
    4624:	ffff ffff 			; <UNDEFINED> instruction: 0xffffffff
    4628:	ffff ffff 			; <UNDEFINED> instruction: 0xffffffff
    462c:	ffff ffff 			; <UNDEFINED> instruction: 0xffffffff
    4630:	ffff ffff 			; <UNDEFINED> instruction: 0xffffffff
    4634:	ffff ffff 			; <UNDEFINED> instruction: 0xffffffff
    4638:	ffff ffff 			; <UNDEFINED> instruction: 0xffffffff
    463c:	ffff ffff 			; <UNDEFINED> instruction: 0xffffffff
    4640:	ffff ffff 			; <UNDEFINED> instruction: 0xffffffff
    4644:	ffff ffff 			; <UNDEFINED> instruction: 0xffffffff
    4648:	ffff ffff 			; <UNDEFINED> instruction: 0xffffffff
    464c:	ffff ffff 			; <UNDEFINED> instruction: 0xffffffff
    4650:	ffff ffff 			; <UNDEFINED> instruction: 0xffffffff
    4654:	ffff ffff 			; <UNDEFINED> instruction: 0xffffffff
    4658:	ffff ffff 			; <UNDEFINED> instruction: 0xffffffff
    465c:	ffff ffff 			; <UNDEFINED> instruction: 0xffffffff
    4660:	ffff ffff 			; <UNDEFINED> instruction: 0xffffffff
    4664:	ffff ffff 			; <UNDEFINED> instruction: 0xffffffff
    4668:	ffff ffff 			; <UNDEFINED> instruction: 0xffffffff
    466c:	ffff ffff 			; <UNDEFINED> instruction: 0xffffffff
    4670:	ffff ffff 			; <UNDEFINED> instruction: 0xffffffff
    4674:	ffff ffff 			; <UNDEFINED> instruction: 0xffffffff
    4678:	ffff ffff 			; <UNDEFINED> instruction: 0xffffffff
    467c:	ffff ffff 			; <UNDEFINED> instruction: 0xffffffff
    4680:	ffff ffff 			; <UNDEFINED> instruction: 0xffffffff
    4684:	ffff ffff 			; <UNDEFINED> instruction: 0xffffffff
    4688:	ffff ffff 			; <UNDEFINED> instruction: 0xffffffff
    468c:	ffff ffff 			; <UNDEFINED> instruction: 0xffffffff
    4690:	ffff ffff 			; <UNDEFINED> instruction: 0xffffffff
    4694:	ffff ffff 			; <UNDEFINED> instruction: 0xffffffff
    4698:	ffff ffff 			; <UNDEFINED> instruction: 0xffffffff
    469c:	ffff ffff 			; <UNDEFINED> instruction: 0xffffffff
    46a0:	ffff ffff 			; <UNDEFINED> instruction: 0xffffffff
    46a4:	ffff ffff 			; <UNDEFINED> instruction: 0xffffffff
    46a8:	ffff ffff 			; <UNDEFINED> instruction: 0xffffffff
    46ac:	ffff ffff 			; <UNDEFINED> instruction: 0xffffffff
    46b0:	ffff ffff 			; <UNDEFINED> instruction: 0xffffffff
    46b4:	ffff ffff 			; <UNDEFINED> instruction: 0xffffffff
    46b8:	ffff ffff 			; <UNDEFINED> instruction: 0xffffffff
    46bc:	ffff ffff 			; <UNDEFINED> instruction: 0xffffffff
    46c0:	ffff ffff 			; <UNDEFINED> instruction: 0xffffffff
    46c4:	ffff ffff 			; <UNDEFINED> instruction: 0xffffffff
    46c8:	ffff ffff 			; <UNDEFINED> instruction: 0xffffffff
    46cc:	ffff ffff 			; <UNDEFINED> instruction: 0xffffffff
    46d0:	ffff ffff 			; <UNDEFINED> instruction: 0xffffffff
    46d4:	ffff ffff 			; <UNDEFINED> instruction: 0xffffffff
    46d8:	ffff ffff 			; <UNDEFINED> instruction: 0xffffffff
    46dc:	ffff ffff 			; <UNDEFINED> instruction: 0xffffffff
    46e0:	ffff ffff 			; <UNDEFINED> instruction: 0xffffffff
    46e4:	ffff ffff 			; <UNDEFINED> instruction: 0xffffffff
    46e8:	ffff ffff 			; <UNDEFINED> instruction: 0xffffffff
    46ec:	ffff ffff 			; <UNDEFINED> instruction: 0xffffffff
    46f0:	ffff ffff 			; <UNDEFINED> instruction: 0xffffffff
    46f4:	ffff ffff 			; <UNDEFINED> instruction: 0xffffffff
    46f8:	ffff ffff 			; <UNDEFINED> instruction: 0xffffffff
    46fc:	ffff ffff 			; <UNDEFINED> instruction: 0xffffffff
    4700:	ffff ffff 			; <UNDEFINED> instruction: 0xffffffff
    4704:	ffff ffff 			; <UNDEFINED> instruction: 0xffffffff
    4708:	ffff ffff 			; <UNDEFINED> instruction: 0xffffffff
    470c:	ffff ffff 			; <UNDEFINED> instruction: 0xffffffff
    4710:	ffff ffff 			; <UNDEFINED> instruction: 0xffffffff
    4714:	ffff ffff 			; <UNDEFINED> instruction: 0xffffffff
    4718:	ffff ffff 			; <UNDEFINED> instruction: 0xffffffff
    471c:	ffff ffff 			; <UNDEFINED> instruction: 0xffffffff
    4720:	ffff ffff 			; <UNDEFINED> instruction: 0xffffffff
    4724:	ffff ffff 			; <UNDEFINED> instruction: 0xffffffff
    4728:	ffff ffff 			; <UNDEFINED> instruction: 0xffffffff
    472c:	ffff ffff 			; <UNDEFINED> instruction: 0xffffffff
    4730:	ffff ffff 			; <UNDEFINED> instruction: 0xffffffff
    4734:	ffff ffff 			; <UNDEFINED> instruction: 0xffffffff
    4738:	ffff ffff 			; <UNDEFINED> instruction: 0xffffffff
    473c:	ffff ffff 			; <UNDEFINED> instruction: 0xffffffff
    4740:	ffff ffff 			; <UNDEFINED> instruction: 0xffffffff
    4744:	ffff ffff 			; <UNDEFINED> instruction: 0xffffffff
    4748:	ffff ffff 			; <UNDEFINED> instruction: 0xffffffff
    474c:	ffff ffff 			; <UNDEFINED> instruction: 0xffffffff
    4750:	ffff ffff 			; <UNDEFINED> instruction: 0xffffffff
    4754:	ffff ffff 			; <UNDEFINED> instruction: 0xffffffff
    4758:	ffff ffff 			; <UNDEFINED> instruction: 0xffffffff
    475c:	ffff ffff 			; <UNDEFINED> instruction: 0xffffffff
    4760:	ffff ffff 			; <UNDEFINED> instruction: 0xffffffff
    4764:	ffff ffff 			; <UNDEFINED> instruction: 0xffffffff
    4768:	ffff ffff 			; <UNDEFINED> instruction: 0xffffffff
    476c:	ffff ffff 			; <UNDEFINED> instruction: 0xffffffff
    4770:	ffff ffff 			; <UNDEFINED> instruction: 0xffffffff
    4774:	ffff ffff 			; <UNDEFINED> instruction: 0xffffffff
    4778:	ffff ffff 			; <UNDEFINED> instruction: 0xffffffff
    477c:	ffff ffff 			; <UNDEFINED> instruction: 0xffffffff
    4780:	ffff ffff 			; <UNDEFINED> instruction: 0xffffffff
    4784:	ffff ffff 			; <UNDEFINED> instruction: 0xffffffff
    4788:	ffff ffff 			; <UNDEFINED> instruction: 0xffffffff
    478c:	ffff ffff 			; <UNDEFINED> instruction: 0xffffffff
    4790:	ffff ffff 			; <UNDEFINED> instruction: 0xffffffff
    4794:	ffff ffff 			; <UNDEFINED> instruction: 0xffffffff
    4798:	ffff ffff 			; <UNDEFINED> instruction: 0xffffffff
    479c:	ffff ffff 			; <UNDEFINED> instruction: 0xffffffff
    47a0:	ffff ffff 			; <UNDEFINED> instruction: 0xffffffff
    47a4:	ffff ffff 			; <UNDEFINED> instruction: 0xffffffff
    47a8:	ffff ffff 			; <UNDEFINED> instruction: 0xffffffff
    47ac:	ffff ffff 			; <UNDEFINED> instruction: 0xffffffff
    47b0:	ffff ffff 			; <UNDEFINED> instruction: 0xffffffff
    47b4:	ffff ffff 			; <UNDEFINED> instruction: 0xffffffff
    47b8:	ffff ffff 			; <UNDEFINED> instruction: 0xffffffff
    47bc:	ffff ffff 			; <UNDEFINED> instruction: 0xffffffff
    47c0:	ffff ffff 			; <UNDEFINED> instruction: 0xffffffff
    47c4:	ffff ffff 			; <UNDEFINED> instruction: 0xffffffff
    47c8:	ffff ffff 			; <UNDEFINED> instruction: 0xffffffff
    47cc:	ffff ffff 			; <UNDEFINED> instruction: 0xffffffff
    47d0:	ffff ffff 			; <UNDEFINED> instruction: 0xffffffff
    47d4:	ffff ffff 			; <UNDEFINED> instruction: 0xffffffff
    47d8:	ffff ffff 			; <UNDEFINED> instruction: 0xffffffff
    47dc:	ffff ffff 			; <UNDEFINED> instruction: 0xffffffff
    47e0:	ffff ffff 			; <UNDEFINED> instruction: 0xffffffff
    47e4:	ffff ffff 			; <UNDEFINED> instruction: 0xffffffff
    47e8:	ffff ffff 			; <UNDEFINED> instruction: 0xffffffff
    47ec:	ffff ffff 			; <UNDEFINED> instruction: 0xffffffff
    47f0:	ffff ffff 			; <UNDEFINED> instruction: 0xffffffff
    47f4:	ffff ffff 			; <UNDEFINED> instruction: 0xffffffff
    47f8:	ffff ffff 			; <UNDEFINED> instruction: 0xffffffff
    47fc:	ffff ffff 			; <UNDEFINED> instruction: 0xffffffff
    4800:	ffff ffff 			; <UNDEFINED> instruction: 0xffffffff
    4804:	ffff ffff 			; <UNDEFINED> instruction: 0xffffffff
    4808:	ffff ffff 			; <UNDEFINED> instruction: 0xffffffff
    480c:	ffff ffff 			; <UNDEFINED> instruction: 0xffffffff
    4810:	ffff ffff 			; <UNDEFINED> instruction: 0xffffffff
    4814:	ffff ffff 			; <UNDEFINED> instruction: 0xffffffff
    4818:	ffff ffff 			; <UNDEFINED> instruction: 0xffffffff
    481c:	ffff ffff 			; <UNDEFINED> instruction: 0xffffffff
    4820:	ffff ffff 			; <UNDEFINED> instruction: 0xffffffff
    4824:	ffff ffff 			; <UNDEFINED> instruction: 0xffffffff
    4828:	ffff ffff 			; <UNDEFINED> instruction: 0xffffffff
    482c:	ffff ffff 			; <UNDEFINED> instruction: 0xffffffff
    4830:	ffff ffff 			; <UNDEFINED> instruction: 0xffffffff
    4834:	ffff ffff 			; <UNDEFINED> instruction: 0xffffffff
    4838:	ffff ffff 			; <UNDEFINED> instruction: 0xffffffff
    483c:	ffff ffff 			; <UNDEFINED> instruction: 0xffffffff
    4840:	ffff ffff 			; <UNDEFINED> instruction: 0xffffffff
    4844:	ffff ffff 			; <UNDEFINED> instruction: 0xffffffff
    4848:	ffff ffff 			; <UNDEFINED> instruction: 0xffffffff
    484c:	ffff ffff 			; <UNDEFINED> instruction: 0xffffffff
    4850:	ffff ffff 			; <UNDEFINED> instruction: 0xffffffff
    4854:	ffff ffff 			; <UNDEFINED> instruction: 0xffffffff
    4858:	ffff ffff 			; <UNDEFINED> instruction: 0xffffffff
    485c:	ffff ffff 			; <UNDEFINED> instruction: 0xffffffff
    4860:	ffff ffff 			; <UNDEFINED> instruction: 0xffffffff
    4864:	ffff ffff 			; <UNDEFINED> instruction: 0xffffffff
    4868:	ffff ffff 			; <UNDEFINED> instruction: 0xffffffff
    486c:	ffff ffff 			; <UNDEFINED> instruction: 0xffffffff
    4870:	ffff ffff 			; <UNDEFINED> instruction: 0xffffffff
    4874:	ffff ffff 			; <UNDEFINED> instruction: 0xffffffff
    4878:	ffff ffff 			; <UNDEFINED> instruction: 0xffffffff
    487c:	ffff ffff 			; <UNDEFINED> instruction: 0xffffffff
    4880:	ffff ffff 			; <UNDEFINED> instruction: 0xffffffff
    4884:	ffff ffff 			; <UNDEFINED> instruction: 0xffffffff
    4888:	ffff ffff 			; <UNDEFINED> instruction: 0xffffffff
    488c:	ffff ffff 			; <UNDEFINED> instruction: 0xffffffff
    4890:	ffff ffff 			; <UNDEFINED> instruction: 0xffffffff
    4894:	ffff ffff 			; <UNDEFINED> instruction: 0xffffffff
    4898:	ffff ffff 			; <UNDEFINED> instruction: 0xffffffff
    489c:	ffff ffff 			; <UNDEFINED> instruction: 0xffffffff
    48a0:	ffff ffff 			; <UNDEFINED> instruction: 0xffffffff
    48a4:	ffff ffff 			; <UNDEFINED> instruction: 0xffffffff
    48a8:	ffff ffff 			; <UNDEFINED> instruction: 0xffffffff
    48ac:	ffff ffff 			; <UNDEFINED> instruction: 0xffffffff
    48b0:	ffff ffff 			; <UNDEFINED> instruction: 0xffffffff
    48b4:	ffff ffff 			; <UNDEFINED> instruction: 0xffffffff
    48b8:	ffff ffff 			; <UNDEFINED> instruction: 0xffffffff
    48bc:	ffff ffff 			; <UNDEFINED> instruction: 0xffffffff
    48c0:	ffff ffff 			; <UNDEFINED> instruction: 0xffffffff
    48c4:	ffff ffff 			; <UNDEFINED> instruction: 0xffffffff
    48c8:	ffff ffff 			; <UNDEFINED> instruction: 0xffffffff
    48cc:	ffff ffff 			; <UNDEFINED> instruction: 0xffffffff
    48d0:	ffff ffff 			; <UNDEFINED> instruction: 0xffffffff
    48d4:	ffff ffff 			; <UNDEFINED> instruction: 0xffffffff
    48d8:	ffff ffff 			; <UNDEFINED> instruction: 0xffffffff
    48dc:	ffff ffff 			; <UNDEFINED> instruction: 0xffffffff
    48e0:	ffff ffff 			; <UNDEFINED> instruction: 0xffffffff
    48e4:	ffff ffff 			; <UNDEFINED> instruction: 0xffffffff
    48e8:	ffff ffff 			; <UNDEFINED> instruction: 0xffffffff
    48ec:	ffff ffff 			; <UNDEFINED> instruction: 0xffffffff
    48f0:	ffff ffff 			; <UNDEFINED> instruction: 0xffffffff
    48f4:	ffff ffff 			; <UNDEFINED> instruction: 0xffffffff
    48f8:	ffff ffff 			; <UNDEFINED> instruction: 0xffffffff
    48fc:	ffff ffff 			; <UNDEFINED> instruction: 0xffffffff
    4900:	ffff ffff 			; <UNDEFINED> instruction: 0xffffffff
    4904:	ffff ffff 			; <UNDEFINED> instruction: 0xffffffff
    4908:	ffff ffff 			; <UNDEFINED> instruction: 0xffffffff
    490c:	ffff ffff 			; <UNDEFINED> instruction: 0xffffffff
    4910:	ffff ffff 			; <UNDEFINED> instruction: 0xffffffff
    4914:	ffff ffff 			; <UNDEFINED> instruction: 0xffffffff
    4918:	ffff ffff 			; <UNDEFINED> instruction: 0xffffffff
    491c:	ffff ffff 			; <UNDEFINED> instruction: 0xffffffff
    4920:	ffff ffff 			; <UNDEFINED> instruction: 0xffffffff
    4924:	ffff ffff 			; <UNDEFINED> instruction: 0xffffffff
    4928:	ffff ffff 			; <UNDEFINED> instruction: 0xffffffff
    492c:	ffff ffff 			; <UNDEFINED> instruction: 0xffffffff
    4930:	ffff ffff 			; <UNDEFINED> instruction: 0xffffffff
    4934:	ffff ffff 			; <UNDEFINED> instruction: 0xffffffff
    4938:	ffff ffff 			; <UNDEFINED> instruction: 0xffffffff
    493c:	ffff ffff 			; <UNDEFINED> instruction: 0xffffffff
    4940:	ffff ffff 			; <UNDEFINED> instruction: 0xffffffff
    4944:	ffff ffff 			; <UNDEFINED> instruction: 0xffffffff
    4948:	ffff ffff 			; <UNDEFINED> instruction: 0xffffffff
    494c:	ffff ffff 			; <UNDEFINED> instruction: 0xffffffff
    4950:	ffff ffff 			; <UNDEFINED> instruction: 0xffffffff
    4954:	ffff ffff 			; <UNDEFINED> instruction: 0xffffffff
    4958:	ffff ffff 			; <UNDEFINED> instruction: 0xffffffff
    495c:	ffff ffff 			; <UNDEFINED> instruction: 0xffffffff
    4960:	ffff ffff 			; <UNDEFINED> instruction: 0xffffffff
    4964:	ffff ffff 			; <UNDEFINED> instruction: 0xffffffff
    4968:	ffff ffff 			; <UNDEFINED> instruction: 0xffffffff
    496c:	ffff ffff 			; <UNDEFINED> instruction: 0xffffffff
    4970:	ffff ffff 			; <UNDEFINED> instruction: 0xffffffff
    4974:	ffff ffff 			; <UNDEFINED> instruction: 0xffffffff
    4978:	ffff ffff 			; <UNDEFINED> instruction: 0xffffffff
    497c:	ffff ffff 			; <UNDEFINED> instruction: 0xffffffff
    4980:	ffff ffff 			; <UNDEFINED> instruction: 0xffffffff
    4984:	ffff ffff 			; <UNDEFINED> instruction: 0xffffffff
    4988:	ffff ffff 			; <UNDEFINED> instruction: 0xffffffff
    498c:	ffff ffff 			; <UNDEFINED> instruction: 0xffffffff
    4990:	ffff ffff 			; <UNDEFINED> instruction: 0xffffffff
    4994:	ffff ffff 			; <UNDEFINED> instruction: 0xffffffff
    4998:	ffff ffff 			; <UNDEFINED> instruction: 0xffffffff
    499c:	ffff ffff 			; <UNDEFINED> instruction: 0xffffffff
    49a0:	ffff ffff 			; <UNDEFINED> instruction: 0xffffffff
    49a4:	ffff ffff 			; <UNDEFINED> instruction: 0xffffffff
    49a8:	ffff ffff 			; <UNDEFINED> instruction: 0xffffffff
    49ac:	ffff ffff 			; <UNDEFINED> instruction: 0xffffffff
    49b0:	ffff ffff 			; <UNDEFINED> instruction: 0xffffffff
    49b4:	ffff ffff 			; <UNDEFINED> instruction: 0xffffffff
    49b8:	ffff ffff 			; <UNDEFINED> instruction: 0xffffffff
    49bc:	ffff ffff 			; <UNDEFINED> instruction: 0xffffffff
    49c0:	ffff ffff 			; <UNDEFINED> instruction: 0xffffffff
    49c4:	ffff ffff 			; <UNDEFINED> instruction: 0xffffffff
    49c8:	ffff ffff 			; <UNDEFINED> instruction: 0xffffffff
    49cc:	ffff ffff 			; <UNDEFINED> instruction: 0xffffffff
    49d0:	ffff ffff 			; <UNDEFINED> instruction: 0xffffffff
    49d4:	ffff ffff 			; <UNDEFINED> instruction: 0xffffffff
    49d8:	ffff ffff 			; <UNDEFINED> instruction: 0xffffffff
    49dc:	ffff ffff 			; <UNDEFINED> instruction: 0xffffffff
    49e0:	ffff ffff 			; <UNDEFINED> instruction: 0xffffffff
    49e4:	ffff ffff 			; <UNDEFINED> instruction: 0xffffffff
    49e8:	ffff ffff 			; <UNDEFINED> instruction: 0xffffffff
    49ec:	ffff ffff 			; <UNDEFINED> instruction: 0xffffffff
    49f0:	ffff ffff 			; <UNDEFINED> instruction: 0xffffffff
    49f4:	ffff ffff 			; <UNDEFINED> instruction: 0xffffffff
    49f8:	ffff ffff 			; <UNDEFINED> instruction: 0xffffffff
    49fc:	ffff ffff 			; <UNDEFINED> instruction: 0xffffffff
    4a00:	ffff ffff 			; <UNDEFINED> instruction: 0xffffffff
    4a04:	ffff ffff 			; <UNDEFINED> instruction: 0xffffffff
    4a08:	ffff ffff 			; <UNDEFINED> instruction: 0xffffffff
    4a0c:	ffff ffff 			; <UNDEFINED> instruction: 0xffffffff
    4a10:	ffff ffff 			; <UNDEFINED> instruction: 0xffffffff
    4a14:	ffff ffff 			; <UNDEFINED> instruction: 0xffffffff
    4a18:	ffff ffff 			; <UNDEFINED> instruction: 0xffffffff
    4a1c:	ffff ffff 			; <UNDEFINED> instruction: 0xffffffff
    4a20:	ffff ffff 			; <UNDEFINED> instruction: 0xffffffff
    4a24:	ffff ffff 			; <UNDEFINED> instruction: 0xffffffff
    4a28:	ffff ffff 			; <UNDEFINED> instruction: 0xffffffff
    4a2c:	ffff ffff 			; <UNDEFINED> instruction: 0xffffffff
    4a30:	ffff ffff 			; <UNDEFINED> instruction: 0xffffffff
    4a34:	ffff ffff 			; <UNDEFINED> instruction: 0xffffffff
    4a38:	ffff ffff 			; <UNDEFINED> instruction: 0xffffffff
    4a3c:	ffff ffff 			; <UNDEFINED> instruction: 0xffffffff
    4a40:	ffff ffff 			; <UNDEFINED> instruction: 0xffffffff
    4a44:	ffff ffff 			; <UNDEFINED> instruction: 0xffffffff
    4a48:	ffff ffff 			; <UNDEFINED> instruction: 0xffffffff
    4a4c:	ffff ffff 			; <UNDEFINED> instruction: 0xffffffff
    4a50:	ffff ffff 			; <UNDEFINED> instruction: 0xffffffff
    4a54:	ffff ffff 			; <UNDEFINED> instruction: 0xffffffff
    4a58:	ffff ffff 			; <UNDEFINED> instruction: 0xffffffff
    4a5c:	ffff ffff 			; <UNDEFINED> instruction: 0xffffffff
    4a60:	ffff ffff 			; <UNDEFINED> instruction: 0xffffffff
    4a64:	ffff ffff 			; <UNDEFINED> instruction: 0xffffffff
    4a68:	ffff ffff 			; <UNDEFINED> instruction: 0xffffffff
    4a6c:	ffff ffff 			; <UNDEFINED> instruction: 0xffffffff
    4a70:	ffff ffff 			; <UNDEFINED> instruction: 0xffffffff
    4a74:	ffff ffff 			; <UNDEFINED> instruction: 0xffffffff
    4a78:	ffff ffff 			; <UNDEFINED> instruction: 0xffffffff
    4a7c:	ffff ffff 			; <UNDEFINED> instruction: 0xffffffff
    4a80:	ffff ffff 			; <UNDEFINED> instruction: 0xffffffff
    4a84:	ffff ffff 			; <UNDEFINED> instruction: 0xffffffff
    4a88:	ffff ffff 			; <UNDEFINED> instruction: 0xffffffff
    4a8c:	ffff ffff 			; <UNDEFINED> instruction: 0xffffffff
    4a90:	ffff ffff 			; <UNDEFINED> instruction: 0xffffffff
    4a94:	ffff ffff 			; <UNDEFINED> instruction: 0xffffffff
    4a98:	ffff ffff 			; <UNDEFINED> instruction: 0xffffffff
    4a9c:	ffff ffff 			; <UNDEFINED> instruction: 0xffffffff
    4aa0:	ffff ffff 			; <UNDEFINED> instruction: 0xffffffff
    4aa4:	ffff ffff 			; <UNDEFINED> instruction: 0xffffffff
    4aa8:	ffff ffff 			; <UNDEFINED> instruction: 0xffffffff
    4aac:	ffff ffff 			; <UNDEFINED> instruction: 0xffffffff
    4ab0:	ffff ffff 			; <UNDEFINED> instruction: 0xffffffff
    4ab4:	ffff ffff 			; <UNDEFINED> instruction: 0xffffffff
    4ab8:	ffff ffff 			; <UNDEFINED> instruction: 0xffffffff
    4abc:	ffff ffff 			; <UNDEFINED> instruction: 0xffffffff
    4ac0:	ffff ffff 			; <UNDEFINED> instruction: 0xffffffff
    4ac4:	ffff ffff 			; <UNDEFINED> instruction: 0xffffffff
    4ac8:	ffff ffff 			; <UNDEFINED> instruction: 0xffffffff
    4acc:	ffff ffff 			; <UNDEFINED> instruction: 0xffffffff
    4ad0:	ffff ffff 			; <UNDEFINED> instruction: 0xffffffff
    4ad4:	ffff ffff 			; <UNDEFINED> instruction: 0xffffffff
    4ad8:	ffff ffff 			; <UNDEFINED> instruction: 0xffffffff
    4adc:	ffff ffff 			; <UNDEFINED> instruction: 0xffffffff
    4ae0:	ffff ffff 			; <UNDEFINED> instruction: 0xffffffff
    4ae4:	ffff ffff 			; <UNDEFINED> instruction: 0xffffffff
    4ae8:	ffff ffff 			; <UNDEFINED> instruction: 0xffffffff
    4aec:	ffff ffff 			; <UNDEFINED> instruction: 0xffffffff
    4af0:	ffff ffff 			; <UNDEFINED> instruction: 0xffffffff
    4af4:	ffff ffff 			; <UNDEFINED> instruction: 0xffffffff
    4af8:	ffff ffff 			; <UNDEFINED> instruction: 0xffffffff
    4afc:	ffff ffff 			; <UNDEFINED> instruction: 0xffffffff
    4b00:	ffff ffff 			; <UNDEFINED> instruction: 0xffffffff
    4b04:	ffff ffff 			; <UNDEFINED> instruction: 0xffffffff
    4b08:	ffff ffff 			; <UNDEFINED> instruction: 0xffffffff
    4b0c:	ffff ffff 			; <UNDEFINED> instruction: 0xffffffff
    4b10:	ffff ffff 			; <UNDEFINED> instruction: 0xffffffff
    4b14:	ffff ffff 			; <UNDEFINED> instruction: 0xffffffff
    4b18:	ffff ffff 			; <UNDEFINED> instruction: 0xffffffff
    4b1c:	ffff ffff 			; <UNDEFINED> instruction: 0xffffffff
    4b20:	ffff ffff 			; <UNDEFINED> instruction: 0xffffffff
    4b24:	ffff ffff 			; <UNDEFINED> instruction: 0xffffffff
    4b28:	ffff ffff 			; <UNDEFINED> instruction: 0xffffffff
    4b2c:	ffff ffff 			; <UNDEFINED> instruction: 0xffffffff
    4b30:	ffff ffff 			; <UNDEFINED> instruction: 0xffffffff
    4b34:	ffff ffff 			; <UNDEFINED> instruction: 0xffffffff
    4b38:	ffff ffff 			; <UNDEFINED> instruction: 0xffffffff
    4b3c:	ffff ffff 			; <UNDEFINED> instruction: 0xffffffff
    4b40:	ffff ffff 			; <UNDEFINED> instruction: 0xffffffff
    4b44:	ffff ffff 			; <UNDEFINED> instruction: 0xffffffff
    4b48:	ffff ffff 			; <UNDEFINED> instruction: 0xffffffff
    4b4c:	ffff ffff 			; <UNDEFINED> instruction: 0xffffffff
    4b50:	ffff ffff 			; <UNDEFINED> instruction: 0xffffffff
    4b54:	ffff ffff 			; <UNDEFINED> instruction: 0xffffffff
    4b58:	ffff ffff 			; <UNDEFINED> instruction: 0xffffffff
    4b5c:	ffff ffff 			; <UNDEFINED> instruction: 0xffffffff
    4b60:	ffff ffff 			; <UNDEFINED> instruction: 0xffffffff
    4b64:	ffff ffff 			; <UNDEFINED> instruction: 0xffffffff
    4b68:	ffff ffff 			; <UNDEFINED> instruction: 0xffffffff
    4b6c:	ffff ffff 			; <UNDEFINED> instruction: 0xffffffff
    4b70:	ffff ffff 			; <UNDEFINED> instruction: 0xffffffff
    4b74:	ffff ffff 			; <UNDEFINED> instruction: 0xffffffff
    4b78:	ffff ffff 			; <UNDEFINED> instruction: 0xffffffff
    4b7c:	ffff ffff 			; <UNDEFINED> instruction: 0xffffffff
    4b80:	ffff ffff 			; <UNDEFINED> instruction: 0xffffffff
    4b84:	ffff ffff 			; <UNDEFINED> instruction: 0xffffffff
    4b88:	ffff ffff 			; <UNDEFINED> instruction: 0xffffffff
    4b8c:	ffff ffff 			; <UNDEFINED> instruction: 0xffffffff
    4b90:	ffff ffff 			; <UNDEFINED> instruction: 0xffffffff
    4b94:	ffff ffff 			; <UNDEFINED> instruction: 0xffffffff
    4b98:	ffff ffff 			; <UNDEFINED> instruction: 0xffffffff
    4b9c:	ffff ffff 			; <UNDEFINED> instruction: 0xffffffff
    4ba0:	ffff ffff 			; <UNDEFINED> instruction: 0xffffffff
    4ba4:	ffff ffff 			; <UNDEFINED> instruction: 0xffffffff
    4ba8:	ffff ffff 			; <UNDEFINED> instruction: 0xffffffff
    4bac:	ffff ffff 			; <UNDEFINED> instruction: 0xffffffff
    4bb0:	ffff ffff 			; <UNDEFINED> instruction: 0xffffffff
    4bb4:	ffff ffff 			; <UNDEFINED> instruction: 0xffffffff
    4bb8:	ffff ffff 			; <UNDEFINED> instruction: 0xffffffff
    4bbc:	ffff ffff 			; <UNDEFINED> instruction: 0xffffffff
    4bc0:	ffff ffff 			; <UNDEFINED> instruction: 0xffffffff
    4bc4:	ffff ffff 			; <UNDEFINED> instruction: 0xffffffff
    4bc8:	ffff ffff 			; <UNDEFINED> instruction: 0xffffffff
    4bcc:	ffff ffff 			; <UNDEFINED> instruction: 0xffffffff
    4bd0:	ffff ffff 			; <UNDEFINED> instruction: 0xffffffff
    4bd4:	ffff ffff 			; <UNDEFINED> instruction: 0xffffffff
    4bd8:	ffff ffff 			; <UNDEFINED> instruction: 0xffffffff
    4bdc:	ffff ffff 			; <UNDEFINED> instruction: 0xffffffff
    4be0:	ffff ffff 			; <UNDEFINED> instruction: 0xffffffff
    4be4:	ffff ffff 			; <UNDEFINED> instruction: 0xffffffff
    4be8:	ffff ffff 			; <UNDEFINED> instruction: 0xffffffff
    4bec:	ffff ffff 			; <UNDEFINED> instruction: 0xffffffff
    4bf0:	ffff ffff 			; <UNDEFINED> instruction: 0xffffffff
    4bf4:	ffff ffff 			; <UNDEFINED> instruction: 0xffffffff
    4bf8:	ffff ffff 			; <UNDEFINED> instruction: 0xffffffff
    4bfc:	ffff ffff 			; <UNDEFINED> instruction: 0xffffffff
    4c00:	ffff ffff 			; <UNDEFINED> instruction: 0xffffffff
    4c04:	ffff ffff 			; <UNDEFINED> instruction: 0xffffffff
    4c08:	ffff ffff 			; <UNDEFINED> instruction: 0xffffffff
    4c0c:	ffff ffff 			; <UNDEFINED> instruction: 0xffffffff
    4c10:	ffff ffff 			; <UNDEFINED> instruction: 0xffffffff
    4c14:	ffff ffff 			; <UNDEFINED> instruction: 0xffffffff
    4c18:	ffff ffff 			; <UNDEFINED> instruction: 0xffffffff
    4c1c:	ffff ffff 			; <UNDEFINED> instruction: 0xffffffff
    4c20:	ffff ffff 			; <UNDEFINED> instruction: 0xffffffff
    4c24:	ffff ffff 			; <UNDEFINED> instruction: 0xffffffff
    4c28:	ffff ffff 			; <UNDEFINED> instruction: 0xffffffff
    4c2c:	ffff ffff 			; <UNDEFINED> instruction: 0xffffffff
    4c30:	ffff ffff 			; <UNDEFINED> instruction: 0xffffffff
    4c34:	ffff ffff 			; <UNDEFINED> instruction: 0xffffffff
    4c38:	ffff ffff 			; <UNDEFINED> instruction: 0xffffffff
    4c3c:	ffff ffff 			; <UNDEFINED> instruction: 0xffffffff
    4c40:	ffff ffff 			; <UNDEFINED> instruction: 0xffffffff
    4c44:	ffff ffff 			; <UNDEFINED> instruction: 0xffffffff
    4c48:	ffff ffff 			; <UNDEFINED> instruction: 0xffffffff
    4c4c:	ffff ffff 			; <UNDEFINED> instruction: 0xffffffff
    4c50:	ffff ffff 			; <UNDEFINED> instruction: 0xffffffff
    4c54:	ffff ffff 			; <UNDEFINED> instruction: 0xffffffff
    4c58:	ffff ffff 			; <UNDEFINED> instruction: 0xffffffff
    4c5c:	ffff ffff 			; <UNDEFINED> instruction: 0xffffffff
    4c60:	ffff ffff 			; <UNDEFINED> instruction: 0xffffffff
    4c64:	ffff ffff 			; <UNDEFINED> instruction: 0xffffffff
    4c68:	ffff ffff 			; <UNDEFINED> instruction: 0xffffffff
    4c6c:	ffff ffff 			; <UNDEFINED> instruction: 0xffffffff
    4c70:	ffff ffff 			; <UNDEFINED> instruction: 0xffffffff
    4c74:	ffff ffff 			; <UNDEFINED> instruction: 0xffffffff
    4c78:	ffff ffff 			; <UNDEFINED> instruction: 0xffffffff
    4c7c:	ffff ffff 			; <UNDEFINED> instruction: 0xffffffff
    4c80:	ffff ffff 			; <UNDEFINED> instruction: 0xffffffff
    4c84:	ffff ffff 			; <UNDEFINED> instruction: 0xffffffff
    4c88:	ffff ffff 			; <UNDEFINED> instruction: 0xffffffff
    4c8c:	ffff ffff 			; <UNDEFINED> instruction: 0xffffffff
    4c90:	ffff ffff 			; <UNDEFINED> instruction: 0xffffffff
    4c94:	ffff ffff 			; <UNDEFINED> instruction: 0xffffffff
    4c98:	ffff ffff 			; <UNDEFINED> instruction: 0xffffffff
    4c9c:	ffff ffff 			; <UNDEFINED> instruction: 0xffffffff
    4ca0:	ffff ffff 			; <UNDEFINED> instruction: 0xffffffff
    4ca4:	ffff ffff 			; <UNDEFINED> instruction: 0xffffffff
    4ca8:	ffff ffff 			; <UNDEFINED> instruction: 0xffffffff
    4cac:	ffff ffff 			; <UNDEFINED> instruction: 0xffffffff
    4cb0:	ffff ffff 			; <UNDEFINED> instruction: 0xffffffff
    4cb4:	ffff ffff 			; <UNDEFINED> instruction: 0xffffffff
    4cb8:	ffff ffff 			; <UNDEFINED> instruction: 0xffffffff
    4cbc:	ffff ffff 			; <UNDEFINED> instruction: 0xffffffff
    4cc0:	ffff ffff 			; <UNDEFINED> instruction: 0xffffffff
    4cc4:	ffff ffff 			; <UNDEFINED> instruction: 0xffffffff
    4cc8:	ffff ffff 			; <UNDEFINED> instruction: 0xffffffff
    4ccc:	ffff ffff 			; <UNDEFINED> instruction: 0xffffffff
    4cd0:	ffff ffff 			; <UNDEFINED> instruction: 0xffffffff
    4cd4:	ffff ffff 			; <UNDEFINED> instruction: 0xffffffff
    4cd8:	ffff ffff 			; <UNDEFINED> instruction: 0xffffffff
    4cdc:	ffff ffff 			; <UNDEFINED> instruction: 0xffffffff
    4ce0:	ffff ffff 			; <UNDEFINED> instruction: 0xffffffff
    4ce4:	ffff ffff 			; <UNDEFINED> instruction: 0xffffffff
    4ce8:	ffff ffff 			; <UNDEFINED> instruction: 0xffffffff
    4cec:	ffff ffff 			; <UNDEFINED> instruction: 0xffffffff
    4cf0:	ffff ffff 			; <UNDEFINED> instruction: 0xffffffff
    4cf4:	ffff ffff 			; <UNDEFINED> instruction: 0xffffffff
    4cf8:	ffff ffff 			; <UNDEFINED> instruction: 0xffffffff
    4cfc:	ffff ffff 			; <UNDEFINED> instruction: 0xffffffff
    4d00:	ffff ffff 			; <UNDEFINED> instruction: 0xffffffff
    4d04:	ffff ffff 			; <UNDEFINED> instruction: 0xffffffff
    4d08:	ffff ffff 			; <UNDEFINED> instruction: 0xffffffff
    4d0c:	ffff ffff 			; <UNDEFINED> instruction: 0xffffffff
    4d10:	ffff ffff 			; <UNDEFINED> instruction: 0xffffffff
    4d14:	ffff ffff 			; <UNDEFINED> instruction: 0xffffffff
    4d18:	ffff ffff 			; <UNDEFINED> instruction: 0xffffffff
    4d1c:	ffff ffff 			; <UNDEFINED> instruction: 0xffffffff
    4d20:	ffff ffff 			; <UNDEFINED> instruction: 0xffffffff
    4d24:	ffff ffff 			; <UNDEFINED> instruction: 0xffffffff
    4d28:	ffff ffff 			; <UNDEFINED> instruction: 0xffffffff
    4d2c:	ffff ffff 			; <UNDEFINED> instruction: 0xffffffff
    4d30:	ffff ffff 			; <UNDEFINED> instruction: 0xffffffff
    4d34:	ffff ffff 			; <UNDEFINED> instruction: 0xffffffff
    4d38:	ffff ffff 			; <UNDEFINED> instruction: 0xffffffff
    4d3c:	ffff ffff 			; <UNDEFINED> instruction: 0xffffffff
    4d40:	ffff ffff 			; <UNDEFINED> instruction: 0xffffffff
    4d44:	ffff ffff 			; <UNDEFINED> instruction: 0xffffffff
    4d48:	ffff ffff 			; <UNDEFINED> instruction: 0xffffffff
    4d4c:	ffff ffff 			; <UNDEFINED> instruction: 0xffffffff
    4d50:	ffff ffff 			; <UNDEFINED> instruction: 0xffffffff
    4d54:	ffff ffff 			; <UNDEFINED> instruction: 0xffffffff
    4d58:	ffff ffff 			; <UNDEFINED> instruction: 0xffffffff
    4d5c:	ffff ffff 			; <UNDEFINED> instruction: 0xffffffff
    4d60:	ffff ffff 			; <UNDEFINED> instruction: 0xffffffff
    4d64:	ffff ffff 			; <UNDEFINED> instruction: 0xffffffff
    4d68:	ffff ffff 			; <UNDEFINED> instruction: 0xffffffff
    4d6c:	ffff ffff 			; <UNDEFINED> instruction: 0xffffffff
    4d70:	ffff ffff 			; <UNDEFINED> instruction: 0xffffffff
    4d74:	ffff ffff 			; <UNDEFINED> instruction: 0xffffffff
    4d78:	ffff ffff 			; <UNDEFINED> instruction: 0xffffffff
    4d7c:	ffff ffff 			; <UNDEFINED> instruction: 0xffffffff
    4d80:	ffff ffff 			; <UNDEFINED> instruction: 0xffffffff
    4d84:	ffff ffff 			; <UNDEFINED> instruction: 0xffffffff
    4d88:	ffff ffff 			; <UNDEFINED> instruction: 0xffffffff
    4d8c:	ffff ffff 			; <UNDEFINED> instruction: 0xffffffff
    4d90:	ffff ffff 			; <UNDEFINED> instruction: 0xffffffff
    4d94:	ffff ffff 			; <UNDEFINED> instruction: 0xffffffff
    4d98:	ffff ffff 			; <UNDEFINED> instruction: 0xffffffff
    4d9c:	ffff ffff 			; <UNDEFINED> instruction: 0xffffffff
    4da0:	ffff ffff 			; <UNDEFINED> instruction: 0xffffffff
    4da4:	ffff ffff 			; <UNDEFINED> instruction: 0xffffffff
    4da8:	ffff ffff 			; <UNDEFINED> instruction: 0xffffffff
    4dac:	ffff ffff 			; <UNDEFINED> instruction: 0xffffffff
    4db0:	ffff ffff 			; <UNDEFINED> instruction: 0xffffffff
    4db4:	ffff ffff 			; <UNDEFINED> instruction: 0xffffffff
    4db8:	ffff ffff 			; <UNDEFINED> instruction: 0xffffffff
    4dbc:	ffff ffff 			; <UNDEFINED> instruction: 0xffffffff
    4dc0:	ffff ffff 			; <UNDEFINED> instruction: 0xffffffff
    4dc4:	ffff ffff 			; <UNDEFINED> instruction: 0xffffffff
    4dc8:	ffff ffff 			; <UNDEFINED> instruction: 0xffffffff
    4dcc:	ffff ffff 			; <UNDEFINED> instruction: 0xffffffff
    4dd0:	ffff ffff 			; <UNDEFINED> instruction: 0xffffffff
    4dd4:	ffff ffff 			; <UNDEFINED> instruction: 0xffffffff
    4dd8:	ffff ffff 			; <UNDEFINED> instruction: 0xffffffff
    4ddc:	ffff ffff 			; <UNDEFINED> instruction: 0xffffffff
    4de0:	ffff ffff 			; <UNDEFINED> instruction: 0xffffffff
    4de4:	ffff ffff 			; <UNDEFINED> instruction: 0xffffffff
    4de8:	ffff ffff 			; <UNDEFINED> instruction: 0xffffffff
    4dec:	ffff ffff 			; <UNDEFINED> instruction: 0xffffffff
    4df0:	ffff ffff 			; <UNDEFINED> instruction: 0xffffffff
    4df4:	ffff ffff 			; <UNDEFINED> instruction: 0xffffffff
    4df8:	ffff ffff 			; <UNDEFINED> instruction: 0xffffffff
    4dfc:	ffff ffff 			; <UNDEFINED> instruction: 0xffffffff
    4e00:	ffff ffff 			; <UNDEFINED> instruction: 0xffffffff
    4e04:	ffff ffff 			; <UNDEFINED> instruction: 0xffffffff
    4e08:	ffff ffff 			; <UNDEFINED> instruction: 0xffffffff
    4e0c:	ffff ffff 			; <UNDEFINED> instruction: 0xffffffff
    4e10:	ffff ffff 			; <UNDEFINED> instruction: 0xffffffff
    4e14:	ffff ffff 			; <UNDEFINED> instruction: 0xffffffff
    4e18:	ffff ffff 			; <UNDEFINED> instruction: 0xffffffff
    4e1c:	ffff ffff 			; <UNDEFINED> instruction: 0xffffffff
    4e20:	ffff ffff 			; <UNDEFINED> instruction: 0xffffffff
    4e24:	ffff ffff 			; <UNDEFINED> instruction: 0xffffffff
    4e28:	ffff ffff 			; <UNDEFINED> instruction: 0xffffffff
    4e2c:	ffff ffff 			; <UNDEFINED> instruction: 0xffffffff
    4e30:	ffff ffff 			; <UNDEFINED> instruction: 0xffffffff
    4e34:	ffff ffff 			; <UNDEFINED> instruction: 0xffffffff
    4e38:	ffff ffff 			; <UNDEFINED> instruction: 0xffffffff
    4e3c:	ffff ffff 			; <UNDEFINED> instruction: 0xffffffff
    4e40:	ffff ffff 			; <UNDEFINED> instruction: 0xffffffff
    4e44:	ffff ffff 			; <UNDEFINED> instruction: 0xffffffff
    4e48:	ffff ffff 			; <UNDEFINED> instruction: 0xffffffff
    4e4c:	ffff ffff 			; <UNDEFINED> instruction: 0xffffffff
    4e50:	ffff ffff 			; <UNDEFINED> instruction: 0xffffffff
    4e54:	ffff ffff 			; <UNDEFINED> instruction: 0xffffffff
    4e58:	ffff ffff 			; <UNDEFINED> instruction: 0xffffffff
    4e5c:	ffff ffff 			; <UNDEFINED> instruction: 0xffffffff
    4e60:	ffff ffff 			; <UNDEFINED> instruction: 0xffffffff
    4e64:	ffff ffff 			; <UNDEFINED> instruction: 0xffffffff
    4e68:	ffff ffff 			; <UNDEFINED> instruction: 0xffffffff
    4e6c:	ffff ffff 			; <UNDEFINED> instruction: 0xffffffff
    4e70:	ffff ffff 			; <UNDEFINED> instruction: 0xffffffff
    4e74:	ffff ffff 			; <UNDEFINED> instruction: 0xffffffff
    4e78:	ffff ffff 			; <UNDEFINED> instruction: 0xffffffff
    4e7c:	ffff ffff 			; <UNDEFINED> instruction: 0xffffffff
    4e80:	ffff ffff 			; <UNDEFINED> instruction: 0xffffffff
    4e84:	ffff ffff 			; <UNDEFINED> instruction: 0xffffffff
    4e88:	ffff ffff 			; <UNDEFINED> instruction: 0xffffffff
    4e8c:	ffff ffff 			; <UNDEFINED> instruction: 0xffffffff
    4e90:	ffff ffff 			; <UNDEFINED> instruction: 0xffffffff
    4e94:	ffff ffff 			; <UNDEFINED> instruction: 0xffffffff
    4e98:	ffff ffff 			; <UNDEFINED> instruction: 0xffffffff
    4e9c:	ffff ffff 			; <UNDEFINED> instruction: 0xffffffff
    4ea0:	ffff ffff 			; <UNDEFINED> instruction: 0xffffffff
    4ea4:	ffff ffff 			; <UNDEFINED> instruction: 0xffffffff
    4ea8:	ffff ffff 			; <UNDEFINED> instruction: 0xffffffff
    4eac:	ffff ffff 			; <UNDEFINED> instruction: 0xffffffff
    4eb0:	ffff ffff 			; <UNDEFINED> instruction: 0xffffffff
    4eb4:	ffff ffff 			; <UNDEFINED> instruction: 0xffffffff
    4eb8:	ffff ffff 			; <UNDEFINED> instruction: 0xffffffff
    4ebc:	ffff ffff 			; <UNDEFINED> instruction: 0xffffffff
    4ec0:	ffff ffff 			; <UNDEFINED> instruction: 0xffffffff
    4ec4:	ffff ffff 			; <UNDEFINED> instruction: 0xffffffff
    4ec8:	ffff ffff 			; <UNDEFINED> instruction: 0xffffffff
    4ecc:	ffff ffff 			; <UNDEFINED> instruction: 0xffffffff
    4ed0:	ffff ffff 			; <UNDEFINED> instruction: 0xffffffff
    4ed4:	ffff ffff 			; <UNDEFINED> instruction: 0xffffffff
    4ed8:	ffff ffff 			; <UNDEFINED> instruction: 0xffffffff
    4edc:	ffff ffff 			; <UNDEFINED> instruction: 0xffffffff
    4ee0:	ffff ffff 			; <UNDEFINED> instruction: 0xffffffff
    4ee4:	ffff ffff 			; <UNDEFINED> instruction: 0xffffffff
    4ee8:	ffff ffff 			; <UNDEFINED> instruction: 0xffffffff
    4eec:	ffff ffff 			; <UNDEFINED> instruction: 0xffffffff
    4ef0:	ffff ffff 			; <UNDEFINED> instruction: 0xffffffff
    4ef4:	ffff ffff 			; <UNDEFINED> instruction: 0xffffffff
    4ef8:	ffff ffff 			; <UNDEFINED> instruction: 0xffffffff
    4efc:	ffff ffff 			; <UNDEFINED> instruction: 0xffffffff
    4f00:	ffff ffff 			; <UNDEFINED> instruction: 0xffffffff
    4f04:	ffff ffff 			; <UNDEFINED> instruction: 0xffffffff
    4f08:	ffff ffff 			; <UNDEFINED> instruction: 0xffffffff
    4f0c:	ffff ffff 			; <UNDEFINED> instruction: 0xffffffff
    4f10:	ffff ffff 			; <UNDEFINED> instruction: 0xffffffff
    4f14:	ffff ffff 			; <UNDEFINED> instruction: 0xffffffff
    4f18:	ffff ffff 			; <UNDEFINED> instruction: 0xffffffff
    4f1c:	ffff ffff 			; <UNDEFINED> instruction: 0xffffffff
    4f20:	ffff ffff 			; <UNDEFINED> instruction: 0xffffffff
    4f24:	ffff ffff 			; <UNDEFINED> instruction: 0xffffffff
    4f28:	ffff ffff 			; <UNDEFINED> instruction: 0xffffffff
    4f2c:	ffff ffff 			; <UNDEFINED> instruction: 0xffffffff
    4f30:	ffff ffff 			; <UNDEFINED> instruction: 0xffffffff
    4f34:	ffff ffff 			; <UNDEFINED> instruction: 0xffffffff
    4f38:	ffff ffff 			; <UNDEFINED> instruction: 0xffffffff
    4f3c:	ffff ffff 			; <UNDEFINED> instruction: 0xffffffff
    4f40:	ffff ffff 			; <UNDEFINED> instruction: 0xffffffff
    4f44:	ffff ffff 			; <UNDEFINED> instruction: 0xffffffff
    4f48:	ffff ffff 			; <UNDEFINED> instruction: 0xffffffff
    4f4c:	ffff ffff 			; <UNDEFINED> instruction: 0xffffffff
    4f50:	ffff ffff 			; <UNDEFINED> instruction: 0xffffffff
    4f54:	ffff ffff 			; <UNDEFINED> instruction: 0xffffffff
    4f58:	ffff ffff 			; <UNDEFINED> instruction: 0xffffffff
    4f5c:	ffff ffff 			; <UNDEFINED> instruction: 0xffffffff
    4f60:	ffff ffff 			; <UNDEFINED> instruction: 0xffffffff
    4f64:	ffff ffff 			; <UNDEFINED> instruction: 0xffffffff
    4f68:	ffff ffff 			; <UNDEFINED> instruction: 0xffffffff
    4f6c:	ffff ffff 			; <UNDEFINED> instruction: 0xffffffff
    4f70:	ffff ffff 			; <UNDEFINED> instruction: 0xffffffff
    4f74:	ffff ffff 			; <UNDEFINED> instruction: 0xffffffff
    4f78:	ffff ffff 			; <UNDEFINED> instruction: 0xffffffff
    4f7c:	ffff ffff 			; <UNDEFINED> instruction: 0xffffffff
    4f80:	ffff ffff 			; <UNDEFINED> instruction: 0xffffffff
    4f84:	ffff ffff 			; <UNDEFINED> instruction: 0xffffffff
    4f88:	ffff ffff 			; <UNDEFINED> instruction: 0xffffffff
    4f8c:	ffff ffff 			; <UNDEFINED> instruction: 0xffffffff
    4f90:	ffff ffff 			; <UNDEFINED> instruction: 0xffffffff
    4f94:	ffff ffff 			; <UNDEFINED> instruction: 0xffffffff
    4f98:	ffff ffff 			; <UNDEFINED> instruction: 0xffffffff
    4f9c:	ffff ffff 			; <UNDEFINED> instruction: 0xffffffff
    4fa0:	ffff ffff 			; <UNDEFINED> instruction: 0xffffffff
    4fa4:	ffff ffff 			; <UNDEFINED> instruction: 0xffffffff
    4fa8:	ffff ffff 			; <UNDEFINED> instruction: 0xffffffff
    4fac:	ffff ffff 			; <UNDEFINED> instruction: 0xffffffff
    4fb0:	ffff ffff 			; <UNDEFINED> instruction: 0xffffffff
    4fb4:	ffff ffff 			; <UNDEFINED> instruction: 0xffffffff
    4fb8:	ffff ffff 			; <UNDEFINED> instruction: 0xffffffff
    4fbc:	ffff ffff 			; <UNDEFINED> instruction: 0xffffffff
    4fc0:	ffff ffff 			; <UNDEFINED> instruction: 0xffffffff
    4fc4:	ffff ffff 			; <UNDEFINED> instruction: 0xffffffff
    4fc8:	ffff ffff 			; <UNDEFINED> instruction: 0xffffffff
    4fcc:	ffff ffff 			; <UNDEFINED> instruction: 0xffffffff
    4fd0:	ffff ffff 			; <UNDEFINED> instruction: 0xffffffff
    4fd4:	ffff ffff 			; <UNDEFINED> instruction: 0xffffffff
    4fd8:	ffff ffff 			; <UNDEFINED> instruction: 0xffffffff
    4fdc:	ffff ffff 			; <UNDEFINED> instruction: 0xffffffff
    4fe0:	ffff ffff 			; <UNDEFINED> instruction: 0xffffffff
    4fe4:	ffff ffff 			; <UNDEFINED> instruction: 0xffffffff
    4fe8:	ffff ffff 			; <UNDEFINED> instruction: 0xffffffff
    4fec:	ffff ffff 			; <UNDEFINED> instruction: 0xffffffff
    4ff0:	ffff ffff 			; <UNDEFINED> instruction: 0xffffffff
    4ff4:	ffff ffff 			; <UNDEFINED> instruction: 0xffffffff
    4ff8:	ffff ffff 			; <UNDEFINED> instruction: 0xffffffff
    4ffc:	ffff ffff 			; <UNDEFINED> instruction: 0xffffffff
    5000:	ffff ffff 			; <UNDEFINED> instruction: 0xffffffff
    5004:	ffff ffff 			; <UNDEFINED> instruction: 0xffffffff
    5008:	ffff ffff 			; <UNDEFINED> instruction: 0xffffffff
    500c:	ffff ffff 			; <UNDEFINED> instruction: 0xffffffff
    5010:	ffff ffff 			; <UNDEFINED> instruction: 0xffffffff
    5014:	ffff ffff 			; <UNDEFINED> instruction: 0xffffffff
    5018:	ffff ffff 			; <UNDEFINED> instruction: 0xffffffff
    501c:	ffff ffff 			; <UNDEFINED> instruction: 0xffffffff
    5020:	ffff ffff 			; <UNDEFINED> instruction: 0xffffffff
    5024:	ffff ffff 			; <UNDEFINED> instruction: 0xffffffff
    5028:	ffff ffff 			; <UNDEFINED> instruction: 0xffffffff
    502c:	ffff ffff 			; <UNDEFINED> instruction: 0xffffffff
    5030:	ffff ffff 			; <UNDEFINED> instruction: 0xffffffff
    5034:	ffff ffff 			; <UNDEFINED> instruction: 0xffffffff
    5038:	ffff ffff 			; <UNDEFINED> instruction: 0xffffffff
    503c:	ffff ffff 			; <UNDEFINED> instruction: 0xffffffff
    5040:	ffff ffff 			; <UNDEFINED> instruction: 0xffffffff
    5044:	ffff ffff 			; <UNDEFINED> instruction: 0xffffffff
    5048:	ffff ffff 			; <UNDEFINED> instruction: 0xffffffff
    504c:	ffff ffff 			; <UNDEFINED> instruction: 0xffffffff
    5050:	ffff ffff 			; <UNDEFINED> instruction: 0xffffffff
    5054:	ffff ffff 			; <UNDEFINED> instruction: 0xffffffff
    5058:	ffff ffff 			; <UNDEFINED> instruction: 0xffffffff
    505c:	ffff ffff 			; <UNDEFINED> instruction: 0xffffffff
    5060:	ffff ffff 			; <UNDEFINED> instruction: 0xffffffff
    5064:	ffff ffff 			; <UNDEFINED> instruction: 0xffffffff
    5068:	ffff ffff 			; <UNDEFINED> instruction: 0xffffffff
    506c:	ffff ffff 			; <UNDEFINED> instruction: 0xffffffff
    5070:	ffff ffff 			; <UNDEFINED> instruction: 0xffffffff
    5074:	ffff ffff 			; <UNDEFINED> instruction: 0xffffffff
    5078:	ffff ffff 			; <UNDEFINED> instruction: 0xffffffff
    507c:	ffff ffff 			; <UNDEFINED> instruction: 0xffffffff
    5080:	ffff ffff 			; <UNDEFINED> instruction: 0xffffffff
    5084:	ffff ffff 			; <UNDEFINED> instruction: 0xffffffff
    5088:	ffff ffff 			; <UNDEFINED> instruction: 0xffffffff
    508c:	ffff ffff 			; <UNDEFINED> instruction: 0xffffffff
    5090:	ffff ffff 			; <UNDEFINED> instruction: 0xffffffff
    5094:	ffff ffff 			; <UNDEFINED> instruction: 0xffffffff
    5098:	ffff ffff 			; <UNDEFINED> instruction: 0xffffffff
    509c:	ffff ffff 			; <UNDEFINED> instruction: 0xffffffff
    50a0:	ffff ffff 			; <UNDEFINED> instruction: 0xffffffff
    50a4:	ffff ffff 			; <UNDEFINED> instruction: 0xffffffff
    50a8:	ffff ffff 			; <UNDEFINED> instruction: 0xffffffff
    50ac:	ffff ffff 			; <UNDEFINED> instruction: 0xffffffff
    50b0:	ffff ffff 			; <UNDEFINED> instruction: 0xffffffff
    50b4:	ffff ffff 			; <UNDEFINED> instruction: 0xffffffff
    50b8:	ffff ffff 			; <UNDEFINED> instruction: 0xffffffff
    50bc:	ffff ffff 			; <UNDEFINED> instruction: 0xffffffff
    50c0:	ffff ffff 			; <UNDEFINED> instruction: 0xffffffff
    50c4:	ffff ffff 			; <UNDEFINED> instruction: 0xffffffff
    50c8:	ffff ffff 			; <UNDEFINED> instruction: 0xffffffff
    50cc:	ffff ffff 			; <UNDEFINED> instruction: 0xffffffff
    50d0:	ffff ffff 			; <UNDEFINED> instruction: 0xffffffff
    50d4:	ffff ffff 			; <UNDEFINED> instruction: 0xffffffff
    50d8:	ffff ffff 			; <UNDEFINED> instruction: 0xffffffff
    50dc:	ffff ffff 			; <UNDEFINED> instruction: 0xffffffff
    50e0:	ffff ffff 			; <UNDEFINED> instruction: 0xffffffff
    50e4:	ffff ffff 			; <UNDEFINED> instruction: 0xffffffff
    50e8:	ffff ffff 			; <UNDEFINED> instruction: 0xffffffff
    50ec:	ffff ffff 			; <UNDEFINED> instruction: 0xffffffff
    50f0:	ffff ffff 			; <UNDEFINED> instruction: 0xffffffff
    50f4:	ffff ffff 			; <UNDEFINED> instruction: 0xffffffff
    50f8:	ffff ffff 			; <UNDEFINED> instruction: 0xffffffff
    50fc:	ffff ffff 			; <UNDEFINED> instruction: 0xffffffff
    5100:	ffff ffff 			; <UNDEFINED> instruction: 0xffffffff
    5104:	ffff ffff 			; <UNDEFINED> instruction: 0xffffffff
    5108:	ffff ffff 			; <UNDEFINED> instruction: 0xffffffff
    510c:	ffff ffff 			; <UNDEFINED> instruction: 0xffffffff
    5110:	ffff ffff 			; <UNDEFINED> instruction: 0xffffffff
    5114:	ffff ffff 			; <UNDEFINED> instruction: 0xffffffff
    5118:	ffff ffff 			; <UNDEFINED> instruction: 0xffffffff
    511c:	ffff ffff 			; <UNDEFINED> instruction: 0xffffffff
    5120:	ffff ffff 			; <UNDEFINED> instruction: 0xffffffff
    5124:	ffff ffff 			; <UNDEFINED> instruction: 0xffffffff
    5128:	ffff ffff 			; <UNDEFINED> instruction: 0xffffffff
    512c:	ffff ffff 			; <UNDEFINED> instruction: 0xffffffff
    5130:	ffff ffff 			; <UNDEFINED> instruction: 0xffffffff
    5134:	ffff ffff 			; <UNDEFINED> instruction: 0xffffffff
    5138:	ffff ffff 			; <UNDEFINED> instruction: 0xffffffff
    513c:	ffff ffff 			; <UNDEFINED> instruction: 0xffffffff
    5140:	ffff ffff 			; <UNDEFINED> instruction: 0xffffffff
    5144:	ffff ffff 			; <UNDEFINED> instruction: 0xffffffff
    5148:	ffff ffff 			; <UNDEFINED> instruction: 0xffffffff
    514c:	ffff ffff 			; <UNDEFINED> instruction: 0xffffffff
    5150:	ffff ffff 			; <UNDEFINED> instruction: 0xffffffff
    5154:	ffff ffff 			; <UNDEFINED> instruction: 0xffffffff
    5158:	ffff ffff 			; <UNDEFINED> instruction: 0xffffffff
    515c:	ffff ffff 			; <UNDEFINED> instruction: 0xffffffff
    5160:	ffff ffff 			; <UNDEFINED> instruction: 0xffffffff
    5164:	ffff ffff 			; <UNDEFINED> instruction: 0xffffffff
    5168:	ffff ffff 			; <UNDEFINED> instruction: 0xffffffff
    516c:	ffff ffff 			; <UNDEFINED> instruction: 0xffffffff
    5170:	ffff ffff 			; <UNDEFINED> instruction: 0xffffffff
    5174:	ffff ffff 			; <UNDEFINED> instruction: 0xffffffff
    5178:	ffff ffff 			; <UNDEFINED> instruction: 0xffffffff
    517c:	ffff ffff 			; <UNDEFINED> instruction: 0xffffffff
    5180:	ffff ffff 			; <UNDEFINED> instruction: 0xffffffff
    5184:	ffff ffff 			; <UNDEFINED> instruction: 0xffffffff
    5188:	ffff ffff 			; <UNDEFINED> instruction: 0xffffffff
    518c:	ffff ffff 			; <UNDEFINED> instruction: 0xffffffff
    5190:	ffff ffff 			; <UNDEFINED> instruction: 0xffffffff
    5194:	ffff ffff 			; <UNDEFINED> instruction: 0xffffffff
    5198:	ffff ffff 			; <UNDEFINED> instruction: 0xffffffff
    519c:	ffff ffff 			; <UNDEFINED> instruction: 0xffffffff
    51a0:	ffff ffff 			; <UNDEFINED> instruction: 0xffffffff
    51a4:	ffff ffff 			; <UNDEFINED> instruction: 0xffffffff
    51a8:	ffff ffff 			; <UNDEFINED> instruction: 0xffffffff
    51ac:	ffff ffff 			; <UNDEFINED> instruction: 0xffffffff
    51b0:	ffff ffff 			; <UNDEFINED> instruction: 0xffffffff
    51b4:	ffff ffff 			; <UNDEFINED> instruction: 0xffffffff
    51b8:	ffff ffff 			; <UNDEFINED> instruction: 0xffffffff
    51bc:	ffff ffff 			; <UNDEFINED> instruction: 0xffffffff
    51c0:	ffff ffff 			; <UNDEFINED> instruction: 0xffffffff
    51c4:	ffff ffff 			; <UNDEFINED> instruction: 0xffffffff
    51c8:	ffff ffff 			; <UNDEFINED> instruction: 0xffffffff
    51cc:	ffff ffff 			; <UNDEFINED> instruction: 0xffffffff
    51d0:	ffff ffff 			; <UNDEFINED> instruction: 0xffffffff
    51d4:	ffff ffff 			; <UNDEFINED> instruction: 0xffffffff
    51d8:	ffff ffff 			; <UNDEFINED> instruction: 0xffffffff
    51dc:	ffff ffff 			; <UNDEFINED> instruction: 0xffffffff
    51e0:	ffff ffff 			; <UNDEFINED> instruction: 0xffffffff
    51e4:	ffff ffff 			; <UNDEFINED> instruction: 0xffffffff
    51e8:	ffff ffff 			; <UNDEFINED> instruction: 0xffffffff
    51ec:	ffff ffff 			; <UNDEFINED> instruction: 0xffffffff
    51f0:	ffff ffff 			; <UNDEFINED> instruction: 0xffffffff
    51f4:	ffff ffff 			; <UNDEFINED> instruction: 0xffffffff
    51f8:	ffff ffff 			; <UNDEFINED> instruction: 0xffffffff
    51fc:	ffff ffff 			; <UNDEFINED> instruction: 0xffffffff
    5200:	ffff ffff 			; <UNDEFINED> instruction: 0xffffffff
    5204:	ffff ffff 			; <UNDEFINED> instruction: 0xffffffff
    5208:	ffff ffff 			; <UNDEFINED> instruction: 0xffffffff
    520c:	ffff ffff 			; <UNDEFINED> instruction: 0xffffffff
    5210:	ffff ffff 			; <UNDEFINED> instruction: 0xffffffff
    5214:	ffff ffff 			; <UNDEFINED> instruction: 0xffffffff
    5218:	ffff ffff 			; <UNDEFINED> instruction: 0xffffffff
    521c:	ffff ffff 			; <UNDEFINED> instruction: 0xffffffff
    5220:	ffff ffff 			; <UNDEFINED> instruction: 0xffffffff
    5224:	ffff ffff 			; <UNDEFINED> instruction: 0xffffffff
    5228:	ffff ffff 			; <UNDEFINED> instruction: 0xffffffff
    522c:	ffff ffff 			; <UNDEFINED> instruction: 0xffffffff
    5230:	ffff ffff 			; <UNDEFINED> instruction: 0xffffffff
    5234:	ffff ffff 			; <UNDEFINED> instruction: 0xffffffff
    5238:	ffff ffff 			; <UNDEFINED> instruction: 0xffffffff
    523c:	ffff ffff 			; <UNDEFINED> instruction: 0xffffffff
    5240:	ffff ffff 			; <UNDEFINED> instruction: 0xffffffff
    5244:	ffff ffff 			; <UNDEFINED> instruction: 0xffffffff
    5248:	ffff ffff 			; <UNDEFINED> instruction: 0xffffffff
    524c:	ffff ffff 			; <UNDEFINED> instruction: 0xffffffff
    5250:	ffff ffff 			; <UNDEFINED> instruction: 0xffffffff
    5254:	ffff ffff 			; <UNDEFINED> instruction: 0xffffffff
    5258:	ffff ffff 			; <UNDEFINED> instruction: 0xffffffff
    525c:	ffff ffff 			; <UNDEFINED> instruction: 0xffffffff
    5260:	ffff ffff 			; <UNDEFINED> instruction: 0xffffffff
    5264:	ffff ffff 			; <UNDEFINED> instruction: 0xffffffff
    5268:	ffff ffff 			; <UNDEFINED> instruction: 0xffffffff
    526c:	ffff ffff 			; <UNDEFINED> instruction: 0xffffffff
    5270:	ffff ffff 			; <UNDEFINED> instruction: 0xffffffff
    5274:	ffff ffff 			; <UNDEFINED> instruction: 0xffffffff
    5278:	ffff ffff 			; <UNDEFINED> instruction: 0xffffffff
    527c:	ffff ffff 			; <UNDEFINED> instruction: 0xffffffff
    5280:	ffff ffff 			; <UNDEFINED> instruction: 0xffffffff
    5284:	ffff ffff 			; <UNDEFINED> instruction: 0xffffffff
    5288:	ffff ffff 			; <UNDEFINED> instruction: 0xffffffff
    528c:	ffff ffff 			; <UNDEFINED> instruction: 0xffffffff
    5290:	ffff ffff 			; <UNDEFINED> instruction: 0xffffffff
    5294:	ffff ffff 			; <UNDEFINED> instruction: 0xffffffff
    5298:	ffff ffff 			; <UNDEFINED> instruction: 0xffffffff
    529c:	ffff ffff 			; <UNDEFINED> instruction: 0xffffffff
    52a0:	ffff ffff 			; <UNDEFINED> instruction: 0xffffffff
    52a4:	ffff ffff 			; <UNDEFINED> instruction: 0xffffffff
    52a8:	ffff ffff 			; <UNDEFINED> instruction: 0xffffffff
    52ac:	ffff ffff 			; <UNDEFINED> instruction: 0xffffffff
    52b0:	ffff ffff 			; <UNDEFINED> instruction: 0xffffffff
    52b4:	ffff ffff 			; <UNDEFINED> instruction: 0xffffffff
    52b8:	ffff ffff 			; <UNDEFINED> instruction: 0xffffffff
    52bc:	ffff ffff 			; <UNDEFINED> instruction: 0xffffffff
    52c0:	ffff ffff 			; <UNDEFINED> instruction: 0xffffffff
    52c4:	ffff ffff 			; <UNDEFINED> instruction: 0xffffffff
    52c8:	ffff ffff 			; <UNDEFINED> instruction: 0xffffffff
    52cc:	ffff ffff 			; <UNDEFINED> instruction: 0xffffffff
    52d0:	ffff ffff 			; <UNDEFINED> instruction: 0xffffffff
    52d4:	ffff ffff 			; <UNDEFINED> instruction: 0xffffffff
    52d8:	ffff ffff 			; <UNDEFINED> instruction: 0xffffffff
    52dc:	ffff ffff 			; <UNDEFINED> instruction: 0xffffffff
    52e0:	ffff ffff 			; <UNDEFINED> instruction: 0xffffffff
    52e4:	ffff ffff 			; <UNDEFINED> instruction: 0xffffffff
    52e8:	ffff ffff 			; <UNDEFINED> instruction: 0xffffffff
    52ec:	ffff ffff 			; <UNDEFINED> instruction: 0xffffffff
    52f0:	ffff ffff 			; <UNDEFINED> instruction: 0xffffffff
    52f4:	ffff ffff 			; <UNDEFINED> instruction: 0xffffffff
    52f8:	ffff ffff 			; <UNDEFINED> instruction: 0xffffffff
    52fc:	ffff ffff 			; <UNDEFINED> instruction: 0xffffffff
    5300:	ffff ffff 			; <UNDEFINED> instruction: 0xffffffff
    5304:	ffff ffff 			; <UNDEFINED> instruction: 0xffffffff
    5308:	ffff ffff 			; <UNDEFINED> instruction: 0xffffffff
    530c:	ffff ffff 			; <UNDEFINED> instruction: 0xffffffff
    5310:	ffff ffff 			; <UNDEFINED> instruction: 0xffffffff
    5314:	ffff ffff 			; <UNDEFINED> instruction: 0xffffffff
    5318:	ffff ffff 			; <UNDEFINED> instruction: 0xffffffff
    531c:	ffff ffff 			; <UNDEFINED> instruction: 0xffffffff
    5320:	ffff ffff 			; <UNDEFINED> instruction: 0xffffffff
    5324:	ffff ffff 			; <UNDEFINED> instruction: 0xffffffff
    5328:	ffff ffff 			; <UNDEFINED> instruction: 0xffffffff
    532c:	ffff ffff 			; <UNDEFINED> instruction: 0xffffffff
    5330:	ffff ffff 			; <UNDEFINED> instruction: 0xffffffff
    5334:	ffff ffff 			; <UNDEFINED> instruction: 0xffffffff
    5338:	ffff ffff 			; <UNDEFINED> instruction: 0xffffffff
    533c:	ffff ffff 			; <UNDEFINED> instruction: 0xffffffff
    5340:	ffff ffff 			; <UNDEFINED> instruction: 0xffffffff
    5344:	ffff ffff 			; <UNDEFINED> instruction: 0xffffffff
    5348:	ffff ffff 			; <UNDEFINED> instruction: 0xffffffff
    534c:	ffff ffff 			; <UNDEFINED> instruction: 0xffffffff
    5350:	ffff ffff 			; <UNDEFINED> instruction: 0xffffffff
    5354:	ffff ffff 			; <UNDEFINED> instruction: 0xffffffff
    5358:	ffff ffff 			; <UNDEFINED> instruction: 0xffffffff
    535c:	ffff ffff 			; <UNDEFINED> instruction: 0xffffffff
    5360:	ffff ffff 			; <UNDEFINED> instruction: 0xffffffff
    5364:	ffff ffff 			; <UNDEFINED> instruction: 0xffffffff
    5368:	ffff ffff 			; <UNDEFINED> instruction: 0xffffffff
    536c:	ffff ffff 			; <UNDEFINED> instruction: 0xffffffff
    5370:	ffff ffff 			; <UNDEFINED> instruction: 0xffffffff
    5374:	ffff ffff 			; <UNDEFINED> instruction: 0xffffffff
    5378:	ffff ffff 			; <UNDEFINED> instruction: 0xffffffff
    537c:	ffff ffff 			; <UNDEFINED> instruction: 0xffffffff
    5380:	ffff ffff 			; <UNDEFINED> instruction: 0xffffffff
    5384:	ffff ffff 			; <UNDEFINED> instruction: 0xffffffff
    5388:	ffff ffff 			; <UNDEFINED> instruction: 0xffffffff
    538c:	ffff ffff 			; <UNDEFINED> instruction: 0xffffffff
    5390:	ffff ffff 			; <UNDEFINED> instruction: 0xffffffff
    5394:	ffff ffff 			; <UNDEFINED> instruction: 0xffffffff
    5398:	ffff ffff 			; <UNDEFINED> instruction: 0xffffffff
    539c:	ffff ffff 			; <UNDEFINED> instruction: 0xffffffff
    53a0:	ffff ffff 			; <UNDEFINED> instruction: 0xffffffff
    53a4:	ffff ffff 			; <UNDEFINED> instruction: 0xffffffff
    53a8:	ffff ffff 			; <UNDEFINED> instruction: 0xffffffff
    53ac:	ffff ffff 			; <UNDEFINED> instruction: 0xffffffff
    53b0:	ffff ffff 			; <UNDEFINED> instruction: 0xffffffff
    53b4:	ffff ffff 			; <UNDEFINED> instruction: 0xffffffff
    53b8:	ffff ffff 			; <UNDEFINED> instruction: 0xffffffff
    53bc:	ffff ffff 			; <UNDEFINED> instruction: 0xffffffff
    53c0:	ffff ffff 			; <UNDEFINED> instruction: 0xffffffff
    53c4:	ffff ffff 			; <UNDEFINED> instruction: 0xffffffff
    53c8:	ffff ffff 			; <UNDEFINED> instruction: 0xffffffff
    53cc:	ffff ffff 			; <UNDEFINED> instruction: 0xffffffff
    53d0:	ffff ffff 			; <UNDEFINED> instruction: 0xffffffff
    53d4:	ffff ffff 			; <UNDEFINED> instruction: 0xffffffff
    53d8:	ffff ffff 			; <UNDEFINED> instruction: 0xffffffff
    53dc:	ffff ffff 			; <UNDEFINED> instruction: 0xffffffff
    53e0:	ffff ffff 			; <UNDEFINED> instruction: 0xffffffff
    53e4:	ffff ffff 			; <UNDEFINED> instruction: 0xffffffff
    53e8:	ffff ffff 			; <UNDEFINED> instruction: 0xffffffff
    53ec:	ffff ffff 			; <UNDEFINED> instruction: 0xffffffff
    53f0:	ffff ffff 			; <UNDEFINED> instruction: 0xffffffff
    53f4:	ffff ffff 			; <UNDEFINED> instruction: 0xffffffff
    53f8:	ffff ffff 			; <UNDEFINED> instruction: 0xffffffff
    53fc:	ffff ffff 			; <UNDEFINED> instruction: 0xffffffff
    5400:	ffff ffff 			; <UNDEFINED> instruction: 0xffffffff
    5404:	ffff ffff 			; <UNDEFINED> instruction: 0xffffffff
    5408:	ffff ffff 			; <UNDEFINED> instruction: 0xffffffff
    540c:	ffff ffff 			; <UNDEFINED> instruction: 0xffffffff
    5410:	ffff ffff 			; <UNDEFINED> instruction: 0xffffffff
    5414:	ffff ffff 			; <UNDEFINED> instruction: 0xffffffff
    5418:	ffff ffff 			; <UNDEFINED> instruction: 0xffffffff
    541c:	ffff ffff 			; <UNDEFINED> instruction: 0xffffffff
    5420:	ffff ffff 			; <UNDEFINED> instruction: 0xffffffff
    5424:	ffff ffff 			; <UNDEFINED> instruction: 0xffffffff
    5428:	ffff ffff 			; <UNDEFINED> instruction: 0xffffffff
    542c:	ffff ffff 			; <UNDEFINED> instruction: 0xffffffff
    5430:	ffff ffff 			; <UNDEFINED> instruction: 0xffffffff
    5434:	ffff ffff 			; <UNDEFINED> instruction: 0xffffffff
    5438:	ffff ffff 			; <UNDEFINED> instruction: 0xffffffff
    543c:	ffff ffff 			; <UNDEFINED> instruction: 0xffffffff
    5440:	ffff ffff 			; <UNDEFINED> instruction: 0xffffffff
    5444:	ffff ffff 			; <UNDEFINED> instruction: 0xffffffff
    5448:	ffff ffff 			; <UNDEFINED> instruction: 0xffffffff
    544c:	ffff ffff 			; <UNDEFINED> instruction: 0xffffffff
    5450:	ffff ffff 			; <UNDEFINED> instruction: 0xffffffff
    5454:	ffff ffff 			; <UNDEFINED> instruction: 0xffffffff
    5458:	ffff ffff 			; <UNDEFINED> instruction: 0xffffffff
    545c:	ffff ffff 			; <UNDEFINED> instruction: 0xffffffff
    5460:	ffff ffff 			; <UNDEFINED> instruction: 0xffffffff
    5464:	ffff ffff 			; <UNDEFINED> instruction: 0xffffffff
    5468:	ffff ffff 			; <UNDEFINED> instruction: 0xffffffff
    546c:	ffff ffff 			; <UNDEFINED> instruction: 0xffffffff
    5470:	ffff ffff 			; <UNDEFINED> instruction: 0xffffffff
    5474:	ffff ffff 			; <UNDEFINED> instruction: 0xffffffff
    5478:	ffff ffff 			; <UNDEFINED> instruction: 0xffffffff
    547c:	ffff ffff 			; <UNDEFINED> instruction: 0xffffffff
    5480:	ffff ffff 			; <UNDEFINED> instruction: 0xffffffff
    5484:	ffff ffff 			; <UNDEFINED> instruction: 0xffffffff
    5488:	ffff ffff 			; <UNDEFINED> instruction: 0xffffffff
    548c:	ffff ffff 			; <UNDEFINED> instruction: 0xffffffff
    5490:	ffff ffff 			; <UNDEFINED> instruction: 0xffffffff
    5494:	ffff ffff 			; <UNDEFINED> instruction: 0xffffffff
    5498:	ffff ffff 			; <UNDEFINED> instruction: 0xffffffff
    549c:	ffff ffff 			; <UNDEFINED> instruction: 0xffffffff
    54a0:	ffff ffff 			; <UNDEFINED> instruction: 0xffffffff
    54a4:	ffff ffff 			; <UNDEFINED> instruction: 0xffffffff
    54a8:	ffff ffff 			; <UNDEFINED> instruction: 0xffffffff
    54ac:	ffff ffff 			; <UNDEFINED> instruction: 0xffffffff
    54b0:	ffff ffff 			; <UNDEFINED> instruction: 0xffffffff
    54b4:	ffff ffff 			; <UNDEFINED> instruction: 0xffffffff
    54b8:	ffff ffff 			; <UNDEFINED> instruction: 0xffffffff
    54bc:	ffff ffff 			; <UNDEFINED> instruction: 0xffffffff
    54c0:	ffff ffff 			; <UNDEFINED> instruction: 0xffffffff
    54c4:	ffff ffff 			; <UNDEFINED> instruction: 0xffffffff
    54c8:	ffff ffff 			; <UNDEFINED> instruction: 0xffffffff
    54cc:	ffff ffff 			; <UNDEFINED> instruction: 0xffffffff
    54d0:	ffff ffff 			; <UNDEFINED> instruction: 0xffffffff
    54d4:	ffff ffff 			; <UNDEFINED> instruction: 0xffffffff
    54d8:	ffff ffff 			; <UNDEFINED> instruction: 0xffffffff
    54dc:	ffff ffff 			; <UNDEFINED> instruction: 0xffffffff
    54e0:	ffff ffff 			; <UNDEFINED> instruction: 0xffffffff
    54e4:	ffff ffff 			; <UNDEFINED> instruction: 0xffffffff
    54e8:	ffff ffff 			; <UNDEFINED> instruction: 0xffffffff
    54ec:	ffff ffff 			; <UNDEFINED> instruction: 0xffffffff
    54f0:	ffff ffff 			; <UNDEFINED> instruction: 0xffffffff
    54f4:	ffff ffff 			; <UNDEFINED> instruction: 0xffffffff
    54f8:	ffff ffff 			; <UNDEFINED> instruction: 0xffffffff
    54fc:	ffff ffff 			; <UNDEFINED> instruction: 0xffffffff
    5500:	ffff ffff 			; <UNDEFINED> instruction: 0xffffffff
    5504:	ffff ffff 			; <UNDEFINED> instruction: 0xffffffff
    5508:	ffff ffff 			; <UNDEFINED> instruction: 0xffffffff
    550c:	ffff ffff 			; <UNDEFINED> instruction: 0xffffffff
    5510:	ffff ffff 			; <UNDEFINED> instruction: 0xffffffff
    5514:	ffff ffff 			; <UNDEFINED> instruction: 0xffffffff
    5518:	ffff ffff 			; <UNDEFINED> instruction: 0xffffffff
    551c:	ffff ffff 			; <UNDEFINED> instruction: 0xffffffff
    5520:	ffff ffff 			; <UNDEFINED> instruction: 0xffffffff
    5524:	ffff ffff 			; <UNDEFINED> instruction: 0xffffffff
    5528:	ffff ffff 			; <UNDEFINED> instruction: 0xffffffff
    552c:	ffff ffff 			; <UNDEFINED> instruction: 0xffffffff
    5530:	ffff ffff 			; <UNDEFINED> instruction: 0xffffffff
    5534:	ffff ffff 			; <UNDEFINED> instruction: 0xffffffff
    5538:	ffff ffff 			; <UNDEFINED> instruction: 0xffffffff
    553c:	ffff ffff 			; <UNDEFINED> instruction: 0xffffffff
    5540:	ffff ffff 			; <UNDEFINED> instruction: 0xffffffff
    5544:	ffff ffff 			; <UNDEFINED> instruction: 0xffffffff
    5548:	ffff ffff 			; <UNDEFINED> instruction: 0xffffffff
    554c:	ffff ffff 			; <UNDEFINED> instruction: 0xffffffff
    5550:	ffff ffff 			; <UNDEFINED> instruction: 0xffffffff
    5554:	ffff ffff 			; <UNDEFINED> instruction: 0xffffffff
    5558:	ffff ffff 			; <UNDEFINED> instruction: 0xffffffff
    555c:	ffff ffff 			; <UNDEFINED> instruction: 0xffffffff
    5560:	ffff ffff 			; <UNDEFINED> instruction: 0xffffffff
    5564:	ffff ffff 			; <UNDEFINED> instruction: 0xffffffff
    5568:	ffff ffff 			; <UNDEFINED> instruction: 0xffffffff
    556c:	ffff ffff 			; <UNDEFINED> instruction: 0xffffffff
    5570:	ffff ffff 			; <UNDEFINED> instruction: 0xffffffff
    5574:	ffff ffff 			; <UNDEFINED> instruction: 0xffffffff
    5578:	ffff ffff 			; <UNDEFINED> instruction: 0xffffffff
    557c:	ffff ffff 			; <UNDEFINED> instruction: 0xffffffff
    5580:	ffff ffff 			; <UNDEFINED> instruction: 0xffffffff
    5584:	ffff ffff 			; <UNDEFINED> instruction: 0xffffffff
    5588:	ffff ffff 			; <UNDEFINED> instruction: 0xffffffff
    558c:	ffff ffff 			; <UNDEFINED> instruction: 0xffffffff
    5590:	ffff ffff 			; <UNDEFINED> instruction: 0xffffffff
    5594:	ffff ffff 			; <UNDEFINED> instruction: 0xffffffff
    5598:	ffff ffff 			; <UNDEFINED> instruction: 0xffffffff
    559c:	ffff ffff 			; <UNDEFINED> instruction: 0xffffffff
    55a0:	ffff ffff 			; <UNDEFINED> instruction: 0xffffffff
    55a4:	ffff ffff 			; <UNDEFINED> instruction: 0xffffffff
    55a8:	ffff ffff 			; <UNDEFINED> instruction: 0xffffffff
    55ac:	ffff ffff 			; <UNDEFINED> instruction: 0xffffffff
    55b0:	ffff ffff 			; <UNDEFINED> instruction: 0xffffffff
    55b4:	ffff ffff 			; <UNDEFINED> instruction: 0xffffffff
    55b8:	ffff ffff 			; <UNDEFINED> instruction: 0xffffffff
    55bc:	ffff ffff 			; <UNDEFINED> instruction: 0xffffffff
    55c0:	ffff ffff 			; <UNDEFINED> instruction: 0xffffffff
    55c4:	ffff ffff 			; <UNDEFINED> instruction: 0xffffffff
    55c8:	ffff ffff 			; <UNDEFINED> instruction: 0xffffffff
    55cc:	ffff ffff 			; <UNDEFINED> instruction: 0xffffffff
    55d0:	ffff ffff 			; <UNDEFINED> instruction: 0xffffffff
    55d4:	ffff ffff 			; <UNDEFINED> instruction: 0xffffffff
    55d8:	ffff ffff 			; <UNDEFINED> instruction: 0xffffffff
    55dc:	ffff ffff 			; <UNDEFINED> instruction: 0xffffffff
    55e0:	ffff ffff 			; <UNDEFINED> instruction: 0xffffffff
    55e4:	ffff ffff 			; <UNDEFINED> instruction: 0xffffffff
    55e8:	ffff ffff 			; <UNDEFINED> instruction: 0xffffffff
    55ec:	ffff ffff 			; <UNDEFINED> instruction: 0xffffffff
    55f0:	ffff ffff 			; <UNDEFINED> instruction: 0xffffffff
    55f4:	ffff ffff 			; <UNDEFINED> instruction: 0xffffffff
    55f8:	ffff ffff 			; <UNDEFINED> instruction: 0xffffffff
    55fc:	ffff ffff 			; <UNDEFINED> instruction: 0xffffffff
    5600:	ffff ffff 			; <UNDEFINED> instruction: 0xffffffff
    5604:	ffff ffff 			; <UNDEFINED> instruction: 0xffffffff
    5608:	ffff ffff 			; <UNDEFINED> instruction: 0xffffffff
    560c:	ffff ffff 			; <UNDEFINED> instruction: 0xffffffff
    5610:	ffff ffff 			; <UNDEFINED> instruction: 0xffffffff
    5614:	ffff ffff 			; <UNDEFINED> instruction: 0xffffffff
    5618:	ffff ffff 			; <UNDEFINED> instruction: 0xffffffff
    561c:	ffff ffff 			; <UNDEFINED> instruction: 0xffffffff
    5620:	ffff ffff 			; <UNDEFINED> instruction: 0xffffffff
    5624:	ffff ffff 			; <UNDEFINED> instruction: 0xffffffff
    5628:	ffff ffff 			; <UNDEFINED> instruction: 0xffffffff
    562c:	ffff ffff 			; <UNDEFINED> instruction: 0xffffffff
    5630:	ffff ffff 			; <UNDEFINED> instruction: 0xffffffff
    5634:	ffff ffff 			; <UNDEFINED> instruction: 0xffffffff
    5638:	ffff ffff 			; <UNDEFINED> instruction: 0xffffffff
    563c:	ffff ffff 			; <UNDEFINED> instruction: 0xffffffff
    5640:	ffff ffff 			; <UNDEFINED> instruction: 0xffffffff
    5644:	ffff ffff 			; <UNDEFINED> instruction: 0xffffffff
    5648:	ffff ffff 			; <UNDEFINED> instruction: 0xffffffff
    564c:	ffff ffff 			; <UNDEFINED> instruction: 0xffffffff
    5650:	ffff ffff 			; <UNDEFINED> instruction: 0xffffffff
    5654:	ffff ffff 			; <UNDEFINED> instruction: 0xffffffff
    5658:	ffff ffff 			; <UNDEFINED> instruction: 0xffffffff
    565c:	ffff ffff 			; <UNDEFINED> instruction: 0xffffffff
    5660:	ffff ffff 			; <UNDEFINED> instruction: 0xffffffff
    5664:	ffff ffff 			; <UNDEFINED> instruction: 0xffffffff
    5668:	ffff ffff 			; <UNDEFINED> instruction: 0xffffffff
    566c:	ffff ffff 			; <UNDEFINED> instruction: 0xffffffff
    5670:	ffff ffff 			; <UNDEFINED> instruction: 0xffffffff
    5674:	ffff ffff 			; <UNDEFINED> instruction: 0xffffffff
    5678:	ffff ffff 			; <UNDEFINED> instruction: 0xffffffff
    567c:	ffff ffff 			; <UNDEFINED> instruction: 0xffffffff
    5680:	ffff ffff 			; <UNDEFINED> instruction: 0xffffffff
    5684:	ffff ffff 			; <UNDEFINED> instruction: 0xffffffff
    5688:	ffff ffff 			; <UNDEFINED> instruction: 0xffffffff
    568c:	ffff ffff 			; <UNDEFINED> instruction: 0xffffffff
    5690:	ffff ffff 			; <UNDEFINED> instruction: 0xffffffff
    5694:	ffff ffff 			; <UNDEFINED> instruction: 0xffffffff
    5698:	ffff ffff 			; <UNDEFINED> instruction: 0xffffffff
    569c:	ffff ffff 			; <UNDEFINED> instruction: 0xffffffff
    56a0:	ffff ffff 			; <UNDEFINED> instruction: 0xffffffff
    56a4:	ffff ffff 			; <UNDEFINED> instruction: 0xffffffff
    56a8:	ffff ffff 			; <UNDEFINED> instruction: 0xffffffff
    56ac:	ffff ffff 			; <UNDEFINED> instruction: 0xffffffff
    56b0:	ffff ffff 			; <UNDEFINED> instruction: 0xffffffff
    56b4:	ffff ffff 			; <UNDEFINED> instruction: 0xffffffff
    56b8:	ffff ffff 			; <UNDEFINED> instruction: 0xffffffff
    56bc:	ffff ffff 			; <UNDEFINED> instruction: 0xffffffff
    56c0:	ffff ffff 			; <UNDEFINED> instruction: 0xffffffff
    56c4:	ffff ffff 			; <UNDEFINED> instruction: 0xffffffff
    56c8:	ffff ffff 			; <UNDEFINED> instruction: 0xffffffff
    56cc:	ffff ffff 			; <UNDEFINED> instruction: 0xffffffff
    56d0:	ffff ffff 			; <UNDEFINED> instruction: 0xffffffff
    56d4:	ffff ffff 			; <UNDEFINED> instruction: 0xffffffff
    56d8:	ffff ffff 			; <UNDEFINED> instruction: 0xffffffff
    56dc:	ffff ffff 			; <UNDEFINED> instruction: 0xffffffff
    56e0:	ffff ffff 			; <UNDEFINED> instruction: 0xffffffff
    56e4:	ffff ffff 			; <UNDEFINED> instruction: 0xffffffff
    56e8:	ffff ffff 			; <UNDEFINED> instruction: 0xffffffff
    56ec:	ffff ffff 			; <UNDEFINED> instruction: 0xffffffff
    56f0:	ffff ffff 			; <UNDEFINED> instruction: 0xffffffff
    56f4:	ffff ffff 			; <UNDEFINED> instruction: 0xffffffff
    56f8:	ffff ffff 			; <UNDEFINED> instruction: 0xffffffff
    56fc:	ffff ffff 			; <UNDEFINED> instruction: 0xffffffff
    5700:	ffff ffff 			; <UNDEFINED> instruction: 0xffffffff
    5704:	ffff ffff 			; <UNDEFINED> instruction: 0xffffffff
    5708:	ffff ffff 			; <UNDEFINED> instruction: 0xffffffff
    570c:	ffff ffff 			; <UNDEFINED> instruction: 0xffffffff
    5710:	ffff ffff 			; <UNDEFINED> instruction: 0xffffffff
    5714:	ffff ffff 			; <UNDEFINED> instruction: 0xffffffff
    5718:	ffff ffff 			; <UNDEFINED> instruction: 0xffffffff
    571c:	ffff ffff 			; <UNDEFINED> instruction: 0xffffffff
    5720:	ffff ffff 			; <UNDEFINED> instruction: 0xffffffff
    5724:	ffff ffff 			; <UNDEFINED> instruction: 0xffffffff
    5728:	ffff ffff 			; <UNDEFINED> instruction: 0xffffffff
    572c:	ffff ffff 			; <UNDEFINED> instruction: 0xffffffff
    5730:	ffff ffff 			; <UNDEFINED> instruction: 0xffffffff
    5734:	ffff ffff 			; <UNDEFINED> instruction: 0xffffffff
    5738:	ffff ffff 			; <UNDEFINED> instruction: 0xffffffff
    573c:	ffff ffff 			; <UNDEFINED> instruction: 0xffffffff
    5740:	ffff ffff 			; <UNDEFINED> instruction: 0xffffffff
    5744:	ffff ffff 			; <UNDEFINED> instruction: 0xffffffff
    5748:	ffff ffff 			; <UNDEFINED> instruction: 0xffffffff
    574c:	ffff ffff 			; <UNDEFINED> instruction: 0xffffffff
    5750:	ffff ffff 			; <UNDEFINED> instruction: 0xffffffff
    5754:	ffff ffff 			; <UNDEFINED> instruction: 0xffffffff
    5758:	ffff ffff 			; <UNDEFINED> instruction: 0xffffffff
    575c:	ffff ffff 			; <UNDEFINED> instruction: 0xffffffff
    5760:	ffff ffff 			; <UNDEFINED> instruction: 0xffffffff
    5764:	ffff ffff 			; <UNDEFINED> instruction: 0xffffffff
    5768:	ffff ffff 			; <UNDEFINED> instruction: 0xffffffff
    576c:	ffff ffff 			; <UNDEFINED> instruction: 0xffffffff
    5770:	ffff ffff 			; <UNDEFINED> instruction: 0xffffffff
    5774:	ffff ffff 			; <UNDEFINED> instruction: 0xffffffff
    5778:	ffff ffff 			; <UNDEFINED> instruction: 0xffffffff
    577c:	ffff ffff 			; <UNDEFINED> instruction: 0xffffffff
    5780:	ffff ffff 			; <UNDEFINED> instruction: 0xffffffff
    5784:	ffff ffff 			; <UNDEFINED> instruction: 0xffffffff
    5788:	ffff ffff 			; <UNDEFINED> instruction: 0xffffffff
    578c:	ffff ffff 			; <UNDEFINED> instruction: 0xffffffff
    5790:	ffff ffff 			; <UNDEFINED> instruction: 0xffffffff
    5794:	ffff ffff 			; <UNDEFINED> instruction: 0xffffffff
    5798:	ffff ffff 			; <UNDEFINED> instruction: 0xffffffff
    579c:	ffff ffff 			; <UNDEFINED> instruction: 0xffffffff
    57a0:	ffff ffff 			; <UNDEFINED> instruction: 0xffffffff
    57a4:	ffff ffff 			; <UNDEFINED> instruction: 0xffffffff
    57a8:	ffff ffff 			; <UNDEFINED> instruction: 0xffffffff
    57ac:	ffff ffff 			; <UNDEFINED> instruction: 0xffffffff
    57b0:	ffff ffff 			; <UNDEFINED> instruction: 0xffffffff
    57b4:	ffff ffff 			; <UNDEFINED> instruction: 0xffffffff
    57b8:	ffff ffff 			; <UNDEFINED> instruction: 0xffffffff
    57bc:	ffff ffff 			; <UNDEFINED> instruction: 0xffffffff
    57c0:	ffff ffff 			; <UNDEFINED> instruction: 0xffffffff
    57c4:	ffff ffff 			; <UNDEFINED> instruction: 0xffffffff
    57c8:	ffff ffff 			; <UNDEFINED> instruction: 0xffffffff
    57cc:	ffff ffff 			; <UNDEFINED> instruction: 0xffffffff
    57d0:	ffff ffff 			; <UNDEFINED> instruction: 0xffffffff
    57d4:	ffff ffff 			; <UNDEFINED> instruction: 0xffffffff
    57d8:	ffff ffff 			; <UNDEFINED> instruction: 0xffffffff
    57dc:	ffff ffff 			; <UNDEFINED> instruction: 0xffffffff
    57e0:	ffff ffff 			; <UNDEFINED> instruction: 0xffffffff
    57e4:	ffff ffff 			; <UNDEFINED> instruction: 0xffffffff
    57e8:	ffff ffff 			; <UNDEFINED> instruction: 0xffffffff
    57ec:	ffff ffff 			; <UNDEFINED> instruction: 0xffffffff
    57f0:	ffff ffff 			; <UNDEFINED> instruction: 0xffffffff
    57f4:	ffff ffff 			; <UNDEFINED> instruction: 0xffffffff
    57f8:	ffff ffff 			; <UNDEFINED> instruction: 0xffffffff
    57fc:	ffff ffff 			; <UNDEFINED> instruction: 0xffffffff
    5800:	ffff ffff 			; <UNDEFINED> instruction: 0xffffffff
    5804:	ffff ffff 			; <UNDEFINED> instruction: 0xffffffff
    5808:	ffff ffff 			; <UNDEFINED> instruction: 0xffffffff
    580c:	ffff ffff 			; <UNDEFINED> instruction: 0xffffffff
    5810:	ffff ffff 			; <UNDEFINED> instruction: 0xffffffff
    5814:	ffff ffff 			; <UNDEFINED> instruction: 0xffffffff
    5818:	ffff ffff 			; <UNDEFINED> instruction: 0xffffffff
    581c:	ffff ffff 			; <UNDEFINED> instruction: 0xffffffff
    5820:	ffff ffff 			; <UNDEFINED> instruction: 0xffffffff
    5824:	ffff ffff 			; <UNDEFINED> instruction: 0xffffffff
    5828:	ffff ffff 			; <UNDEFINED> instruction: 0xffffffff
    582c:	ffff ffff 			; <UNDEFINED> instruction: 0xffffffff
    5830:	ffff ffff 			; <UNDEFINED> instruction: 0xffffffff
    5834:	ffff ffff 			; <UNDEFINED> instruction: 0xffffffff
    5838:	ffff ffff 			; <UNDEFINED> instruction: 0xffffffff
    583c:	ffff ffff 			; <UNDEFINED> instruction: 0xffffffff
    5840:	ffff ffff 			; <UNDEFINED> instruction: 0xffffffff
    5844:	ffff ffff 			; <UNDEFINED> instruction: 0xffffffff
    5848:	ffff ffff 			; <UNDEFINED> instruction: 0xffffffff
    584c:	ffff ffff 			; <UNDEFINED> instruction: 0xffffffff
    5850:	ffff ffff 			; <UNDEFINED> instruction: 0xffffffff
    5854:	ffff ffff 			; <UNDEFINED> instruction: 0xffffffff
    5858:	ffff ffff 			; <UNDEFINED> instruction: 0xffffffff
    585c:	ffff ffff 			; <UNDEFINED> instruction: 0xffffffff
    5860:	ffff ffff 			; <UNDEFINED> instruction: 0xffffffff
    5864:	ffff ffff 			; <UNDEFINED> instruction: 0xffffffff
    5868:	ffff ffff 			; <UNDEFINED> instruction: 0xffffffff
    586c:	ffff ffff 			; <UNDEFINED> instruction: 0xffffffff
    5870:	ffff ffff 			; <UNDEFINED> instruction: 0xffffffff
    5874:	ffff ffff 			; <UNDEFINED> instruction: 0xffffffff
    5878:	ffff ffff 			; <UNDEFINED> instruction: 0xffffffff
    587c:	ffff ffff 			; <UNDEFINED> instruction: 0xffffffff
    5880:	ffff ffff 			; <UNDEFINED> instruction: 0xffffffff
    5884:	ffff ffff 			; <UNDEFINED> instruction: 0xffffffff
    5888:	ffff ffff 			; <UNDEFINED> instruction: 0xffffffff
    588c:	ffff ffff 			; <UNDEFINED> instruction: 0xffffffff
    5890:	ffff ffff 			; <UNDEFINED> instruction: 0xffffffff
    5894:	ffff ffff 			; <UNDEFINED> instruction: 0xffffffff
    5898:	ffff ffff 			; <UNDEFINED> instruction: 0xffffffff
    589c:	ffff ffff 			; <UNDEFINED> instruction: 0xffffffff
    58a0:	ffff ffff 			; <UNDEFINED> instruction: 0xffffffff
    58a4:	ffff ffff 			; <UNDEFINED> instruction: 0xffffffff
    58a8:	ffff ffff 			; <UNDEFINED> instruction: 0xffffffff
    58ac:	ffff ffff 			; <UNDEFINED> instruction: 0xffffffff
    58b0:	ffff ffff 			; <UNDEFINED> instruction: 0xffffffff
    58b4:	ffff ffff 			; <UNDEFINED> instruction: 0xffffffff
    58b8:	ffff ffff 			; <UNDEFINED> instruction: 0xffffffff
    58bc:	ffff ffff 			; <UNDEFINED> instruction: 0xffffffff
    58c0:	ffff ffff 			; <UNDEFINED> instruction: 0xffffffff
    58c4:	ffff ffff 			; <UNDEFINED> instruction: 0xffffffff
    58c8:	ffff ffff 			; <UNDEFINED> instruction: 0xffffffff
    58cc:	ffff ffff 			; <UNDEFINED> instruction: 0xffffffff
    58d0:	ffff ffff 			; <UNDEFINED> instruction: 0xffffffff
    58d4:	ffff ffff 			; <UNDEFINED> instruction: 0xffffffff
    58d8:	ffff ffff 			; <UNDEFINED> instruction: 0xffffffff
    58dc:	ffff ffff 			; <UNDEFINED> instruction: 0xffffffff
    58e0:	ffff ffff 			; <UNDEFINED> instruction: 0xffffffff
    58e4:	ffff ffff 			; <UNDEFINED> instruction: 0xffffffff
    58e8:	ffff ffff 			; <UNDEFINED> instruction: 0xffffffff
    58ec:	ffff ffff 			; <UNDEFINED> instruction: 0xffffffff
    58f0:	ffff ffff 			; <UNDEFINED> instruction: 0xffffffff
    58f4:	ffff ffff 			; <UNDEFINED> instruction: 0xffffffff
    58f8:	ffff ffff 			; <UNDEFINED> instruction: 0xffffffff
    58fc:	ffff ffff 			; <UNDEFINED> instruction: 0xffffffff
    5900:	ffff ffff 			; <UNDEFINED> instruction: 0xffffffff
    5904:	ffff ffff 			; <UNDEFINED> instruction: 0xffffffff
    5908:	ffff ffff 			; <UNDEFINED> instruction: 0xffffffff
    590c:	ffff ffff 			; <UNDEFINED> instruction: 0xffffffff
    5910:	ffff ffff 			; <UNDEFINED> instruction: 0xffffffff
    5914:	ffff ffff 			; <UNDEFINED> instruction: 0xffffffff
    5918:	ffff ffff 			; <UNDEFINED> instruction: 0xffffffff
    591c:	ffff ffff 			; <UNDEFINED> instruction: 0xffffffff
    5920:	ffff ffff 			; <UNDEFINED> instruction: 0xffffffff
    5924:	ffff ffff 			; <UNDEFINED> instruction: 0xffffffff
    5928:	ffff ffff 			; <UNDEFINED> instruction: 0xffffffff
    592c:	ffff ffff 			; <UNDEFINED> instruction: 0xffffffff
    5930:	ffff ffff 			; <UNDEFINED> instruction: 0xffffffff
    5934:	ffff ffff 			; <UNDEFINED> instruction: 0xffffffff
    5938:	ffff ffff 			; <UNDEFINED> instruction: 0xffffffff
    593c:	ffff ffff 			; <UNDEFINED> instruction: 0xffffffff
    5940:	ffff ffff 			; <UNDEFINED> instruction: 0xffffffff
    5944:	ffff ffff 			; <UNDEFINED> instruction: 0xffffffff
    5948:	ffff ffff 			; <UNDEFINED> instruction: 0xffffffff
    594c:	ffff ffff 			; <UNDEFINED> instruction: 0xffffffff
    5950:	ffff ffff 			; <UNDEFINED> instruction: 0xffffffff
    5954:	ffff ffff 			; <UNDEFINED> instruction: 0xffffffff
    5958:	ffff ffff 			; <UNDEFINED> instruction: 0xffffffff
    595c:	ffff ffff 			; <UNDEFINED> instruction: 0xffffffff
    5960:	ffff ffff 			; <UNDEFINED> instruction: 0xffffffff
    5964:	ffff ffff 			; <UNDEFINED> instruction: 0xffffffff
    5968:	ffff ffff 			; <UNDEFINED> instruction: 0xffffffff
    596c:	ffff ffff 			; <UNDEFINED> instruction: 0xffffffff
    5970:	ffff ffff 			; <UNDEFINED> instruction: 0xffffffff
    5974:	ffff ffff 			; <UNDEFINED> instruction: 0xffffffff
    5978:	ffff ffff 			; <UNDEFINED> instruction: 0xffffffff
    597c:	ffff ffff 			; <UNDEFINED> instruction: 0xffffffff
    5980:	ffff ffff 			; <UNDEFINED> instruction: 0xffffffff
    5984:	ffff ffff 			; <UNDEFINED> instruction: 0xffffffff
    5988:	ffff ffff 			; <UNDEFINED> instruction: 0xffffffff
    598c:	ffff ffff 			; <UNDEFINED> instruction: 0xffffffff
    5990:	ffff ffff 			; <UNDEFINED> instruction: 0xffffffff
    5994:	ffff ffff 			; <UNDEFINED> instruction: 0xffffffff
    5998:	ffff ffff 			; <UNDEFINED> instruction: 0xffffffff
    599c:	ffff ffff 			; <UNDEFINED> instruction: 0xffffffff
    59a0:	ffff ffff 			; <UNDEFINED> instruction: 0xffffffff
    59a4:	ffff ffff 			; <UNDEFINED> instruction: 0xffffffff
    59a8:	ffff ffff 			; <UNDEFINED> instruction: 0xffffffff
    59ac:	ffff ffff 			; <UNDEFINED> instruction: 0xffffffff
    59b0:	ffff ffff 			; <UNDEFINED> instruction: 0xffffffff
    59b4:	ffff ffff 			; <UNDEFINED> instruction: 0xffffffff
    59b8:	ffff ffff 			; <UNDEFINED> instruction: 0xffffffff
    59bc:	ffff ffff 			; <UNDEFINED> instruction: 0xffffffff
    59c0:	ffff ffff 			; <UNDEFINED> instruction: 0xffffffff
    59c4:	ffff ffff 			; <UNDEFINED> instruction: 0xffffffff
    59c8:	ffff ffff 			; <UNDEFINED> instruction: 0xffffffff
    59cc:	ffff ffff 			; <UNDEFINED> instruction: 0xffffffff
    59d0:	ffff ffff 			; <UNDEFINED> instruction: 0xffffffff
    59d4:	ffff ffff 			; <UNDEFINED> instruction: 0xffffffff
    59d8:	ffff ffff 			; <UNDEFINED> instruction: 0xffffffff
    59dc:	ffff ffff 			; <UNDEFINED> instruction: 0xffffffff
    59e0:	ffff ffff 			; <UNDEFINED> instruction: 0xffffffff
    59e4:	ffff ffff 			; <UNDEFINED> instruction: 0xffffffff
    59e8:	ffff ffff 			; <UNDEFINED> instruction: 0xffffffff
    59ec:	ffff ffff 			; <UNDEFINED> instruction: 0xffffffff
    59f0:	ffff ffff 			; <UNDEFINED> instruction: 0xffffffff
    59f4:	ffff ffff 			; <UNDEFINED> instruction: 0xffffffff
    59f8:	ffff ffff 			; <UNDEFINED> instruction: 0xffffffff
    59fc:	ffff ffff 			; <UNDEFINED> instruction: 0xffffffff
    5a00:	ffff ffff 			; <UNDEFINED> instruction: 0xffffffff
    5a04:	ffff ffff 			; <UNDEFINED> instruction: 0xffffffff
    5a08:	ffff ffff 			; <UNDEFINED> instruction: 0xffffffff
    5a0c:	ffff ffff 			; <UNDEFINED> instruction: 0xffffffff
    5a10:	ffff ffff 			; <UNDEFINED> instruction: 0xffffffff
    5a14:	ffff ffff 			; <UNDEFINED> instruction: 0xffffffff
    5a18:	ffff ffff 			; <UNDEFINED> instruction: 0xffffffff
    5a1c:	ffff ffff 			; <UNDEFINED> instruction: 0xffffffff
    5a20:	ffff ffff 			; <UNDEFINED> instruction: 0xffffffff
    5a24:	ffff ffff 			; <UNDEFINED> instruction: 0xffffffff
    5a28:	ffff ffff 			; <UNDEFINED> instruction: 0xffffffff
    5a2c:	ffff ffff 			; <UNDEFINED> instruction: 0xffffffff
    5a30:	ffff ffff 			; <UNDEFINED> instruction: 0xffffffff
    5a34:	ffff ffff 			; <UNDEFINED> instruction: 0xffffffff
    5a38:	ffff ffff 			; <UNDEFINED> instruction: 0xffffffff
    5a3c:	ffff ffff 			; <UNDEFINED> instruction: 0xffffffff
    5a40:	ffff ffff 			; <UNDEFINED> instruction: 0xffffffff
    5a44:	ffff ffff 			; <UNDEFINED> instruction: 0xffffffff
    5a48:	ffff ffff 			; <UNDEFINED> instruction: 0xffffffff
    5a4c:	ffff ffff 			; <UNDEFINED> instruction: 0xffffffff
    5a50:	ffff ffff 			; <UNDEFINED> instruction: 0xffffffff
    5a54:	ffff ffff 			; <UNDEFINED> instruction: 0xffffffff
    5a58:	ffff ffff 			; <UNDEFINED> instruction: 0xffffffff
    5a5c:	ffff ffff 			; <UNDEFINED> instruction: 0xffffffff
    5a60:	ffff ffff 			; <UNDEFINED> instruction: 0xffffffff
    5a64:	ffff ffff 			; <UNDEFINED> instruction: 0xffffffff
    5a68:	ffff ffff 			; <UNDEFINED> instruction: 0xffffffff
    5a6c:	ffff ffff 			; <UNDEFINED> instruction: 0xffffffff
    5a70:	ffff ffff 			; <UNDEFINED> instruction: 0xffffffff
    5a74:	ffff ffff 			; <UNDEFINED> instruction: 0xffffffff
    5a78:	ffff ffff 			; <UNDEFINED> instruction: 0xffffffff
    5a7c:	ffff ffff 			; <UNDEFINED> instruction: 0xffffffff
    5a80:	ffff ffff 			; <UNDEFINED> instruction: 0xffffffff
    5a84:	ffff ffff 			; <UNDEFINED> instruction: 0xffffffff
    5a88:	ffff ffff 			; <UNDEFINED> instruction: 0xffffffff
    5a8c:	ffff ffff 			; <UNDEFINED> instruction: 0xffffffff
    5a90:	ffff ffff 			; <UNDEFINED> instruction: 0xffffffff
    5a94:	ffff ffff 			; <UNDEFINED> instruction: 0xffffffff
    5a98:	ffff ffff 			; <UNDEFINED> instruction: 0xffffffff
    5a9c:	ffff ffff 			; <UNDEFINED> instruction: 0xffffffff
    5aa0:	ffff ffff 			; <UNDEFINED> instruction: 0xffffffff
    5aa4:	ffff ffff 			; <UNDEFINED> instruction: 0xffffffff
    5aa8:	ffff ffff 			; <UNDEFINED> instruction: 0xffffffff
    5aac:	ffff ffff 			; <UNDEFINED> instruction: 0xffffffff
    5ab0:	ffff ffff 			; <UNDEFINED> instruction: 0xffffffff
    5ab4:	ffff ffff 			; <UNDEFINED> instruction: 0xffffffff
    5ab8:	ffff ffff 			; <UNDEFINED> instruction: 0xffffffff
    5abc:	ffff ffff 			; <UNDEFINED> instruction: 0xffffffff
    5ac0:	ffff ffff 			; <UNDEFINED> instruction: 0xffffffff
    5ac4:	ffff ffff 			; <UNDEFINED> instruction: 0xffffffff
    5ac8:	ffff ffff 			; <UNDEFINED> instruction: 0xffffffff
    5acc:	ffff ffff 			; <UNDEFINED> instruction: 0xffffffff
    5ad0:	ffff ffff 			; <UNDEFINED> instruction: 0xffffffff
    5ad4:	ffff ffff 			; <UNDEFINED> instruction: 0xffffffff
    5ad8:	ffff ffff 			; <UNDEFINED> instruction: 0xffffffff
    5adc:	ffff ffff 			; <UNDEFINED> instruction: 0xffffffff
    5ae0:	ffff ffff 			; <UNDEFINED> instruction: 0xffffffff
    5ae4:	ffff ffff 			; <UNDEFINED> instruction: 0xffffffff
    5ae8:	ffff ffff 			; <UNDEFINED> instruction: 0xffffffff
    5aec:	ffff ffff 			; <UNDEFINED> instruction: 0xffffffff
    5af0:	ffff ffff 			; <UNDEFINED> instruction: 0xffffffff
    5af4:	ffff ffff 			; <UNDEFINED> instruction: 0xffffffff
    5af8:	ffff ffff 			; <UNDEFINED> instruction: 0xffffffff
    5afc:	ffff ffff 			; <UNDEFINED> instruction: 0xffffffff
    5b00:	ffff ffff 			; <UNDEFINED> instruction: 0xffffffff
    5b04:	ffff ffff 			; <UNDEFINED> instruction: 0xffffffff
    5b08:	ffff ffff 			; <UNDEFINED> instruction: 0xffffffff
    5b0c:	ffff ffff 			; <UNDEFINED> instruction: 0xffffffff
    5b10:	ffff ffff 			; <UNDEFINED> instruction: 0xffffffff
    5b14:	ffff ffff 			; <UNDEFINED> instruction: 0xffffffff
    5b18:	ffff ffff 			; <UNDEFINED> instruction: 0xffffffff
    5b1c:	ffff ffff 			; <UNDEFINED> instruction: 0xffffffff
    5b20:	ffff ffff 			; <UNDEFINED> instruction: 0xffffffff
    5b24:	ffff ffff 			; <UNDEFINED> instruction: 0xffffffff
    5b28:	ffff ffff 			; <UNDEFINED> instruction: 0xffffffff
    5b2c:	ffff ffff 			; <UNDEFINED> instruction: 0xffffffff
    5b30:	ffff ffff 			; <UNDEFINED> instruction: 0xffffffff
    5b34:	ffff ffff 			; <UNDEFINED> instruction: 0xffffffff
    5b38:	ffff ffff 			; <UNDEFINED> instruction: 0xffffffff
    5b3c:	ffff ffff 			; <UNDEFINED> instruction: 0xffffffff
    5b40:	ffff ffff 			; <UNDEFINED> instruction: 0xffffffff
    5b44:	ffff ffff 			; <UNDEFINED> instruction: 0xffffffff
    5b48:	ffff ffff 			; <UNDEFINED> instruction: 0xffffffff
    5b4c:	ffff ffff 			; <UNDEFINED> instruction: 0xffffffff
    5b50:	ffff ffff 			; <UNDEFINED> instruction: 0xffffffff
    5b54:	ffff ffff 			; <UNDEFINED> instruction: 0xffffffff
    5b58:	ffff ffff 			; <UNDEFINED> instruction: 0xffffffff
    5b5c:	ffff ffff 			; <UNDEFINED> instruction: 0xffffffff
    5b60:	ffff ffff 			; <UNDEFINED> instruction: 0xffffffff
    5b64:	ffff ffff 			; <UNDEFINED> instruction: 0xffffffff
    5b68:	ffff ffff 			; <UNDEFINED> instruction: 0xffffffff
    5b6c:	ffff ffff 			; <UNDEFINED> instruction: 0xffffffff
    5b70:	ffff ffff 			; <UNDEFINED> instruction: 0xffffffff
    5b74:	ffff ffff 			; <UNDEFINED> instruction: 0xffffffff
    5b78:	ffff ffff 			; <UNDEFINED> instruction: 0xffffffff
    5b7c:	ffff ffff 			; <UNDEFINED> instruction: 0xffffffff
    5b80:	ffff ffff 			; <UNDEFINED> instruction: 0xffffffff
    5b84:	ffff ffff 			; <UNDEFINED> instruction: 0xffffffff
    5b88:	ffff ffff 			; <UNDEFINED> instruction: 0xffffffff
    5b8c:	ffff ffff 			; <UNDEFINED> instruction: 0xffffffff
    5b90:	ffff ffff 			; <UNDEFINED> instruction: 0xffffffff
    5b94:	ffff ffff 			; <UNDEFINED> instruction: 0xffffffff
    5b98:	ffff ffff 			; <UNDEFINED> instruction: 0xffffffff
    5b9c:	ffff ffff 			; <UNDEFINED> instruction: 0xffffffff
    5ba0:	ffff ffff 			; <UNDEFINED> instruction: 0xffffffff
    5ba4:	ffff ffff 			; <UNDEFINED> instruction: 0xffffffff
    5ba8:	ffff ffff 			; <UNDEFINED> instruction: 0xffffffff
    5bac:	ffff ffff 			; <UNDEFINED> instruction: 0xffffffff
    5bb0:	ffff ffff 			; <UNDEFINED> instruction: 0xffffffff
    5bb4:	ffff ffff 			; <UNDEFINED> instruction: 0xffffffff
    5bb8:	ffff ffff 			; <UNDEFINED> instruction: 0xffffffff
    5bbc:	ffff ffff 			; <UNDEFINED> instruction: 0xffffffff
    5bc0:	ffff ffff 			; <UNDEFINED> instruction: 0xffffffff
    5bc4:	ffff ffff 			; <UNDEFINED> instruction: 0xffffffff
    5bc8:	ffff ffff 			; <UNDEFINED> instruction: 0xffffffff
    5bcc:	ffff ffff 			; <UNDEFINED> instruction: 0xffffffff
    5bd0:	ffff ffff 			; <UNDEFINED> instruction: 0xffffffff
    5bd4:	ffff ffff 			; <UNDEFINED> instruction: 0xffffffff
    5bd8:	ffff ffff 			; <UNDEFINED> instruction: 0xffffffff
    5bdc:	ffff ffff 			; <UNDEFINED> instruction: 0xffffffff
    5be0:	ffff ffff 			; <UNDEFINED> instruction: 0xffffffff
    5be4:	ffff ffff 			; <UNDEFINED> instruction: 0xffffffff
    5be8:	ffff ffff 			; <UNDEFINED> instruction: 0xffffffff
    5bec:	ffff ffff 			; <UNDEFINED> instruction: 0xffffffff
    5bf0:	ffff ffff 			; <UNDEFINED> instruction: 0xffffffff
    5bf4:	ffff ffff 			; <UNDEFINED> instruction: 0xffffffff
    5bf8:	ffff ffff 			; <UNDEFINED> instruction: 0xffffffff
    5bfc:	ffff ffff 			; <UNDEFINED> instruction: 0xffffffff
    5c00:	ffff ffff 			; <UNDEFINED> instruction: 0xffffffff
    5c04:	ffff ffff 			; <UNDEFINED> instruction: 0xffffffff
    5c08:	ffff ffff 			; <UNDEFINED> instruction: 0xffffffff
    5c0c:	ffff ffff 			; <UNDEFINED> instruction: 0xffffffff
    5c10:	ffff ffff 			; <UNDEFINED> instruction: 0xffffffff
    5c14:	ffff ffff 			; <UNDEFINED> instruction: 0xffffffff
    5c18:	ffff ffff 			; <UNDEFINED> instruction: 0xffffffff
    5c1c:	ffff ffff 			; <UNDEFINED> instruction: 0xffffffff
    5c20:	ffff ffff 			; <UNDEFINED> instruction: 0xffffffff
    5c24:	ffff ffff 			; <UNDEFINED> instruction: 0xffffffff
    5c28:	ffff ffff 			; <UNDEFINED> instruction: 0xffffffff
    5c2c:	ffff ffff 			; <UNDEFINED> instruction: 0xffffffff
    5c30:	ffff ffff 			; <UNDEFINED> instruction: 0xffffffff
    5c34:	ffff ffff 			; <UNDEFINED> instruction: 0xffffffff
    5c38:	ffff ffff 			; <UNDEFINED> instruction: 0xffffffff
    5c3c:	ffff ffff 			; <UNDEFINED> instruction: 0xffffffff
    5c40:	ffff ffff 			; <UNDEFINED> instruction: 0xffffffff
    5c44:	ffff ffff 			; <UNDEFINED> instruction: 0xffffffff
    5c48:	ffff ffff 			; <UNDEFINED> instruction: 0xffffffff
    5c4c:	ffff ffff 			; <UNDEFINED> instruction: 0xffffffff
    5c50:	ffff ffff 			; <UNDEFINED> instruction: 0xffffffff
    5c54:	ffff ffff 			; <UNDEFINED> instruction: 0xffffffff
    5c58:	ffff ffff 			; <UNDEFINED> instruction: 0xffffffff
    5c5c:	ffff ffff 			; <UNDEFINED> instruction: 0xffffffff
    5c60:	ffff ffff 			; <UNDEFINED> instruction: 0xffffffff
    5c64:	ffff ffff 			; <UNDEFINED> instruction: 0xffffffff
    5c68:	ffff ffff 			; <UNDEFINED> instruction: 0xffffffff
    5c6c:	ffff ffff 			; <UNDEFINED> instruction: 0xffffffff
    5c70:	ffff ffff 			; <UNDEFINED> instruction: 0xffffffff
    5c74:	ffff ffff 			; <UNDEFINED> instruction: 0xffffffff
    5c78:	ffff ffff 			; <UNDEFINED> instruction: 0xffffffff
    5c7c:	ffff ffff 			; <UNDEFINED> instruction: 0xffffffff
    5c80:	ffff ffff 			; <UNDEFINED> instruction: 0xffffffff
    5c84:	ffff ffff 			; <UNDEFINED> instruction: 0xffffffff
    5c88:	ffff ffff 			; <UNDEFINED> instruction: 0xffffffff
    5c8c:	ffff ffff 			; <UNDEFINED> instruction: 0xffffffff
    5c90:	ffff ffff 			; <UNDEFINED> instruction: 0xffffffff
    5c94:	ffff ffff 			; <UNDEFINED> instruction: 0xffffffff
    5c98:	ffff ffff 			; <UNDEFINED> instruction: 0xffffffff
    5c9c:	ffff ffff 			; <UNDEFINED> instruction: 0xffffffff
    5ca0:	ffff ffff 			; <UNDEFINED> instruction: 0xffffffff
    5ca4:	ffff ffff 			; <UNDEFINED> instruction: 0xffffffff
    5ca8:	ffff ffff 			; <UNDEFINED> instruction: 0xffffffff
    5cac:	ffff ffff 			; <UNDEFINED> instruction: 0xffffffff
    5cb0:	ffff ffff 			; <UNDEFINED> instruction: 0xffffffff
    5cb4:	ffff ffff 			; <UNDEFINED> instruction: 0xffffffff
    5cb8:	ffff ffff 			; <UNDEFINED> instruction: 0xffffffff
    5cbc:	ffff ffff 			; <UNDEFINED> instruction: 0xffffffff
    5cc0:	ffff ffff 			; <UNDEFINED> instruction: 0xffffffff
    5cc4:	ffff ffff 			; <UNDEFINED> instruction: 0xffffffff
    5cc8:	ffff ffff 			; <UNDEFINED> instruction: 0xffffffff
    5ccc:	ffff ffff 			; <UNDEFINED> instruction: 0xffffffff
    5cd0:	ffff ffff 			; <UNDEFINED> instruction: 0xffffffff
    5cd4:	ffff ffff 			; <UNDEFINED> instruction: 0xffffffff
    5cd8:	ffff ffff 			; <UNDEFINED> instruction: 0xffffffff
    5cdc:	ffff ffff 			; <UNDEFINED> instruction: 0xffffffff
    5ce0:	ffff ffff 			; <UNDEFINED> instruction: 0xffffffff
    5ce4:	ffff ffff 			; <UNDEFINED> instruction: 0xffffffff
    5ce8:	ffff ffff 			; <UNDEFINED> instruction: 0xffffffff
    5cec:	ffff ffff 			; <UNDEFINED> instruction: 0xffffffff
    5cf0:	ffff ffff 			; <UNDEFINED> instruction: 0xffffffff
    5cf4:	ffff ffff 			; <UNDEFINED> instruction: 0xffffffff
    5cf8:	ffff ffff 			; <UNDEFINED> instruction: 0xffffffff
    5cfc:	ffff ffff 			; <UNDEFINED> instruction: 0xffffffff
    5d00:	ffff ffff 			; <UNDEFINED> instruction: 0xffffffff
    5d04:	ffff ffff 			; <UNDEFINED> instruction: 0xffffffff
    5d08:	ffff ffff 			; <UNDEFINED> instruction: 0xffffffff
    5d0c:	ffff ffff 			; <UNDEFINED> instruction: 0xffffffff
    5d10:	ffff ffff 			; <UNDEFINED> instruction: 0xffffffff
    5d14:	ffff ffff 			; <UNDEFINED> instruction: 0xffffffff
    5d18:	ffff ffff 			; <UNDEFINED> instruction: 0xffffffff
    5d1c:	ffff ffff 			; <UNDEFINED> instruction: 0xffffffff
    5d20:	ffff ffff 			; <UNDEFINED> instruction: 0xffffffff
    5d24:	ffff ffff 			; <UNDEFINED> instruction: 0xffffffff
    5d28:	ffff ffff 			; <UNDEFINED> instruction: 0xffffffff
    5d2c:	ffff ffff 			; <UNDEFINED> instruction: 0xffffffff
    5d30:	ffff ffff 			; <UNDEFINED> instruction: 0xffffffff
    5d34:	ffff ffff 			; <UNDEFINED> instruction: 0xffffffff
    5d38:	ffff ffff 			; <UNDEFINED> instruction: 0xffffffff
    5d3c:	ffff ffff 			; <UNDEFINED> instruction: 0xffffffff
    5d40:	ffff ffff 			; <UNDEFINED> instruction: 0xffffffff
    5d44:	ffff ffff 			; <UNDEFINED> instruction: 0xffffffff
    5d48:	ffff ffff 			; <UNDEFINED> instruction: 0xffffffff
    5d4c:	ffff ffff 			; <UNDEFINED> instruction: 0xffffffff
    5d50:	ffff ffff 			; <UNDEFINED> instruction: 0xffffffff
    5d54:	ffff ffff 			; <UNDEFINED> instruction: 0xffffffff
    5d58:	ffff ffff 			; <UNDEFINED> instruction: 0xffffffff
    5d5c:	ffff ffff 			; <UNDEFINED> instruction: 0xffffffff
    5d60:	ffff ffff 			; <UNDEFINED> instruction: 0xffffffff
    5d64:	ffff ffff 			; <UNDEFINED> instruction: 0xffffffff
    5d68:	ffff ffff 			; <UNDEFINED> instruction: 0xffffffff
    5d6c:	ffff ffff 			; <UNDEFINED> instruction: 0xffffffff
    5d70:	ffff ffff 			; <UNDEFINED> instruction: 0xffffffff
    5d74:	ffff ffff 			; <UNDEFINED> instruction: 0xffffffff
    5d78:	ffff ffff 			; <UNDEFINED> instruction: 0xffffffff
    5d7c:	ffff ffff 			; <UNDEFINED> instruction: 0xffffffff
    5d80:	ffff ffff 			; <UNDEFINED> instruction: 0xffffffff
    5d84:	ffff ffff 			; <UNDEFINED> instruction: 0xffffffff
    5d88:	ffff ffff 			; <UNDEFINED> instruction: 0xffffffff
    5d8c:	ffff ffff 			; <UNDEFINED> instruction: 0xffffffff
    5d90:	ffff ffff 			; <UNDEFINED> instruction: 0xffffffff
    5d94:	ffff ffff 			; <UNDEFINED> instruction: 0xffffffff
    5d98:	ffff ffff 			; <UNDEFINED> instruction: 0xffffffff
    5d9c:	ffff ffff 			; <UNDEFINED> instruction: 0xffffffff
    5da0:	ffff ffff 			; <UNDEFINED> instruction: 0xffffffff
    5da4:	ffff ffff 			; <UNDEFINED> instruction: 0xffffffff
    5da8:	ffff ffff 			; <UNDEFINED> instruction: 0xffffffff
    5dac:	ffff ffff 			; <UNDEFINED> instruction: 0xffffffff
    5db0:	ffff ffff 			; <UNDEFINED> instruction: 0xffffffff
    5db4:	ffff ffff 			; <UNDEFINED> instruction: 0xffffffff
    5db8:	ffff ffff 			; <UNDEFINED> instruction: 0xffffffff
    5dbc:	ffff ffff 			; <UNDEFINED> instruction: 0xffffffff
    5dc0:	ffff ffff 			; <UNDEFINED> instruction: 0xffffffff
    5dc4:	ffff ffff 			; <UNDEFINED> instruction: 0xffffffff
    5dc8:	ffff ffff 			; <UNDEFINED> instruction: 0xffffffff
    5dcc:	ffff ffff 			; <UNDEFINED> instruction: 0xffffffff
    5dd0:	ffff ffff 			; <UNDEFINED> instruction: 0xffffffff
    5dd4:	ffff ffff 			; <UNDEFINED> instruction: 0xffffffff
    5dd8:	ffff ffff 			; <UNDEFINED> instruction: 0xffffffff
    5ddc:	ffff ffff 			; <UNDEFINED> instruction: 0xffffffff
    5de0:	ffff ffff 			; <UNDEFINED> instruction: 0xffffffff
    5de4:	ffff ffff 			; <UNDEFINED> instruction: 0xffffffff
    5de8:	ffff ffff 			; <UNDEFINED> instruction: 0xffffffff
    5dec:	ffff ffff 			; <UNDEFINED> instruction: 0xffffffff
    5df0:	ffff ffff 			; <UNDEFINED> instruction: 0xffffffff
    5df4:	ffff ffff 			; <UNDEFINED> instruction: 0xffffffff
    5df8:	ffff ffff 			; <UNDEFINED> instruction: 0xffffffff
    5dfc:	ffff ffff 			; <UNDEFINED> instruction: 0xffffffff
    5e00:	ffff ffff 			; <UNDEFINED> instruction: 0xffffffff
    5e04:	ffff ffff 			; <UNDEFINED> instruction: 0xffffffff
    5e08:	ffff ffff 			; <UNDEFINED> instruction: 0xffffffff
    5e0c:	ffff ffff 			; <UNDEFINED> instruction: 0xffffffff
    5e10:	ffff ffff 			; <UNDEFINED> instruction: 0xffffffff
    5e14:	ffff ffff 			; <UNDEFINED> instruction: 0xffffffff
    5e18:	ffff ffff 			; <UNDEFINED> instruction: 0xffffffff
    5e1c:	ffff ffff 			; <UNDEFINED> instruction: 0xffffffff
    5e20:	ffff ffff 			; <UNDEFINED> instruction: 0xffffffff
    5e24:	ffff ffff 			; <UNDEFINED> instruction: 0xffffffff
    5e28:	ffff ffff 			; <UNDEFINED> instruction: 0xffffffff
    5e2c:	ffff ffff 			; <UNDEFINED> instruction: 0xffffffff
    5e30:	ffff ffff 			; <UNDEFINED> instruction: 0xffffffff
    5e34:	ffff ffff 			; <UNDEFINED> instruction: 0xffffffff
    5e38:	ffff ffff 			; <UNDEFINED> instruction: 0xffffffff
    5e3c:	ffff ffff 			; <UNDEFINED> instruction: 0xffffffff
    5e40:	ffff ffff 			; <UNDEFINED> instruction: 0xffffffff
    5e44:	ffff ffff 			; <UNDEFINED> instruction: 0xffffffff
    5e48:	ffff ffff 			; <UNDEFINED> instruction: 0xffffffff
    5e4c:	ffff ffff 			; <UNDEFINED> instruction: 0xffffffff
    5e50:	ffff ffff 			; <UNDEFINED> instruction: 0xffffffff
    5e54:	ffff ffff 			; <UNDEFINED> instruction: 0xffffffff
    5e58:	ffff ffff 			; <UNDEFINED> instruction: 0xffffffff
    5e5c:	ffff ffff 			; <UNDEFINED> instruction: 0xffffffff
    5e60:	ffff ffff 			; <UNDEFINED> instruction: 0xffffffff
    5e64:	ffff ffff 			; <UNDEFINED> instruction: 0xffffffff
    5e68:	ffff ffff 			; <UNDEFINED> instruction: 0xffffffff
    5e6c:	ffff ffff 			; <UNDEFINED> instruction: 0xffffffff
    5e70:	ffff ffff 			; <UNDEFINED> instruction: 0xffffffff
    5e74:	ffff ffff 			; <UNDEFINED> instruction: 0xffffffff
    5e78:	ffff ffff 			; <UNDEFINED> instruction: 0xffffffff
    5e7c:	ffff ffff 			; <UNDEFINED> instruction: 0xffffffff
    5e80:	ffff ffff 			; <UNDEFINED> instruction: 0xffffffff
    5e84:	ffff ffff 			; <UNDEFINED> instruction: 0xffffffff
    5e88:	ffff ffff 			; <UNDEFINED> instruction: 0xffffffff
    5e8c:	ffff ffff 			; <UNDEFINED> instruction: 0xffffffff
    5e90:	ffff ffff 			; <UNDEFINED> instruction: 0xffffffff
    5e94:	ffff ffff 			; <UNDEFINED> instruction: 0xffffffff
    5e98:	ffff ffff 			; <UNDEFINED> instruction: 0xffffffff
    5e9c:	ffff ffff 			; <UNDEFINED> instruction: 0xffffffff
    5ea0:	ffff ffff 			; <UNDEFINED> instruction: 0xffffffff
    5ea4:	ffff ffff 			; <UNDEFINED> instruction: 0xffffffff
    5ea8:	ffff ffff 			; <UNDEFINED> instruction: 0xffffffff
    5eac:	ffff ffff 			; <UNDEFINED> instruction: 0xffffffff
    5eb0:	ffff ffff 			; <UNDEFINED> instruction: 0xffffffff
    5eb4:	ffff ffff 			; <UNDEFINED> instruction: 0xffffffff
    5eb8:	ffff ffff 			; <UNDEFINED> instruction: 0xffffffff
    5ebc:	ffff ffff 			; <UNDEFINED> instruction: 0xffffffff
    5ec0:	ffff ffff 			; <UNDEFINED> instruction: 0xffffffff
    5ec4:	ffff ffff 			; <UNDEFINED> instruction: 0xffffffff
    5ec8:	ffff ffff 			; <UNDEFINED> instruction: 0xffffffff
    5ecc:	ffff ffff 			; <UNDEFINED> instruction: 0xffffffff
    5ed0:	ffff ffff 			; <UNDEFINED> instruction: 0xffffffff
    5ed4:	ffff ffff 			; <UNDEFINED> instruction: 0xffffffff
    5ed8:	ffff ffff 			; <UNDEFINED> instruction: 0xffffffff
    5edc:	ffff ffff 			; <UNDEFINED> instruction: 0xffffffff
    5ee0:	ffff ffff 			; <UNDEFINED> instruction: 0xffffffff
    5ee4:	ffff ffff 			; <UNDEFINED> instruction: 0xffffffff
    5ee8:	ffff ffff 			; <UNDEFINED> instruction: 0xffffffff
    5eec:	ffff ffff 			; <UNDEFINED> instruction: 0xffffffff
    5ef0:	ffff ffff 			; <UNDEFINED> instruction: 0xffffffff
    5ef4:	ffff ffff 			; <UNDEFINED> instruction: 0xffffffff
    5ef8:	ffff ffff 			; <UNDEFINED> instruction: 0xffffffff
    5efc:	ffff ffff 			; <UNDEFINED> instruction: 0xffffffff
    5f00:	ffff ffff 			; <UNDEFINED> instruction: 0xffffffff
    5f04:	ffff ffff 			; <UNDEFINED> instruction: 0xffffffff
    5f08:	ffff ffff 			; <UNDEFINED> instruction: 0xffffffff
    5f0c:	ffff ffff 			; <UNDEFINED> instruction: 0xffffffff
    5f10:	ffff ffff 			; <UNDEFINED> instruction: 0xffffffff
    5f14:	ffff ffff 			; <UNDEFINED> instruction: 0xffffffff
    5f18:	ffff ffff 			; <UNDEFINED> instruction: 0xffffffff
    5f1c:	ffff ffff 			; <UNDEFINED> instruction: 0xffffffff
    5f20:	ffff ffff 			; <UNDEFINED> instruction: 0xffffffff
    5f24:	ffff ffff 			; <UNDEFINED> instruction: 0xffffffff
    5f28:	ffff ffff 			; <UNDEFINED> instruction: 0xffffffff
    5f2c:	ffff ffff 			; <UNDEFINED> instruction: 0xffffffff
    5f30:	ffff ffff 			; <UNDEFINED> instruction: 0xffffffff
    5f34:	ffff ffff 			; <UNDEFINED> instruction: 0xffffffff
    5f38:	ffff ffff 			; <UNDEFINED> instruction: 0xffffffff
    5f3c:	ffff ffff 			; <UNDEFINED> instruction: 0xffffffff
    5f40:	ffff ffff 			; <UNDEFINED> instruction: 0xffffffff
    5f44:	ffff ffff 			; <UNDEFINED> instruction: 0xffffffff
    5f48:	ffff ffff 			; <UNDEFINED> instruction: 0xffffffff
    5f4c:	ffff ffff 			; <UNDEFINED> instruction: 0xffffffff
    5f50:	ffff ffff 			; <UNDEFINED> instruction: 0xffffffff
    5f54:	ffff ffff 			; <UNDEFINED> instruction: 0xffffffff
    5f58:	ffff ffff 			; <UNDEFINED> instruction: 0xffffffff
    5f5c:	ffff ffff 			; <UNDEFINED> instruction: 0xffffffff
    5f60:	ffff ffff 			; <UNDEFINED> instruction: 0xffffffff
    5f64:	ffff ffff 			; <UNDEFINED> instruction: 0xffffffff
    5f68:	ffff ffff 			; <UNDEFINED> instruction: 0xffffffff
    5f6c:	ffff ffff 			; <UNDEFINED> instruction: 0xffffffff
    5f70:	ffff ffff 			; <UNDEFINED> instruction: 0xffffffff
    5f74:	ffff ffff 			; <UNDEFINED> instruction: 0xffffffff
    5f78:	ffff ffff 			; <UNDEFINED> instruction: 0xffffffff
    5f7c:	ffff ffff 			; <UNDEFINED> instruction: 0xffffffff
    5f80:	ffff ffff 			; <UNDEFINED> instruction: 0xffffffff
    5f84:	ffff ffff 			; <UNDEFINED> instruction: 0xffffffff
    5f88:	ffff ffff 			; <UNDEFINED> instruction: 0xffffffff
    5f8c:	ffff ffff 			; <UNDEFINED> instruction: 0xffffffff
    5f90:	ffff ffff 			; <UNDEFINED> instruction: 0xffffffff
    5f94:	ffff ffff 			; <UNDEFINED> instruction: 0xffffffff
    5f98:	ffff ffff 			; <UNDEFINED> instruction: 0xffffffff
    5f9c:	ffff ffff 			; <UNDEFINED> instruction: 0xffffffff
    5fa0:	ffff ffff 			; <UNDEFINED> instruction: 0xffffffff
    5fa4:	ffff ffff 			; <UNDEFINED> instruction: 0xffffffff
    5fa8:	ffff ffff 			; <UNDEFINED> instruction: 0xffffffff
    5fac:	ffff ffff 			; <UNDEFINED> instruction: 0xffffffff
    5fb0:	ffff ffff 			; <UNDEFINED> instruction: 0xffffffff
    5fb4:	ffff ffff 			; <UNDEFINED> instruction: 0xffffffff
    5fb8:	ffff ffff 			; <UNDEFINED> instruction: 0xffffffff
    5fbc:	ffff ffff 			; <UNDEFINED> instruction: 0xffffffff
    5fc0:	ffff ffff 			; <UNDEFINED> instruction: 0xffffffff
    5fc4:	ffff ffff 			; <UNDEFINED> instruction: 0xffffffff
    5fc8:	ffff ffff 			; <UNDEFINED> instruction: 0xffffffff
    5fcc:	ffff ffff 			; <UNDEFINED> instruction: 0xffffffff
    5fd0:	ffff ffff 			; <UNDEFINED> instruction: 0xffffffff
    5fd4:	ffff ffff 			; <UNDEFINED> instruction: 0xffffffff
    5fd8:	ffff ffff 			; <UNDEFINED> instruction: 0xffffffff
    5fdc:	ffff ffff 			; <UNDEFINED> instruction: 0xffffffff
    5fe0:	ffff ffff 			; <UNDEFINED> instruction: 0xffffffff
    5fe4:	ffff ffff 			; <UNDEFINED> instruction: 0xffffffff
    5fe8:	ffff ffff 			; <UNDEFINED> instruction: 0xffffffff
    5fec:	ffff ffff 			; <UNDEFINED> instruction: 0xffffffff
    5ff0:	ffff ffff 			; <UNDEFINED> instruction: 0xffffffff
    5ff4:	ffff ffff 			; <UNDEFINED> instruction: 0xffffffff
    5ff8:	ffff ffff 			; <UNDEFINED> instruction: 0xffffffff
    5ffc:	ffff ffff 			; <UNDEFINED> instruction: 0xffffffff
    6000:	ffff ffff 			; <UNDEFINED> instruction: 0xffffffff
    6004:	ffff ffff 			; <UNDEFINED> instruction: 0xffffffff
    6008:	ffff ffff 			; <UNDEFINED> instruction: 0xffffffff
    600c:	ffff ffff 			; <UNDEFINED> instruction: 0xffffffff
    6010:	ffff ffff 			; <UNDEFINED> instruction: 0xffffffff
    6014:	ffff ffff 			; <UNDEFINED> instruction: 0xffffffff
    6018:	ffff ffff 			; <UNDEFINED> instruction: 0xffffffff
    601c:	ffff ffff 			; <UNDEFINED> instruction: 0xffffffff
    6020:	ffff ffff 			; <UNDEFINED> instruction: 0xffffffff
    6024:	ffff ffff 			; <UNDEFINED> instruction: 0xffffffff
    6028:	ffff ffff 			; <UNDEFINED> instruction: 0xffffffff
    602c:	ffff ffff 			; <UNDEFINED> instruction: 0xffffffff
    6030:	ffff ffff 			; <UNDEFINED> instruction: 0xffffffff
    6034:	ffff ffff 			; <UNDEFINED> instruction: 0xffffffff
    6038:	ffff ffff 			; <UNDEFINED> instruction: 0xffffffff
    603c:	ffff ffff 			; <UNDEFINED> instruction: 0xffffffff
    6040:	ffff ffff 			; <UNDEFINED> instruction: 0xffffffff
    6044:	ffff ffff 			; <UNDEFINED> instruction: 0xffffffff
    6048:	ffff ffff 			; <UNDEFINED> instruction: 0xffffffff
    604c:	ffff ffff 			; <UNDEFINED> instruction: 0xffffffff
    6050:	ffff ffff 			; <UNDEFINED> instruction: 0xffffffff
    6054:	ffff ffff 			; <UNDEFINED> instruction: 0xffffffff
    6058:	ffff ffff 			; <UNDEFINED> instruction: 0xffffffff
    605c:	ffff ffff 			; <UNDEFINED> instruction: 0xffffffff
    6060:	ffff ffff 			; <UNDEFINED> instruction: 0xffffffff
    6064:	ffff ffff 			; <UNDEFINED> instruction: 0xffffffff
    6068:	ffff ffff 			; <UNDEFINED> instruction: 0xffffffff
    606c:	ffff ffff 			; <UNDEFINED> instruction: 0xffffffff
    6070:	ffff ffff 			; <UNDEFINED> instruction: 0xffffffff
    6074:	ffff ffff 			; <UNDEFINED> instruction: 0xffffffff
    6078:	ffff ffff 			; <UNDEFINED> instruction: 0xffffffff
    607c:	ffff ffff 			; <UNDEFINED> instruction: 0xffffffff
    6080:	ffff ffff 			; <UNDEFINED> instruction: 0xffffffff
    6084:	ffff ffff 			; <UNDEFINED> instruction: 0xffffffff
    6088:	ffff ffff 			; <UNDEFINED> instruction: 0xffffffff
    608c:	ffff ffff 			; <UNDEFINED> instruction: 0xffffffff
    6090:	ffff ffff 			; <UNDEFINED> instruction: 0xffffffff
    6094:	ffff ffff 			; <UNDEFINED> instruction: 0xffffffff
    6098:	ffff ffff 			; <UNDEFINED> instruction: 0xffffffff
    609c:	ffff ffff 			; <UNDEFINED> instruction: 0xffffffff
    60a0:	ffff ffff 			; <UNDEFINED> instruction: 0xffffffff
    60a4:	ffff ffff 			; <UNDEFINED> instruction: 0xffffffff
    60a8:	ffff ffff 			; <UNDEFINED> instruction: 0xffffffff
    60ac:	ffff ffff 			; <UNDEFINED> instruction: 0xffffffff
    60b0:	ffff ffff 			; <UNDEFINED> instruction: 0xffffffff
    60b4:	ffff ffff 			; <UNDEFINED> instruction: 0xffffffff
    60b8:	ffff ffff 			; <UNDEFINED> instruction: 0xffffffff
    60bc:	ffff ffff 			; <UNDEFINED> instruction: 0xffffffff
    60c0:	ffff ffff 			; <UNDEFINED> instruction: 0xffffffff
    60c4:	ffff ffff 			; <UNDEFINED> instruction: 0xffffffff
    60c8:	ffff ffff 			; <UNDEFINED> instruction: 0xffffffff
    60cc:	ffff ffff 			; <UNDEFINED> instruction: 0xffffffff
    60d0:	ffff ffff 			; <UNDEFINED> instruction: 0xffffffff
    60d4:	ffff ffff 			; <UNDEFINED> instruction: 0xffffffff
    60d8:	ffff ffff 			; <UNDEFINED> instruction: 0xffffffff
    60dc:	ffff ffff 			; <UNDEFINED> instruction: 0xffffffff
    60e0:	ffff ffff 			; <UNDEFINED> instruction: 0xffffffff
    60e4:	ffff ffff 			; <UNDEFINED> instruction: 0xffffffff
    60e8:	ffff ffff 			; <UNDEFINED> instruction: 0xffffffff
    60ec:	ffff ffff 			; <UNDEFINED> instruction: 0xffffffff
    60f0:	ffff ffff 			; <UNDEFINED> instruction: 0xffffffff
    60f4:	ffff ffff 			; <UNDEFINED> instruction: 0xffffffff
    60f8:	ffff ffff 			; <UNDEFINED> instruction: 0xffffffff
    60fc:	ffff ffff 			; <UNDEFINED> instruction: 0xffffffff
    6100:	ffff ffff 			; <UNDEFINED> instruction: 0xffffffff
    6104:	ffff ffff 			; <UNDEFINED> instruction: 0xffffffff
    6108:	ffff ffff 			; <UNDEFINED> instruction: 0xffffffff
    610c:	ffff ffff 			; <UNDEFINED> instruction: 0xffffffff
    6110:	ffff ffff 			; <UNDEFINED> instruction: 0xffffffff
    6114:	ffff ffff 			; <UNDEFINED> instruction: 0xffffffff
    6118:	ffff ffff 			; <UNDEFINED> instruction: 0xffffffff
    611c:	ffff ffff 			; <UNDEFINED> instruction: 0xffffffff
    6120:	ffff ffff 			; <UNDEFINED> instruction: 0xffffffff
    6124:	ffff ffff 			; <UNDEFINED> instruction: 0xffffffff
    6128:	ffff ffff 			; <UNDEFINED> instruction: 0xffffffff
    612c:	ffff ffff 			; <UNDEFINED> instruction: 0xffffffff
    6130:	ffff ffff 			; <UNDEFINED> instruction: 0xffffffff
    6134:	ffff ffff 			; <UNDEFINED> instruction: 0xffffffff
    6138:	ffff ffff 			; <UNDEFINED> instruction: 0xffffffff
    613c:	ffff ffff 			; <UNDEFINED> instruction: 0xffffffff
    6140:	ffff ffff 			; <UNDEFINED> instruction: 0xffffffff
    6144:	ffff ffff 			; <UNDEFINED> instruction: 0xffffffff
    6148:	ffff ffff 			; <UNDEFINED> instruction: 0xffffffff
    614c:	ffff ffff 			; <UNDEFINED> instruction: 0xffffffff
    6150:	ffff ffff 			; <UNDEFINED> instruction: 0xffffffff
    6154:	ffff ffff 			; <UNDEFINED> instruction: 0xffffffff
    6158:	ffff ffff 			; <UNDEFINED> instruction: 0xffffffff
    615c:	ffff ffff 			; <UNDEFINED> instruction: 0xffffffff
    6160:	ffff ffff 			; <UNDEFINED> instruction: 0xffffffff
    6164:	ffff ffff 			; <UNDEFINED> instruction: 0xffffffff
    6168:	ffff ffff 			; <UNDEFINED> instruction: 0xffffffff
    616c:	ffff ffff 			; <UNDEFINED> instruction: 0xffffffff
    6170:	ffff ffff 			; <UNDEFINED> instruction: 0xffffffff
    6174:	ffff ffff 			; <UNDEFINED> instruction: 0xffffffff
    6178:	ffff ffff 			; <UNDEFINED> instruction: 0xffffffff
    617c:	ffff ffff 			; <UNDEFINED> instruction: 0xffffffff
    6180:	ffff ffff 			; <UNDEFINED> instruction: 0xffffffff
    6184:	ffff ffff 			; <UNDEFINED> instruction: 0xffffffff
    6188:	ffff ffff 			; <UNDEFINED> instruction: 0xffffffff
    618c:	ffff ffff 			; <UNDEFINED> instruction: 0xffffffff
    6190:	ffff ffff 			; <UNDEFINED> instruction: 0xffffffff
    6194:	ffff ffff 			; <UNDEFINED> instruction: 0xffffffff
    6198:	ffff ffff 			; <UNDEFINED> instruction: 0xffffffff
    619c:	ffff ffff 			; <UNDEFINED> instruction: 0xffffffff
    61a0:	ffff ffff 			; <UNDEFINED> instruction: 0xffffffff
    61a4:	ffff ffff 			; <UNDEFINED> instruction: 0xffffffff
    61a8:	ffff ffff 			; <UNDEFINED> instruction: 0xffffffff
    61ac:	ffff ffff 			; <UNDEFINED> instruction: 0xffffffff
    61b0:	ffff ffff 			; <UNDEFINED> instruction: 0xffffffff
    61b4:	ffff ffff 			; <UNDEFINED> instruction: 0xffffffff
    61b8:	ffff ffff 			; <UNDEFINED> instruction: 0xffffffff
    61bc:	ffff ffff 			; <UNDEFINED> instruction: 0xffffffff
    61c0:	ffff ffff 			; <UNDEFINED> instruction: 0xffffffff
    61c4:	ffff ffff 			; <UNDEFINED> instruction: 0xffffffff
    61c8:	ffff ffff 			; <UNDEFINED> instruction: 0xffffffff
    61cc:	ffff ffff 			; <UNDEFINED> instruction: 0xffffffff
    61d0:	ffff ffff 			; <UNDEFINED> instruction: 0xffffffff
    61d4:	ffff ffff 			; <UNDEFINED> instruction: 0xffffffff
    61d8:	ffff ffff 			; <UNDEFINED> instruction: 0xffffffff
    61dc:	ffff ffff 			; <UNDEFINED> instruction: 0xffffffff
    61e0:	ffff ffff 			; <UNDEFINED> instruction: 0xffffffff
    61e4:	ffff ffff 			; <UNDEFINED> instruction: 0xffffffff
    61e8:	ffff ffff 			; <UNDEFINED> instruction: 0xffffffff
    61ec:	ffff ffff 			; <UNDEFINED> instruction: 0xffffffff
    61f0:	ffff ffff 			; <UNDEFINED> instruction: 0xffffffff
    61f4:	ffff ffff 			; <UNDEFINED> instruction: 0xffffffff
    61f8:	ffff ffff 			; <UNDEFINED> instruction: 0xffffffff
    61fc:	ffff ffff 			; <UNDEFINED> instruction: 0xffffffff
    6200:	ffff ffff 			; <UNDEFINED> instruction: 0xffffffff
    6204:	ffff ffff 			; <UNDEFINED> instruction: 0xffffffff
    6208:	ffff ffff 			; <UNDEFINED> instruction: 0xffffffff
    620c:	ffff ffff 			; <UNDEFINED> instruction: 0xffffffff
    6210:	ffff ffff 			; <UNDEFINED> instruction: 0xffffffff
    6214:	ffff ffff 			; <UNDEFINED> instruction: 0xffffffff
    6218:	ffff ffff 			; <UNDEFINED> instruction: 0xffffffff
    621c:	ffff ffff 			; <UNDEFINED> instruction: 0xffffffff
    6220:	ffff ffff 			; <UNDEFINED> instruction: 0xffffffff
    6224:	ffff ffff 			; <UNDEFINED> instruction: 0xffffffff
    6228:	ffff ffff 			; <UNDEFINED> instruction: 0xffffffff
    622c:	ffff ffff 			; <UNDEFINED> instruction: 0xffffffff
    6230:	ffff ffff 			; <UNDEFINED> instruction: 0xffffffff
    6234:	ffff ffff 			; <UNDEFINED> instruction: 0xffffffff
    6238:	ffff ffff 			; <UNDEFINED> instruction: 0xffffffff
    623c:	ffff ffff 			; <UNDEFINED> instruction: 0xffffffff
    6240:	ffff ffff 			; <UNDEFINED> instruction: 0xffffffff
    6244:	ffff ffff 			; <UNDEFINED> instruction: 0xffffffff
    6248:	ffff ffff 			; <UNDEFINED> instruction: 0xffffffff
    624c:	ffff ffff 			; <UNDEFINED> instruction: 0xffffffff
    6250:	ffff ffff 			; <UNDEFINED> instruction: 0xffffffff
    6254:	ffff ffff 			; <UNDEFINED> instruction: 0xffffffff
    6258:	ffff ffff 			; <UNDEFINED> instruction: 0xffffffff
    625c:	ffff ffff 			; <UNDEFINED> instruction: 0xffffffff
    6260:	ffff ffff 			; <UNDEFINED> instruction: 0xffffffff
    6264:	ffff ffff 			; <UNDEFINED> instruction: 0xffffffff
    6268:	ffff ffff 			; <UNDEFINED> instruction: 0xffffffff
    626c:	ffff ffff 			; <UNDEFINED> instruction: 0xffffffff
    6270:	ffff ffff 			; <UNDEFINED> instruction: 0xffffffff
    6274:	ffff ffff 			; <UNDEFINED> instruction: 0xffffffff
    6278:	ffff ffff 			; <UNDEFINED> instruction: 0xffffffff
    627c:	ffff ffff 			; <UNDEFINED> instruction: 0xffffffff
    6280:	ffff ffff 			; <UNDEFINED> instruction: 0xffffffff
    6284:	ffff ffff 			; <UNDEFINED> instruction: 0xffffffff
    6288:	ffff ffff 			; <UNDEFINED> instruction: 0xffffffff
    628c:	ffff ffff 			; <UNDEFINED> instruction: 0xffffffff
    6290:	ffff ffff 			; <UNDEFINED> instruction: 0xffffffff
    6294:	ffff ffff 			; <UNDEFINED> instruction: 0xffffffff
    6298:	ffff ffff 			; <UNDEFINED> instruction: 0xffffffff
    629c:	ffff ffff 			; <UNDEFINED> instruction: 0xffffffff
    62a0:	ffff ffff 			; <UNDEFINED> instruction: 0xffffffff
    62a4:	ffff ffff 			; <UNDEFINED> instruction: 0xffffffff
    62a8:	ffff ffff 			; <UNDEFINED> instruction: 0xffffffff
    62ac:	ffff ffff 			; <UNDEFINED> instruction: 0xffffffff
    62b0:	ffff ffff 			; <UNDEFINED> instruction: 0xffffffff
    62b4:	ffff ffff 			; <UNDEFINED> instruction: 0xffffffff
    62b8:	ffff ffff 			; <UNDEFINED> instruction: 0xffffffff
    62bc:	ffff ffff 			; <UNDEFINED> instruction: 0xffffffff
    62c0:	ffff ffff 			; <UNDEFINED> instruction: 0xffffffff
    62c4:	ffff ffff 			; <UNDEFINED> instruction: 0xffffffff
    62c8:	ffff ffff 			; <UNDEFINED> instruction: 0xffffffff
    62cc:	ffff ffff 			; <UNDEFINED> instruction: 0xffffffff
    62d0:	ffff ffff 			; <UNDEFINED> instruction: 0xffffffff
    62d4:	ffff ffff 			; <UNDEFINED> instruction: 0xffffffff
    62d8:	ffff ffff 			; <UNDEFINED> instruction: 0xffffffff
    62dc:	ffff ffff 			; <UNDEFINED> instruction: 0xffffffff
    62e0:	ffff ffff 			; <UNDEFINED> instruction: 0xffffffff
    62e4:	ffff ffff 			; <UNDEFINED> instruction: 0xffffffff
    62e8:	ffff ffff 			; <UNDEFINED> instruction: 0xffffffff
    62ec:	ffff ffff 			; <UNDEFINED> instruction: 0xffffffff
    62f0:	ffff ffff 			; <UNDEFINED> instruction: 0xffffffff
    62f4:	ffff ffff 			; <UNDEFINED> instruction: 0xffffffff
    62f8:	ffff ffff 			; <UNDEFINED> instruction: 0xffffffff
    62fc:	ffff ffff 			; <UNDEFINED> instruction: 0xffffffff
    6300:	ffff ffff 			; <UNDEFINED> instruction: 0xffffffff
    6304:	ffff ffff 			; <UNDEFINED> instruction: 0xffffffff
    6308:	ffff ffff 			; <UNDEFINED> instruction: 0xffffffff
    630c:	ffff ffff 			; <UNDEFINED> instruction: 0xffffffff
    6310:	ffff ffff 			; <UNDEFINED> instruction: 0xffffffff
    6314:	ffff ffff 			; <UNDEFINED> instruction: 0xffffffff
    6318:	ffff ffff 			; <UNDEFINED> instruction: 0xffffffff
    631c:	ffff ffff 			; <UNDEFINED> instruction: 0xffffffff
    6320:	ffff ffff 			; <UNDEFINED> instruction: 0xffffffff
    6324:	ffff ffff 			; <UNDEFINED> instruction: 0xffffffff
    6328:	ffff ffff 			; <UNDEFINED> instruction: 0xffffffff
    632c:	ffff ffff 			; <UNDEFINED> instruction: 0xffffffff
    6330:	ffff ffff 			; <UNDEFINED> instruction: 0xffffffff
    6334:	ffff ffff 			; <UNDEFINED> instruction: 0xffffffff
    6338:	ffff ffff 			; <UNDEFINED> instruction: 0xffffffff
    633c:	ffff ffff 			; <UNDEFINED> instruction: 0xffffffff
    6340:	ffff ffff 			; <UNDEFINED> instruction: 0xffffffff
    6344:	ffff ffff 			; <UNDEFINED> instruction: 0xffffffff
    6348:	ffff ffff 			; <UNDEFINED> instruction: 0xffffffff
    634c:	ffff ffff 			; <UNDEFINED> instruction: 0xffffffff
    6350:	ffff ffff 			; <UNDEFINED> instruction: 0xffffffff
    6354:	ffff ffff 			; <UNDEFINED> instruction: 0xffffffff
    6358:	ffff ffff 			; <UNDEFINED> instruction: 0xffffffff
    635c:	ffff ffff 			; <UNDEFINED> instruction: 0xffffffff
    6360:	ffff ffff 			; <UNDEFINED> instruction: 0xffffffff
    6364:	ffff ffff 			; <UNDEFINED> instruction: 0xffffffff
    6368:	ffff ffff 			; <UNDEFINED> instruction: 0xffffffff
    636c:	ffff ffff 			; <UNDEFINED> instruction: 0xffffffff
    6370:	ffff ffff 			; <UNDEFINED> instruction: 0xffffffff
    6374:	ffff ffff 			; <UNDEFINED> instruction: 0xffffffff
    6378:	ffff ffff 			; <UNDEFINED> instruction: 0xffffffff
    637c:	ffff ffff 			; <UNDEFINED> instruction: 0xffffffff
    6380:	ffff ffff 			; <UNDEFINED> instruction: 0xffffffff
    6384:	ffff ffff 			; <UNDEFINED> instruction: 0xffffffff
    6388:	ffff ffff 			; <UNDEFINED> instruction: 0xffffffff
    638c:	ffff ffff 			; <UNDEFINED> instruction: 0xffffffff
    6390:	ffff ffff 			; <UNDEFINED> instruction: 0xffffffff
    6394:	ffff ffff 			; <UNDEFINED> instruction: 0xffffffff
    6398:	ffff ffff 			; <UNDEFINED> instruction: 0xffffffff
    639c:	ffff ffff 			; <UNDEFINED> instruction: 0xffffffff
    63a0:	ffff ffff 			; <UNDEFINED> instruction: 0xffffffff
    63a4:	ffff ffff 			; <UNDEFINED> instruction: 0xffffffff
    63a8:	ffff ffff 			; <UNDEFINED> instruction: 0xffffffff
    63ac:	ffff ffff 			; <UNDEFINED> instruction: 0xffffffff
    63b0:	ffff ffff 			; <UNDEFINED> instruction: 0xffffffff
    63b4:	ffff ffff 			; <UNDEFINED> instruction: 0xffffffff
    63b8:	ffff ffff 			; <UNDEFINED> instruction: 0xffffffff
    63bc:	ffff ffff 			; <UNDEFINED> instruction: 0xffffffff
    63c0:	ffff ffff 			; <UNDEFINED> instruction: 0xffffffff
    63c4:	ffff ffff 			; <UNDEFINED> instruction: 0xffffffff
    63c8:	ffff ffff 			; <UNDEFINED> instruction: 0xffffffff
    63cc:	ffff ffff 			; <UNDEFINED> instruction: 0xffffffff
    63d0:	ffff ffff 			; <UNDEFINED> instruction: 0xffffffff
    63d4:	ffff ffff 			; <UNDEFINED> instruction: 0xffffffff
    63d8:	ffff ffff 			; <UNDEFINED> instruction: 0xffffffff
    63dc:	ffff ffff 			; <UNDEFINED> instruction: 0xffffffff
    63e0:	ffff ffff 			; <UNDEFINED> instruction: 0xffffffff
    63e4:	ffff ffff 			; <UNDEFINED> instruction: 0xffffffff
    63e8:	ffff ffff 			; <UNDEFINED> instruction: 0xffffffff
    63ec:	ffff ffff 			; <UNDEFINED> instruction: 0xffffffff
    63f0:	ffff ffff 			; <UNDEFINED> instruction: 0xffffffff
    63f4:	ffff ffff 			; <UNDEFINED> instruction: 0xffffffff
    63f8:	ffff ffff 			; <UNDEFINED> instruction: 0xffffffff
    63fc:	ffff ffff 			; <UNDEFINED> instruction: 0xffffffff
    6400:	ffff ffff 			; <UNDEFINED> instruction: 0xffffffff
    6404:	ffff ffff 			; <UNDEFINED> instruction: 0xffffffff
    6408:	ffff ffff 			; <UNDEFINED> instruction: 0xffffffff
    640c:	ffff ffff 			; <UNDEFINED> instruction: 0xffffffff
    6410:	ffff ffff 			; <UNDEFINED> instruction: 0xffffffff
    6414:	ffff ffff 			; <UNDEFINED> instruction: 0xffffffff
    6418:	ffff ffff 			; <UNDEFINED> instruction: 0xffffffff
    641c:	ffff ffff 			; <UNDEFINED> instruction: 0xffffffff
    6420:	ffff ffff 			; <UNDEFINED> instruction: 0xffffffff
    6424:	ffff ffff 			; <UNDEFINED> instruction: 0xffffffff
    6428:	ffff ffff 			; <UNDEFINED> instruction: 0xffffffff
    642c:	ffff ffff 			; <UNDEFINED> instruction: 0xffffffff
    6430:	ffff ffff 			; <UNDEFINED> instruction: 0xffffffff
    6434:	ffff ffff 			; <UNDEFINED> instruction: 0xffffffff
    6438:	ffff ffff 			; <UNDEFINED> instruction: 0xffffffff
    643c:	ffff ffff 			; <UNDEFINED> instruction: 0xffffffff
    6440:	ffff ffff 			; <UNDEFINED> instruction: 0xffffffff
    6444:	ffff ffff 			; <UNDEFINED> instruction: 0xffffffff
    6448:	ffff ffff 			; <UNDEFINED> instruction: 0xffffffff
    644c:	ffff ffff 			; <UNDEFINED> instruction: 0xffffffff
    6450:	ffff ffff 			; <UNDEFINED> instruction: 0xffffffff
    6454:	ffff ffff 			; <UNDEFINED> instruction: 0xffffffff
    6458:	ffff ffff 			; <UNDEFINED> instruction: 0xffffffff
    645c:	ffff ffff 			; <UNDEFINED> instruction: 0xffffffff
    6460:	ffff ffff 			; <UNDEFINED> instruction: 0xffffffff
    6464:	ffff ffff 			; <UNDEFINED> instruction: 0xffffffff
    6468:	ffff ffff 			; <UNDEFINED> instruction: 0xffffffff
    646c:	ffff ffff 			; <UNDEFINED> instruction: 0xffffffff
    6470:	ffff ffff 			; <UNDEFINED> instruction: 0xffffffff
    6474:	ffff ffff 			; <UNDEFINED> instruction: 0xffffffff
    6478:	ffff ffff 			; <UNDEFINED> instruction: 0xffffffff
    647c:	ffff ffff 			; <UNDEFINED> instruction: 0xffffffff
    6480:	ffff ffff 			; <UNDEFINED> instruction: 0xffffffff
    6484:	ffff ffff 			; <UNDEFINED> instruction: 0xffffffff
    6488:	ffff ffff 			; <UNDEFINED> instruction: 0xffffffff
    648c:	ffff ffff 			; <UNDEFINED> instruction: 0xffffffff
    6490:	ffff ffff 			; <UNDEFINED> instruction: 0xffffffff
    6494:	ffff ffff 			; <UNDEFINED> instruction: 0xffffffff
    6498:	ffff ffff 			; <UNDEFINED> instruction: 0xffffffff
    649c:	ffff ffff 			; <UNDEFINED> instruction: 0xffffffff
    64a0:	ffff ffff 			; <UNDEFINED> instruction: 0xffffffff
    64a4:	ffff ffff 			; <UNDEFINED> instruction: 0xffffffff
    64a8:	ffff ffff 			; <UNDEFINED> instruction: 0xffffffff
    64ac:	ffff ffff 			; <UNDEFINED> instruction: 0xffffffff
    64b0:	ffff ffff 			; <UNDEFINED> instruction: 0xffffffff
    64b4:	ffff ffff 			; <UNDEFINED> instruction: 0xffffffff
    64b8:	ffff ffff 			; <UNDEFINED> instruction: 0xffffffff
    64bc:	ffff ffff 			; <UNDEFINED> instruction: 0xffffffff
    64c0:	ffff ffff 			; <UNDEFINED> instruction: 0xffffffff
    64c4:	ffff ffff 			; <UNDEFINED> instruction: 0xffffffff
    64c8:	ffff ffff 			; <UNDEFINED> instruction: 0xffffffff
    64cc:	ffff ffff 			; <UNDEFINED> instruction: 0xffffffff
    64d0:	ffff ffff 			; <UNDEFINED> instruction: 0xffffffff
    64d4:	ffff ffff 			; <UNDEFINED> instruction: 0xffffffff
    64d8:	ffff ffff 			; <UNDEFINED> instruction: 0xffffffff
    64dc:	ffff ffff 			; <UNDEFINED> instruction: 0xffffffff
    64e0:	ffff ffff 			; <UNDEFINED> instruction: 0xffffffff
    64e4:	ffff ffff 			; <UNDEFINED> instruction: 0xffffffff
    64e8:	ffff ffff 			; <UNDEFINED> instruction: 0xffffffff
    64ec:	ffff ffff 			; <UNDEFINED> instruction: 0xffffffff
    64f0:	ffff ffff 			; <UNDEFINED> instruction: 0xffffffff
    64f4:	ffff ffff 			; <UNDEFINED> instruction: 0xffffffff
    64f8:	ffff ffff 			; <UNDEFINED> instruction: 0xffffffff
    64fc:	ffff ffff 			; <UNDEFINED> instruction: 0xffffffff
    6500:	ffff ffff 			; <UNDEFINED> instruction: 0xffffffff
    6504:	ffff ffff 			; <UNDEFINED> instruction: 0xffffffff
    6508:	ffff ffff 			; <UNDEFINED> instruction: 0xffffffff
    650c:	ffff ffff 			; <UNDEFINED> instruction: 0xffffffff
    6510:	ffff ffff 			; <UNDEFINED> instruction: 0xffffffff
    6514:	ffff ffff 			; <UNDEFINED> instruction: 0xffffffff
    6518:	ffff ffff 			; <UNDEFINED> instruction: 0xffffffff
    651c:	ffff ffff 			; <UNDEFINED> instruction: 0xffffffff
    6520:	ffff ffff 			; <UNDEFINED> instruction: 0xffffffff
    6524:	ffff ffff 			; <UNDEFINED> instruction: 0xffffffff
    6528:	ffff ffff 			; <UNDEFINED> instruction: 0xffffffff
    652c:	ffff ffff 			; <UNDEFINED> instruction: 0xffffffff
    6530:	ffff ffff 			; <UNDEFINED> instruction: 0xffffffff
    6534:	ffff ffff 			; <UNDEFINED> instruction: 0xffffffff
    6538:	ffff ffff 			; <UNDEFINED> instruction: 0xffffffff
    653c:	ffff ffff 			; <UNDEFINED> instruction: 0xffffffff
    6540:	ffff ffff 			; <UNDEFINED> instruction: 0xffffffff
    6544:	ffff ffff 			; <UNDEFINED> instruction: 0xffffffff
    6548:	ffff ffff 			; <UNDEFINED> instruction: 0xffffffff
    654c:	ffff ffff 			; <UNDEFINED> instruction: 0xffffffff
    6550:	ffff ffff 			; <UNDEFINED> instruction: 0xffffffff
    6554:	ffff ffff 			; <UNDEFINED> instruction: 0xffffffff
    6558:	ffff ffff 			; <UNDEFINED> instruction: 0xffffffff
    655c:	ffff ffff 			; <UNDEFINED> instruction: 0xffffffff
    6560:	ffff ffff 			; <UNDEFINED> instruction: 0xffffffff
    6564:	ffff ffff 			; <UNDEFINED> instruction: 0xffffffff
    6568:	ffff ffff 			; <UNDEFINED> instruction: 0xffffffff
    656c:	ffff ffff 			; <UNDEFINED> instruction: 0xffffffff
    6570:	ffff ffff 			; <UNDEFINED> instruction: 0xffffffff
    6574:	ffff ffff 			; <UNDEFINED> instruction: 0xffffffff
    6578:	ffff ffff 			; <UNDEFINED> instruction: 0xffffffff
    657c:	ffff ffff 			; <UNDEFINED> instruction: 0xffffffff
    6580:	ffff ffff 			; <UNDEFINED> instruction: 0xffffffff
    6584:	ffff ffff 			; <UNDEFINED> instruction: 0xffffffff
    6588:	ffff ffff 			; <UNDEFINED> instruction: 0xffffffff
    658c:	ffff ffff 			; <UNDEFINED> instruction: 0xffffffff
    6590:	ffff ffff 			; <UNDEFINED> instruction: 0xffffffff
    6594:	ffff ffff 			; <UNDEFINED> instruction: 0xffffffff
    6598:	ffff ffff 			; <UNDEFINED> instruction: 0xffffffff
    659c:	ffff ffff 			; <UNDEFINED> instruction: 0xffffffff
    65a0:	ffff ffff 			; <UNDEFINED> instruction: 0xffffffff
    65a4:	ffff ffff 			; <UNDEFINED> instruction: 0xffffffff
    65a8:	ffff ffff 			; <UNDEFINED> instruction: 0xffffffff
    65ac:	ffff ffff 			; <UNDEFINED> instruction: 0xffffffff
    65b0:	ffff ffff 			; <UNDEFINED> instruction: 0xffffffff
    65b4:	ffff ffff 			; <UNDEFINED> instruction: 0xffffffff
    65b8:	ffff ffff 			; <UNDEFINED> instruction: 0xffffffff
    65bc:	ffff ffff 			; <UNDEFINED> instruction: 0xffffffff
    65c0:	ffff ffff 			; <UNDEFINED> instruction: 0xffffffff
    65c4:	ffff ffff 			; <UNDEFINED> instruction: 0xffffffff
    65c8:	ffff ffff 			; <UNDEFINED> instruction: 0xffffffff
    65cc:	ffff ffff 			; <UNDEFINED> instruction: 0xffffffff
    65d0:	ffff ffff 			; <UNDEFINED> instruction: 0xffffffff
    65d4:	ffff ffff 			; <UNDEFINED> instruction: 0xffffffff
    65d8:	ffff ffff 			; <UNDEFINED> instruction: 0xffffffff
    65dc:	ffff ffff 			; <UNDEFINED> instruction: 0xffffffff
    65e0:	ffff ffff 			; <UNDEFINED> instruction: 0xffffffff
    65e4:	ffff ffff 			; <UNDEFINED> instruction: 0xffffffff
    65e8:	ffff ffff 			; <UNDEFINED> instruction: 0xffffffff
    65ec:	ffff ffff 			; <UNDEFINED> instruction: 0xffffffff
    65f0:	ffff ffff 			; <UNDEFINED> instruction: 0xffffffff
    65f4:	ffff ffff 			; <UNDEFINED> instruction: 0xffffffff
    65f8:	ffff ffff 			; <UNDEFINED> instruction: 0xffffffff
    65fc:	ffff ffff 			; <UNDEFINED> instruction: 0xffffffff
    6600:	ffff ffff 			; <UNDEFINED> instruction: 0xffffffff
    6604:	ffff ffff 			; <UNDEFINED> instruction: 0xffffffff
    6608:	ffff ffff 			; <UNDEFINED> instruction: 0xffffffff
    660c:	ffff ffff 			; <UNDEFINED> instruction: 0xffffffff
    6610:	ffff ffff 			; <UNDEFINED> instruction: 0xffffffff
    6614:	ffff ffff 			; <UNDEFINED> instruction: 0xffffffff
    6618:	ffff ffff 			; <UNDEFINED> instruction: 0xffffffff
    661c:	ffff ffff 			; <UNDEFINED> instruction: 0xffffffff
    6620:	ffff ffff 			; <UNDEFINED> instruction: 0xffffffff
    6624:	ffff ffff 			; <UNDEFINED> instruction: 0xffffffff
    6628:	ffff ffff 			; <UNDEFINED> instruction: 0xffffffff
    662c:	ffff ffff 			; <UNDEFINED> instruction: 0xffffffff
    6630:	ffff ffff 			; <UNDEFINED> instruction: 0xffffffff
    6634:	ffff ffff 			; <UNDEFINED> instruction: 0xffffffff
    6638:	ffff ffff 			; <UNDEFINED> instruction: 0xffffffff
    663c:	ffff ffff 			; <UNDEFINED> instruction: 0xffffffff
    6640:	ffff ffff 			; <UNDEFINED> instruction: 0xffffffff
    6644:	ffff ffff 			; <UNDEFINED> instruction: 0xffffffff
    6648:	ffff ffff 			; <UNDEFINED> instruction: 0xffffffff
    664c:	ffff ffff 			; <UNDEFINED> instruction: 0xffffffff
    6650:	ffff ffff 			; <UNDEFINED> instruction: 0xffffffff
    6654:	ffff ffff 			; <UNDEFINED> instruction: 0xffffffff
    6658:	ffff ffff 			; <UNDEFINED> instruction: 0xffffffff
    665c:	ffff ffff 			; <UNDEFINED> instruction: 0xffffffff
    6660:	ffff ffff 			; <UNDEFINED> instruction: 0xffffffff
    6664:	ffff ffff 			; <UNDEFINED> instruction: 0xffffffff
    6668:	ffff ffff 			; <UNDEFINED> instruction: 0xffffffff
    666c:	ffff ffff 			; <UNDEFINED> instruction: 0xffffffff
    6670:	ffff ffff 			; <UNDEFINED> instruction: 0xffffffff
    6674:	ffff ffff 			; <UNDEFINED> instruction: 0xffffffff
    6678:	ffff ffff 			; <UNDEFINED> instruction: 0xffffffff
    667c:	ffff ffff 			; <UNDEFINED> instruction: 0xffffffff
    6680:	ffff ffff 			; <UNDEFINED> instruction: 0xffffffff
    6684:	ffff ffff 			; <UNDEFINED> instruction: 0xffffffff
    6688:	ffff ffff 			; <UNDEFINED> instruction: 0xffffffff
    668c:	ffff ffff 			; <UNDEFINED> instruction: 0xffffffff
    6690:	ffff ffff 			; <UNDEFINED> instruction: 0xffffffff
    6694:	ffff ffff 			; <UNDEFINED> instruction: 0xffffffff
    6698:	ffff ffff 			; <UNDEFINED> instruction: 0xffffffff
    669c:	ffff ffff 			; <UNDEFINED> instruction: 0xffffffff
    66a0:	ffff ffff 			; <UNDEFINED> instruction: 0xffffffff
    66a4:	ffff ffff 			; <UNDEFINED> instruction: 0xffffffff
    66a8:	ffff ffff 			; <UNDEFINED> instruction: 0xffffffff
    66ac:	ffff ffff 			; <UNDEFINED> instruction: 0xffffffff
    66b0:	ffff ffff 			; <UNDEFINED> instruction: 0xffffffff
    66b4:	ffff ffff 			; <UNDEFINED> instruction: 0xffffffff
    66b8:	ffff ffff 			; <UNDEFINED> instruction: 0xffffffff
    66bc:	ffff ffff 			; <UNDEFINED> instruction: 0xffffffff
    66c0:	ffff ffff 			; <UNDEFINED> instruction: 0xffffffff
    66c4:	ffff ffff 			; <UNDEFINED> instruction: 0xffffffff
    66c8:	ffff ffff 			; <UNDEFINED> instruction: 0xffffffff
    66cc:	ffff ffff 			; <UNDEFINED> instruction: 0xffffffff
    66d0:	ffff ffff 			; <UNDEFINED> instruction: 0xffffffff
    66d4:	ffff ffff 			; <UNDEFINED> instruction: 0xffffffff
    66d8:	ffff ffff 			; <UNDEFINED> instruction: 0xffffffff
    66dc:	ffff ffff 			; <UNDEFINED> instruction: 0xffffffff
    66e0:	ffff ffff 			; <UNDEFINED> instruction: 0xffffffff
    66e4:	ffff ffff 			; <UNDEFINED> instruction: 0xffffffff
    66e8:	ffff ffff 			; <UNDEFINED> instruction: 0xffffffff
    66ec:	ffff ffff 			; <UNDEFINED> instruction: 0xffffffff
    66f0:	ffff ffff 			; <UNDEFINED> instruction: 0xffffffff
    66f4:	ffff ffff 			; <UNDEFINED> instruction: 0xffffffff
    66f8:	ffff ffff 			; <UNDEFINED> instruction: 0xffffffff
    66fc:	ffff ffff 			; <UNDEFINED> instruction: 0xffffffff
    6700:	ffff ffff 			; <UNDEFINED> instruction: 0xffffffff
    6704:	ffff ffff 			; <UNDEFINED> instruction: 0xffffffff
    6708:	ffff ffff 			; <UNDEFINED> instruction: 0xffffffff
    670c:	ffff ffff 			; <UNDEFINED> instruction: 0xffffffff
    6710:	ffff ffff 			; <UNDEFINED> instruction: 0xffffffff
    6714:	ffff ffff 			; <UNDEFINED> instruction: 0xffffffff
    6718:	ffff ffff 			; <UNDEFINED> instruction: 0xffffffff
    671c:	ffff ffff 			; <UNDEFINED> instruction: 0xffffffff
    6720:	ffff ffff 			; <UNDEFINED> instruction: 0xffffffff
    6724:	ffff ffff 			; <UNDEFINED> instruction: 0xffffffff
    6728:	ffff ffff 			; <UNDEFINED> instruction: 0xffffffff
    672c:	ffff ffff 			; <UNDEFINED> instruction: 0xffffffff
    6730:	ffff ffff 			; <UNDEFINED> instruction: 0xffffffff
    6734:	ffff ffff 			; <UNDEFINED> instruction: 0xffffffff
    6738:	ffff ffff 			; <UNDEFINED> instruction: 0xffffffff
    673c:	ffff ffff 			; <UNDEFINED> instruction: 0xffffffff
    6740:	ffff ffff 			; <UNDEFINED> instruction: 0xffffffff
    6744:	ffff ffff 			; <UNDEFINED> instruction: 0xffffffff
    6748:	ffff ffff 			; <UNDEFINED> instruction: 0xffffffff
    674c:	ffff ffff 			; <UNDEFINED> instruction: 0xffffffff
    6750:	ffff ffff 			; <UNDEFINED> instruction: 0xffffffff
    6754:	ffff ffff 			; <UNDEFINED> instruction: 0xffffffff
    6758:	ffff ffff 			; <UNDEFINED> instruction: 0xffffffff
    675c:	ffff ffff 			; <UNDEFINED> instruction: 0xffffffff
    6760:	ffff ffff 			; <UNDEFINED> instruction: 0xffffffff
    6764:	ffff ffff 			; <UNDEFINED> instruction: 0xffffffff
    6768:	ffff ffff 			; <UNDEFINED> instruction: 0xffffffff
    676c:	ffff ffff 			; <UNDEFINED> instruction: 0xffffffff
    6770:	ffff ffff 			; <UNDEFINED> instruction: 0xffffffff
    6774:	ffff ffff 			; <UNDEFINED> instruction: 0xffffffff
    6778:	ffff ffff 			; <UNDEFINED> instruction: 0xffffffff
    677c:	ffff ffff 			; <UNDEFINED> instruction: 0xffffffff
    6780:	ffff ffff 			; <UNDEFINED> instruction: 0xffffffff
    6784:	ffff ffff 			; <UNDEFINED> instruction: 0xffffffff
    6788:	ffff ffff 			; <UNDEFINED> instruction: 0xffffffff
    678c:	ffff ffff 			; <UNDEFINED> instruction: 0xffffffff
    6790:	ffff ffff 			; <UNDEFINED> instruction: 0xffffffff
    6794:	ffff ffff 			; <UNDEFINED> instruction: 0xffffffff
    6798:	ffff ffff 			; <UNDEFINED> instruction: 0xffffffff
    679c:	ffff ffff 			; <UNDEFINED> instruction: 0xffffffff
    67a0:	ffff ffff 			; <UNDEFINED> instruction: 0xffffffff
    67a4:	ffff ffff 			; <UNDEFINED> instruction: 0xffffffff
    67a8:	ffff ffff 			; <UNDEFINED> instruction: 0xffffffff
    67ac:	ffff ffff 			; <UNDEFINED> instruction: 0xffffffff
    67b0:	ffff ffff 			; <UNDEFINED> instruction: 0xffffffff
    67b4:	ffff ffff 			; <UNDEFINED> instruction: 0xffffffff
    67b8:	ffff ffff 			; <UNDEFINED> instruction: 0xffffffff
    67bc:	ffff ffff 			; <UNDEFINED> instruction: 0xffffffff
    67c0:	ffff ffff 			; <UNDEFINED> instruction: 0xffffffff
    67c4:	ffff ffff 			; <UNDEFINED> instruction: 0xffffffff
    67c8:	ffff ffff 			; <UNDEFINED> instruction: 0xffffffff
    67cc:	ffff ffff 			; <UNDEFINED> instruction: 0xffffffff
    67d0:	ffff ffff 			; <UNDEFINED> instruction: 0xffffffff
    67d4:	ffff ffff 			; <UNDEFINED> instruction: 0xffffffff
    67d8:	ffff ffff 			; <UNDEFINED> instruction: 0xffffffff
    67dc:	ffff ffff 			; <UNDEFINED> instruction: 0xffffffff
    67e0:	ffff ffff 			; <UNDEFINED> instruction: 0xffffffff
    67e4:	ffff ffff 			; <UNDEFINED> instruction: 0xffffffff
    67e8:	ffff ffff 			; <UNDEFINED> instruction: 0xffffffff
    67ec:	ffff ffff 			; <UNDEFINED> instruction: 0xffffffff
    67f0:	ffff ffff 			; <UNDEFINED> instruction: 0xffffffff
    67f4:	ffff ffff 			; <UNDEFINED> instruction: 0xffffffff
    67f8:	ffff ffff 			; <UNDEFINED> instruction: 0xffffffff
    67fc:	ffff ffff 			; <UNDEFINED> instruction: 0xffffffff
    6800:	ffff ffff 			; <UNDEFINED> instruction: 0xffffffff
    6804:	ffff ffff 			; <UNDEFINED> instruction: 0xffffffff
    6808:	ffff ffff 			; <UNDEFINED> instruction: 0xffffffff
    680c:	ffff ffff 			; <UNDEFINED> instruction: 0xffffffff
    6810:	ffff ffff 			; <UNDEFINED> instruction: 0xffffffff
    6814:	ffff ffff 			; <UNDEFINED> instruction: 0xffffffff
    6818:	ffff ffff 			; <UNDEFINED> instruction: 0xffffffff
    681c:	ffff ffff 			; <UNDEFINED> instruction: 0xffffffff
    6820:	ffff ffff 			; <UNDEFINED> instruction: 0xffffffff
    6824:	ffff ffff 			; <UNDEFINED> instruction: 0xffffffff
    6828:	ffff ffff 			; <UNDEFINED> instruction: 0xffffffff
    682c:	ffff ffff 			; <UNDEFINED> instruction: 0xffffffff
    6830:	ffff ffff 			; <UNDEFINED> instruction: 0xffffffff
    6834:	ffff ffff 			; <UNDEFINED> instruction: 0xffffffff
    6838:	ffff ffff 			; <UNDEFINED> instruction: 0xffffffff
    683c:	ffff ffff 			; <UNDEFINED> instruction: 0xffffffff
    6840:	ffff ffff 			; <UNDEFINED> instruction: 0xffffffff
    6844:	ffff ffff 			; <UNDEFINED> instruction: 0xffffffff
    6848:	ffff ffff 			; <UNDEFINED> instruction: 0xffffffff
    684c:	ffff ffff 			; <UNDEFINED> instruction: 0xffffffff
    6850:	ffff ffff 			; <UNDEFINED> instruction: 0xffffffff
    6854:	ffff ffff 			; <UNDEFINED> instruction: 0xffffffff
    6858:	ffff ffff 			; <UNDEFINED> instruction: 0xffffffff
    685c:	ffff ffff 			; <UNDEFINED> instruction: 0xffffffff
    6860:	ffff ffff 			; <UNDEFINED> instruction: 0xffffffff
    6864:	ffff ffff 			; <UNDEFINED> instruction: 0xffffffff
    6868:	ffff ffff 			; <UNDEFINED> instruction: 0xffffffff
    686c:	ffff ffff 			; <UNDEFINED> instruction: 0xffffffff
    6870:	ffff ffff 			; <UNDEFINED> instruction: 0xffffffff
    6874:	ffff ffff 			; <UNDEFINED> instruction: 0xffffffff
    6878:	ffff ffff 			; <UNDEFINED> instruction: 0xffffffff
    687c:	ffff ffff 			; <UNDEFINED> instruction: 0xffffffff
    6880:	ffff ffff 			; <UNDEFINED> instruction: 0xffffffff
    6884:	ffff ffff 			; <UNDEFINED> instruction: 0xffffffff
    6888:	ffff ffff 			; <UNDEFINED> instruction: 0xffffffff
    688c:	ffff ffff 			; <UNDEFINED> instruction: 0xffffffff
    6890:	ffff ffff 			; <UNDEFINED> instruction: 0xffffffff
    6894:	ffff ffff 			; <UNDEFINED> instruction: 0xffffffff
    6898:	ffff ffff 			; <UNDEFINED> instruction: 0xffffffff
    689c:	ffff ffff 			; <UNDEFINED> instruction: 0xffffffff
    68a0:	ffff ffff 			; <UNDEFINED> instruction: 0xffffffff
    68a4:	ffff ffff 			; <UNDEFINED> instruction: 0xffffffff
    68a8:	ffff ffff 			; <UNDEFINED> instruction: 0xffffffff
    68ac:	ffff ffff 			; <UNDEFINED> instruction: 0xffffffff
    68b0:	ffff ffff 			; <UNDEFINED> instruction: 0xffffffff
    68b4:	ffff ffff 			; <UNDEFINED> instruction: 0xffffffff
    68b8:	ffff ffff 			; <UNDEFINED> instruction: 0xffffffff
    68bc:	ffff ffff 			; <UNDEFINED> instruction: 0xffffffff
    68c0:	ffff ffff 			; <UNDEFINED> instruction: 0xffffffff
    68c4:	ffff ffff 			; <UNDEFINED> instruction: 0xffffffff
    68c8:	ffff ffff 			; <UNDEFINED> instruction: 0xffffffff
    68cc:	ffff ffff 			; <UNDEFINED> instruction: 0xffffffff
    68d0:	ffff ffff 			; <UNDEFINED> instruction: 0xffffffff
    68d4:	ffff ffff 			; <UNDEFINED> instruction: 0xffffffff
    68d8:	ffff ffff 			; <UNDEFINED> instruction: 0xffffffff
    68dc:	ffff ffff 			; <UNDEFINED> instruction: 0xffffffff
    68e0:	ffff ffff 			; <UNDEFINED> instruction: 0xffffffff
    68e4:	ffff ffff 			; <UNDEFINED> instruction: 0xffffffff
    68e8:	ffff ffff 			; <UNDEFINED> instruction: 0xffffffff
    68ec:	ffff ffff 			; <UNDEFINED> instruction: 0xffffffff
    68f0:	ffff ffff 			; <UNDEFINED> instruction: 0xffffffff
    68f4:	ffff ffff 			; <UNDEFINED> instruction: 0xffffffff
    68f8:	ffff ffff 			; <UNDEFINED> instruction: 0xffffffff
    68fc:	ffff ffff 			; <UNDEFINED> instruction: 0xffffffff
    6900:	ffff ffff 			; <UNDEFINED> instruction: 0xffffffff
    6904:	ffff ffff 			; <UNDEFINED> instruction: 0xffffffff
    6908:	ffff ffff 			; <UNDEFINED> instruction: 0xffffffff
    690c:	ffff ffff 			; <UNDEFINED> instruction: 0xffffffff
    6910:	ffff ffff 			; <UNDEFINED> instruction: 0xffffffff
    6914:	ffff ffff 			; <UNDEFINED> instruction: 0xffffffff
    6918:	ffff ffff 			; <UNDEFINED> instruction: 0xffffffff
    691c:	ffff ffff 			; <UNDEFINED> instruction: 0xffffffff
    6920:	ffff ffff 			; <UNDEFINED> instruction: 0xffffffff
    6924:	ffff ffff 			; <UNDEFINED> instruction: 0xffffffff
    6928:	ffff ffff 			; <UNDEFINED> instruction: 0xffffffff
    692c:	ffff ffff 			; <UNDEFINED> instruction: 0xffffffff
    6930:	ffff ffff 			; <UNDEFINED> instruction: 0xffffffff
    6934:	ffff ffff 			; <UNDEFINED> instruction: 0xffffffff
    6938:	ffff ffff 			; <UNDEFINED> instruction: 0xffffffff
    693c:	ffff ffff 			; <UNDEFINED> instruction: 0xffffffff
    6940:	ffff ffff 			; <UNDEFINED> instruction: 0xffffffff
    6944:	ffff ffff 			; <UNDEFINED> instruction: 0xffffffff
    6948:	ffff ffff 			; <UNDEFINED> instruction: 0xffffffff
    694c:	ffff ffff 			; <UNDEFINED> instruction: 0xffffffff
    6950:	ffff ffff 			; <UNDEFINED> instruction: 0xffffffff
    6954:	ffff ffff 			; <UNDEFINED> instruction: 0xffffffff
    6958:	ffff ffff 			; <UNDEFINED> instruction: 0xffffffff
    695c:	ffff ffff 			; <UNDEFINED> instruction: 0xffffffff
    6960:	ffff ffff 			; <UNDEFINED> instruction: 0xffffffff
    6964:	ffff ffff 			; <UNDEFINED> instruction: 0xffffffff
    6968:	ffff ffff 			; <UNDEFINED> instruction: 0xffffffff
    696c:	ffff ffff 			; <UNDEFINED> instruction: 0xffffffff
    6970:	ffff ffff 			; <UNDEFINED> instruction: 0xffffffff
    6974:	ffff ffff 			; <UNDEFINED> instruction: 0xffffffff
    6978:	ffff ffff 			; <UNDEFINED> instruction: 0xffffffff
    697c:	ffff ffff 			; <UNDEFINED> instruction: 0xffffffff
    6980:	ffff ffff 			; <UNDEFINED> instruction: 0xffffffff
    6984:	ffff ffff 			; <UNDEFINED> instruction: 0xffffffff
    6988:	ffff ffff 			; <UNDEFINED> instruction: 0xffffffff
    698c:	ffff ffff 			; <UNDEFINED> instruction: 0xffffffff
    6990:	ffff ffff 			; <UNDEFINED> instruction: 0xffffffff
    6994:	ffff ffff 			; <UNDEFINED> instruction: 0xffffffff
    6998:	ffff ffff 			; <UNDEFINED> instruction: 0xffffffff
    699c:	ffff ffff 			; <UNDEFINED> instruction: 0xffffffff
    69a0:	ffff ffff 			; <UNDEFINED> instruction: 0xffffffff
    69a4:	ffff ffff 			; <UNDEFINED> instruction: 0xffffffff
    69a8:	ffff ffff 			; <UNDEFINED> instruction: 0xffffffff
    69ac:	ffff ffff 			; <UNDEFINED> instruction: 0xffffffff
    69b0:	ffff ffff 			; <UNDEFINED> instruction: 0xffffffff
    69b4:	ffff ffff 			; <UNDEFINED> instruction: 0xffffffff
    69b8:	ffff ffff 			; <UNDEFINED> instruction: 0xffffffff
    69bc:	ffff ffff 			; <UNDEFINED> instruction: 0xffffffff
    69c0:	ffff ffff 			; <UNDEFINED> instruction: 0xffffffff
    69c4:	ffff ffff 			; <UNDEFINED> instruction: 0xffffffff
    69c8:	ffff ffff 			; <UNDEFINED> instruction: 0xffffffff
    69cc:	ffff ffff 			; <UNDEFINED> instruction: 0xffffffff
    69d0:	ffff ffff 			; <UNDEFINED> instruction: 0xffffffff
    69d4:	ffff ffff 			; <UNDEFINED> instruction: 0xffffffff
    69d8:	ffff ffff 			; <UNDEFINED> instruction: 0xffffffff
    69dc:	ffff ffff 			; <UNDEFINED> instruction: 0xffffffff
    69e0:	ffff ffff 			; <UNDEFINED> instruction: 0xffffffff
    69e4:	ffff ffff 			; <UNDEFINED> instruction: 0xffffffff
    69e8:	ffff ffff 			; <UNDEFINED> instruction: 0xffffffff
    69ec:	ffff ffff 			; <UNDEFINED> instruction: 0xffffffff
    69f0:	ffff ffff 			; <UNDEFINED> instruction: 0xffffffff
    69f4:	ffff ffff 			; <UNDEFINED> instruction: 0xffffffff
    69f8:	ffff ffff 			; <UNDEFINED> instruction: 0xffffffff
    69fc:	ffff ffff 			; <UNDEFINED> instruction: 0xffffffff
    6a00:	ffff ffff 			; <UNDEFINED> instruction: 0xffffffff
    6a04:	ffff ffff 			; <UNDEFINED> instruction: 0xffffffff
    6a08:	ffff ffff 			; <UNDEFINED> instruction: 0xffffffff
    6a0c:	ffff ffff 			; <UNDEFINED> instruction: 0xffffffff
    6a10:	ffff ffff 			; <UNDEFINED> instruction: 0xffffffff
    6a14:	ffff ffff 			; <UNDEFINED> instruction: 0xffffffff
    6a18:	ffff ffff 			; <UNDEFINED> instruction: 0xffffffff
    6a1c:	ffff ffff 			; <UNDEFINED> instruction: 0xffffffff
    6a20:	ffff ffff 			; <UNDEFINED> instruction: 0xffffffff
    6a24:	ffff ffff 			; <UNDEFINED> instruction: 0xffffffff
    6a28:	ffff ffff 			; <UNDEFINED> instruction: 0xffffffff
    6a2c:	ffff ffff 			; <UNDEFINED> instruction: 0xffffffff
    6a30:	ffff ffff 			; <UNDEFINED> instruction: 0xffffffff
    6a34:	ffff ffff 			; <UNDEFINED> instruction: 0xffffffff
    6a38:	ffff ffff 			; <UNDEFINED> instruction: 0xffffffff
    6a3c:	ffff ffff 			; <UNDEFINED> instruction: 0xffffffff
    6a40:	ffff ffff 			; <UNDEFINED> instruction: 0xffffffff
    6a44:	ffff ffff 			; <UNDEFINED> instruction: 0xffffffff
    6a48:	ffff ffff 			; <UNDEFINED> instruction: 0xffffffff
    6a4c:	ffff ffff 			; <UNDEFINED> instruction: 0xffffffff
    6a50:	ffff ffff 			; <UNDEFINED> instruction: 0xffffffff
    6a54:	ffff ffff 			; <UNDEFINED> instruction: 0xffffffff
    6a58:	ffff ffff 			; <UNDEFINED> instruction: 0xffffffff
    6a5c:	ffff ffff 			; <UNDEFINED> instruction: 0xffffffff
    6a60:	ffff ffff 			; <UNDEFINED> instruction: 0xffffffff
    6a64:	ffff ffff 			; <UNDEFINED> instruction: 0xffffffff
    6a68:	ffff ffff 			; <UNDEFINED> instruction: 0xffffffff
    6a6c:	ffff ffff 			; <UNDEFINED> instruction: 0xffffffff
    6a70:	ffff ffff 			; <UNDEFINED> instruction: 0xffffffff
    6a74:	ffff ffff 			; <UNDEFINED> instruction: 0xffffffff
    6a78:	ffff ffff 			; <UNDEFINED> instruction: 0xffffffff
    6a7c:	ffff ffff 			; <UNDEFINED> instruction: 0xffffffff
    6a80:	ffff ffff 			; <UNDEFINED> instruction: 0xffffffff
    6a84:	ffff ffff 			; <UNDEFINED> instruction: 0xffffffff
    6a88:	ffff ffff 			; <UNDEFINED> instruction: 0xffffffff
    6a8c:	ffff ffff 			; <UNDEFINED> instruction: 0xffffffff
    6a90:	ffff ffff 			; <UNDEFINED> instruction: 0xffffffff
    6a94:	ffff ffff 			; <UNDEFINED> instruction: 0xffffffff
    6a98:	ffff ffff 			; <UNDEFINED> instruction: 0xffffffff
    6a9c:	ffff ffff 			; <UNDEFINED> instruction: 0xffffffff
    6aa0:	ffff ffff 			; <UNDEFINED> instruction: 0xffffffff
    6aa4:	ffff ffff 			; <UNDEFINED> instruction: 0xffffffff
    6aa8:	ffff ffff 			; <UNDEFINED> instruction: 0xffffffff
    6aac:	ffff ffff 			; <UNDEFINED> instruction: 0xffffffff
    6ab0:	ffff ffff 			; <UNDEFINED> instruction: 0xffffffff
    6ab4:	ffff ffff 			; <UNDEFINED> instruction: 0xffffffff
    6ab8:	ffff ffff 			; <UNDEFINED> instruction: 0xffffffff
    6abc:	ffff ffff 			; <UNDEFINED> instruction: 0xffffffff
    6ac0:	ffff ffff 			; <UNDEFINED> instruction: 0xffffffff
    6ac4:	ffff ffff 			; <UNDEFINED> instruction: 0xffffffff
    6ac8:	ffff ffff 			; <UNDEFINED> instruction: 0xffffffff
    6acc:	ffff ffff 			; <UNDEFINED> instruction: 0xffffffff
    6ad0:	ffff ffff 			; <UNDEFINED> instruction: 0xffffffff
    6ad4:	ffff ffff 			; <UNDEFINED> instruction: 0xffffffff
    6ad8:	ffff ffff 			; <UNDEFINED> instruction: 0xffffffff
    6adc:	ffff ffff 			; <UNDEFINED> instruction: 0xffffffff
    6ae0:	ffff ffff 			; <UNDEFINED> instruction: 0xffffffff
    6ae4:	ffff ffff 			; <UNDEFINED> instruction: 0xffffffff
    6ae8:	ffff ffff 			; <UNDEFINED> instruction: 0xffffffff
    6aec:	ffff ffff 			; <UNDEFINED> instruction: 0xffffffff
    6af0:	ffff ffff 			; <UNDEFINED> instruction: 0xffffffff
    6af4:	ffff ffff 			; <UNDEFINED> instruction: 0xffffffff
    6af8:	ffff ffff 			; <UNDEFINED> instruction: 0xffffffff
    6afc:	ffff ffff 			; <UNDEFINED> instruction: 0xffffffff
    6b00:	ffff ffff 			; <UNDEFINED> instruction: 0xffffffff
    6b04:	ffff ffff 			; <UNDEFINED> instruction: 0xffffffff
    6b08:	ffff ffff 			; <UNDEFINED> instruction: 0xffffffff
    6b0c:	ffff ffff 			; <UNDEFINED> instruction: 0xffffffff
    6b10:	ffff ffff 			; <UNDEFINED> instruction: 0xffffffff
    6b14:	ffff ffff 			; <UNDEFINED> instruction: 0xffffffff
    6b18:	ffff ffff 			; <UNDEFINED> instruction: 0xffffffff
    6b1c:	ffff ffff 			; <UNDEFINED> instruction: 0xffffffff
    6b20:	ffff ffff 			; <UNDEFINED> instruction: 0xffffffff
    6b24:	ffff ffff 			; <UNDEFINED> instruction: 0xffffffff
    6b28:	ffff ffff 			; <UNDEFINED> instruction: 0xffffffff
    6b2c:	ffff ffff 			; <UNDEFINED> instruction: 0xffffffff
    6b30:	ffff ffff 			; <UNDEFINED> instruction: 0xffffffff
    6b34:	ffff ffff 			; <UNDEFINED> instruction: 0xffffffff
    6b38:	ffff ffff 			; <UNDEFINED> instruction: 0xffffffff
    6b3c:	ffff ffff 			; <UNDEFINED> instruction: 0xffffffff
    6b40:	ffff ffff 			; <UNDEFINED> instruction: 0xffffffff
    6b44:	ffff ffff 			; <UNDEFINED> instruction: 0xffffffff
    6b48:	ffff ffff 			; <UNDEFINED> instruction: 0xffffffff
    6b4c:	ffff ffff 			; <UNDEFINED> instruction: 0xffffffff
    6b50:	ffff ffff 			; <UNDEFINED> instruction: 0xffffffff
    6b54:	ffff ffff 			; <UNDEFINED> instruction: 0xffffffff
    6b58:	ffff ffff 			; <UNDEFINED> instruction: 0xffffffff
    6b5c:	ffff ffff 			; <UNDEFINED> instruction: 0xffffffff
    6b60:	ffff ffff 			; <UNDEFINED> instruction: 0xffffffff
    6b64:	ffff ffff 			; <UNDEFINED> instruction: 0xffffffff
    6b68:	ffff ffff 			; <UNDEFINED> instruction: 0xffffffff
    6b6c:	ffff ffff 			; <UNDEFINED> instruction: 0xffffffff
    6b70:	ffff ffff 			; <UNDEFINED> instruction: 0xffffffff
    6b74:	ffff ffff 			; <UNDEFINED> instruction: 0xffffffff
    6b78:	ffff ffff 			; <UNDEFINED> instruction: 0xffffffff
    6b7c:	ffff ffff 			; <UNDEFINED> instruction: 0xffffffff
    6b80:	ffff ffff 			; <UNDEFINED> instruction: 0xffffffff
    6b84:	ffff ffff 			; <UNDEFINED> instruction: 0xffffffff
    6b88:	ffff ffff 			; <UNDEFINED> instruction: 0xffffffff
    6b8c:	ffff ffff 			; <UNDEFINED> instruction: 0xffffffff
    6b90:	ffff ffff 			; <UNDEFINED> instruction: 0xffffffff
    6b94:	ffff ffff 			; <UNDEFINED> instruction: 0xffffffff
    6b98:	ffff ffff 			; <UNDEFINED> instruction: 0xffffffff
    6b9c:	ffff ffff 			; <UNDEFINED> instruction: 0xffffffff
    6ba0:	ffff ffff 			; <UNDEFINED> instruction: 0xffffffff
    6ba4:	ffff ffff 			; <UNDEFINED> instruction: 0xffffffff
    6ba8:	ffff ffff 			; <UNDEFINED> instruction: 0xffffffff
    6bac:	ffff ffff 			; <UNDEFINED> instruction: 0xffffffff
    6bb0:	ffff ffff 			; <UNDEFINED> instruction: 0xffffffff
    6bb4:	ffff ffff 			; <UNDEFINED> instruction: 0xffffffff
    6bb8:	ffff ffff 			; <UNDEFINED> instruction: 0xffffffff
    6bbc:	ffff ffff 			; <UNDEFINED> instruction: 0xffffffff
    6bc0:	ffff ffff 			; <UNDEFINED> instruction: 0xffffffff
    6bc4:	ffff ffff 			; <UNDEFINED> instruction: 0xffffffff
    6bc8:	ffff ffff 			; <UNDEFINED> instruction: 0xffffffff
    6bcc:	ffff ffff 			; <UNDEFINED> instruction: 0xffffffff
    6bd0:	ffff ffff 			; <UNDEFINED> instruction: 0xffffffff
    6bd4:	ffff ffff 			; <UNDEFINED> instruction: 0xffffffff
    6bd8:	ffff ffff 			; <UNDEFINED> instruction: 0xffffffff
    6bdc:	ffff ffff 			; <UNDEFINED> instruction: 0xffffffff
    6be0:	ffff ffff 			; <UNDEFINED> instruction: 0xffffffff
    6be4:	ffff ffff 			; <UNDEFINED> instruction: 0xffffffff
    6be8:	ffff ffff 			; <UNDEFINED> instruction: 0xffffffff
    6bec:	ffff ffff 			; <UNDEFINED> instruction: 0xffffffff
    6bf0:	ffff ffff 			; <UNDEFINED> instruction: 0xffffffff
    6bf4:	ffff ffff 			; <UNDEFINED> instruction: 0xffffffff
    6bf8:	ffff ffff 			; <UNDEFINED> instruction: 0xffffffff
    6bfc:	ffff ffff 			; <UNDEFINED> instruction: 0xffffffff
    6c00:	ffff ffff 			; <UNDEFINED> instruction: 0xffffffff
    6c04:	ffff ffff 			; <UNDEFINED> instruction: 0xffffffff
    6c08:	ffff ffff 			; <UNDEFINED> instruction: 0xffffffff
    6c0c:	ffff ffff 			; <UNDEFINED> instruction: 0xffffffff
    6c10:	ffff ffff 			; <UNDEFINED> instruction: 0xffffffff
    6c14:	ffff ffff 			; <UNDEFINED> instruction: 0xffffffff
    6c18:	ffff ffff 			; <UNDEFINED> instruction: 0xffffffff
    6c1c:	ffff ffff 			; <UNDEFINED> instruction: 0xffffffff
    6c20:	ffff ffff 			; <UNDEFINED> instruction: 0xffffffff
    6c24:	ffff ffff 			; <UNDEFINED> instruction: 0xffffffff
    6c28:	ffff ffff 			; <UNDEFINED> instruction: 0xffffffff
    6c2c:	ffff ffff 			; <UNDEFINED> instruction: 0xffffffff
    6c30:	ffff ffff 			; <UNDEFINED> instruction: 0xffffffff
    6c34:	ffff ffff 			; <UNDEFINED> instruction: 0xffffffff
    6c38:	ffff ffff 			; <UNDEFINED> instruction: 0xffffffff
    6c3c:	ffff ffff 			; <UNDEFINED> instruction: 0xffffffff
    6c40:	ffff ffff 			; <UNDEFINED> instruction: 0xffffffff
    6c44:	ffff ffff 			; <UNDEFINED> instruction: 0xffffffff
    6c48:	ffff ffff 			; <UNDEFINED> instruction: 0xffffffff
    6c4c:	ffff ffff 			; <UNDEFINED> instruction: 0xffffffff
    6c50:	ffff ffff 			; <UNDEFINED> instruction: 0xffffffff
    6c54:	ffff ffff 			; <UNDEFINED> instruction: 0xffffffff
    6c58:	ffff ffff 			; <UNDEFINED> instruction: 0xffffffff
    6c5c:	ffff ffff 			; <UNDEFINED> instruction: 0xffffffff
    6c60:	ffff ffff 			; <UNDEFINED> instruction: 0xffffffff
    6c64:	ffff ffff 			; <UNDEFINED> instruction: 0xffffffff
    6c68:	ffff ffff 			; <UNDEFINED> instruction: 0xffffffff
    6c6c:	ffff ffff 			; <UNDEFINED> instruction: 0xffffffff
    6c70:	ffff ffff 			; <UNDEFINED> instruction: 0xffffffff
    6c74:	ffff ffff 			; <UNDEFINED> instruction: 0xffffffff
    6c78:	ffff ffff 			; <UNDEFINED> instruction: 0xffffffff
    6c7c:	ffff ffff 			; <UNDEFINED> instruction: 0xffffffff
    6c80:	ffff ffff 			; <UNDEFINED> instruction: 0xffffffff
    6c84:	ffff ffff 			; <UNDEFINED> instruction: 0xffffffff
    6c88:	ffff ffff 			; <UNDEFINED> instruction: 0xffffffff
    6c8c:	ffff ffff 			; <UNDEFINED> instruction: 0xffffffff
    6c90:	ffff ffff 			; <UNDEFINED> instruction: 0xffffffff
    6c94:	ffff ffff 			; <UNDEFINED> instruction: 0xffffffff
    6c98:	ffff ffff 			; <UNDEFINED> instruction: 0xffffffff
    6c9c:	ffff ffff 			; <UNDEFINED> instruction: 0xffffffff
    6ca0:	ffff ffff 			; <UNDEFINED> instruction: 0xffffffff
    6ca4:	ffff ffff 			; <UNDEFINED> instruction: 0xffffffff
    6ca8:	ffff ffff 			; <UNDEFINED> instruction: 0xffffffff
    6cac:	ffff ffff 			; <UNDEFINED> instruction: 0xffffffff
    6cb0:	ffff ffff 			; <UNDEFINED> instruction: 0xffffffff
    6cb4:	ffff ffff 			; <UNDEFINED> instruction: 0xffffffff
    6cb8:	ffff ffff 			; <UNDEFINED> instruction: 0xffffffff
    6cbc:	ffff ffff 			; <UNDEFINED> instruction: 0xffffffff
    6cc0:	ffff ffff 			; <UNDEFINED> instruction: 0xffffffff
    6cc4:	ffff ffff 			; <UNDEFINED> instruction: 0xffffffff
    6cc8:	ffff ffff 			; <UNDEFINED> instruction: 0xffffffff
    6ccc:	ffff ffff 			; <UNDEFINED> instruction: 0xffffffff
    6cd0:	ffff ffff 			; <UNDEFINED> instruction: 0xffffffff
    6cd4:	ffff ffff 			; <UNDEFINED> instruction: 0xffffffff
    6cd8:	ffff ffff 			; <UNDEFINED> instruction: 0xffffffff
    6cdc:	ffff ffff 			; <UNDEFINED> instruction: 0xffffffff
    6ce0:	ffff ffff 			; <UNDEFINED> instruction: 0xffffffff
    6ce4:	ffff ffff 			; <UNDEFINED> instruction: 0xffffffff
    6ce8:	ffff ffff 			; <UNDEFINED> instruction: 0xffffffff
    6cec:	ffff ffff 			; <UNDEFINED> instruction: 0xffffffff
    6cf0:	ffff ffff 			; <UNDEFINED> instruction: 0xffffffff
    6cf4:	ffff ffff 			; <UNDEFINED> instruction: 0xffffffff
    6cf8:	ffff ffff 			; <UNDEFINED> instruction: 0xffffffff
    6cfc:	ffff ffff 			; <UNDEFINED> instruction: 0xffffffff
    6d00:	ffff ffff 			; <UNDEFINED> instruction: 0xffffffff
    6d04:	ffff ffff 			; <UNDEFINED> instruction: 0xffffffff
    6d08:	ffff ffff 			; <UNDEFINED> instruction: 0xffffffff
    6d0c:	ffff ffff 			; <UNDEFINED> instruction: 0xffffffff
    6d10:	ffff ffff 			; <UNDEFINED> instruction: 0xffffffff
    6d14:	ffff ffff 			; <UNDEFINED> instruction: 0xffffffff
    6d18:	ffff ffff 			; <UNDEFINED> instruction: 0xffffffff
    6d1c:	ffff ffff 			; <UNDEFINED> instruction: 0xffffffff
    6d20:	ffff ffff 			; <UNDEFINED> instruction: 0xffffffff
    6d24:	ffff ffff 			; <UNDEFINED> instruction: 0xffffffff
    6d28:	ffff ffff 			; <UNDEFINED> instruction: 0xffffffff
    6d2c:	ffff ffff 			; <UNDEFINED> instruction: 0xffffffff
    6d30:	ffff ffff 			; <UNDEFINED> instruction: 0xffffffff
    6d34:	ffff ffff 			; <UNDEFINED> instruction: 0xffffffff
    6d38:	ffff ffff 			; <UNDEFINED> instruction: 0xffffffff
    6d3c:	ffff ffff 			; <UNDEFINED> instruction: 0xffffffff
    6d40:	ffff ffff 			; <UNDEFINED> instruction: 0xffffffff
    6d44:	ffff ffff 			; <UNDEFINED> instruction: 0xffffffff
    6d48:	ffff ffff 			; <UNDEFINED> instruction: 0xffffffff
    6d4c:	ffff ffff 			; <UNDEFINED> instruction: 0xffffffff
    6d50:	ffff ffff 			; <UNDEFINED> instruction: 0xffffffff
    6d54:	ffff ffff 			; <UNDEFINED> instruction: 0xffffffff
    6d58:	ffff ffff 			; <UNDEFINED> instruction: 0xffffffff
    6d5c:	ffff ffff 			; <UNDEFINED> instruction: 0xffffffff
    6d60:	ffff ffff 			; <UNDEFINED> instruction: 0xffffffff
    6d64:	ffff ffff 			; <UNDEFINED> instruction: 0xffffffff
    6d68:	ffff ffff 			; <UNDEFINED> instruction: 0xffffffff
    6d6c:	ffff ffff 			; <UNDEFINED> instruction: 0xffffffff
    6d70:	ffff ffff 			; <UNDEFINED> instruction: 0xffffffff
    6d74:	ffff ffff 			; <UNDEFINED> instruction: 0xffffffff
    6d78:	ffff ffff 			; <UNDEFINED> instruction: 0xffffffff
    6d7c:	ffff ffff 			; <UNDEFINED> instruction: 0xffffffff
    6d80:	ffff ffff 			; <UNDEFINED> instruction: 0xffffffff
    6d84:	ffff ffff 			; <UNDEFINED> instruction: 0xffffffff
    6d88:	ffff ffff 			; <UNDEFINED> instruction: 0xffffffff
    6d8c:	ffff ffff 			; <UNDEFINED> instruction: 0xffffffff
    6d90:	ffff ffff 			; <UNDEFINED> instruction: 0xffffffff
    6d94:	ffff ffff 			; <UNDEFINED> instruction: 0xffffffff
    6d98:	ffff ffff 			; <UNDEFINED> instruction: 0xffffffff
    6d9c:	ffff ffff 			; <UNDEFINED> instruction: 0xffffffff
    6da0:	ffff ffff 			; <UNDEFINED> instruction: 0xffffffff
    6da4:	ffff ffff 			; <UNDEFINED> instruction: 0xffffffff
    6da8:	ffff ffff 			; <UNDEFINED> instruction: 0xffffffff
    6dac:	ffff ffff 			; <UNDEFINED> instruction: 0xffffffff
    6db0:	ffff ffff 			; <UNDEFINED> instruction: 0xffffffff
    6db4:	ffff ffff 			; <UNDEFINED> instruction: 0xffffffff
    6db8:	ffff ffff 			; <UNDEFINED> instruction: 0xffffffff
    6dbc:	ffff ffff 			; <UNDEFINED> instruction: 0xffffffff
    6dc0:	ffff ffff 			; <UNDEFINED> instruction: 0xffffffff
    6dc4:	ffff ffff 			; <UNDEFINED> instruction: 0xffffffff
    6dc8:	ffff ffff 			; <UNDEFINED> instruction: 0xffffffff
    6dcc:	ffff ffff 			; <UNDEFINED> instruction: 0xffffffff
    6dd0:	ffff ffff 			; <UNDEFINED> instruction: 0xffffffff
    6dd4:	ffff ffff 			; <UNDEFINED> instruction: 0xffffffff
    6dd8:	ffff ffff 			; <UNDEFINED> instruction: 0xffffffff
    6ddc:	ffff ffff 			; <UNDEFINED> instruction: 0xffffffff
    6de0:	ffff ffff 			; <UNDEFINED> instruction: 0xffffffff
    6de4:	ffff ffff 			; <UNDEFINED> instruction: 0xffffffff
    6de8:	ffff ffff 			; <UNDEFINED> instruction: 0xffffffff
    6dec:	ffff ffff 			; <UNDEFINED> instruction: 0xffffffff
    6df0:	ffff ffff 			; <UNDEFINED> instruction: 0xffffffff
    6df4:	ffff ffff 			; <UNDEFINED> instruction: 0xffffffff
    6df8:	ffff ffff 			; <UNDEFINED> instruction: 0xffffffff
    6dfc:	ffff ffff 			; <UNDEFINED> instruction: 0xffffffff
    6e00:	ffff ffff 			; <UNDEFINED> instruction: 0xffffffff
    6e04:	ffff ffff 			; <UNDEFINED> instruction: 0xffffffff
    6e08:	ffff ffff 			; <UNDEFINED> instruction: 0xffffffff
    6e0c:	ffff ffff 			; <UNDEFINED> instruction: 0xffffffff
    6e10:	ffff ffff 			; <UNDEFINED> instruction: 0xffffffff
    6e14:	ffff ffff 			; <UNDEFINED> instruction: 0xffffffff
    6e18:	ffff ffff 			; <UNDEFINED> instruction: 0xffffffff
    6e1c:	ffff ffff 			; <UNDEFINED> instruction: 0xffffffff
    6e20:	ffff ffff 			; <UNDEFINED> instruction: 0xffffffff
    6e24:	ffff ffff 			; <UNDEFINED> instruction: 0xffffffff
    6e28:	ffff ffff 			; <UNDEFINED> instruction: 0xffffffff
    6e2c:	ffff ffff 			; <UNDEFINED> instruction: 0xffffffff
    6e30:	ffff ffff 			; <UNDEFINED> instruction: 0xffffffff
    6e34:	ffff ffff 			; <UNDEFINED> instruction: 0xffffffff
    6e38:	ffff ffff 			; <UNDEFINED> instruction: 0xffffffff
    6e3c:	ffff ffff 			; <UNDEFINED> instruction: 0xffffffff
    6e40:	ffff ffff 			; <UNDEFINED> instruction: 0xffffffff
    6e44:	ffff ffff 			; <UNDEFINED> instruction: 0xffffffff
    6e48:	ffff ffff 			; <UNDEFINED> instruction: 0xffffffff
    6e4c:	ffff ffff 			; <UNDEFINED> instruction: 0xffffffff
    6e50:	ffff ffff 			; <UNDEFINED> instruction: 0xffffffff
    6e54:	ffff ffff 			; <UNDEFINED> instruction: 0xffffffff
    6e58:	ffff ffff 			; <UNDEFINED> instruction: 0xffffffff
    6e5c:	ffff ffff 			; <UNDEFINED> instruction: 0xffffffff
    6e60:	ffff ffff 			; <UNDEFINED> instruction: 0xffffffff
    6e64:	ffff ffff 			; <UNDEFINED> instruction: 0xffffffff
    6e68:	ffff ffff 			; <UNDEFINED> instruction: 0xffffffff
    6e6c:	ffff ffff 			; <UNDEFINED> instruction: 0xffffffff
    6e70:	ffff ffff 			; <UNDEFINED> instruction: 0xffffffff
    6e74:	ffff ffff 			; <UNDEFINED> instruction: 0xffffffff
    6e78:	ffff ffff 			; <UNDEFINED> instruction: 0xffffffff
    6e7c:	ffff ffff 			; <UNDEFINED> instruction: 0xffffffff
    6e80:	ffff ffff 			; <UNDEFINED> instruction: 0xffffffff
    6e84:	ffff ffff 			; <UNDEFINED> instruction: 0xffffffff
    6e88:	ffff ffff 			; <UNDEFINED> instruction: 0xffffffff
    6e8c:	ffff ffff 			; <UNDEFINED> instruction: 0xffffffff
    6e90:	ffff ffff 			; <UNDEFINED> instruction: 0xffffffff
    6e94:	ffff ffff 			; <UNDEFINED> instruction: 0xffffffff
    6e98:	ffff ffff 			; <UNDEFINED> instruction: 0xffffffff
    6e9c:	ffff ffff 			; <UNDEFINED> instruction: 0xffffffff
    6ea0:	ffff ffff 			; <UNDEFINED> instruction: 0xffffffff
    6ea4:	ffff ffff 			; <UNDEFINED> instruction: 0xffffffff
    6ea8:	ffff ffff 			; <UNDEFINED> instruction: 0xffffffff
    6eac:	ffff ffff 			; <UNDEFINED> instruction: 0xffffffff
    6eb0:	ffff ffff 			; <UNDEFINED> instruction: 0xffffffff
    6eb4:	ffff ffff 			; <UNDEFINED> instruction: 0xffffffff
    6eb8:	ffff ffff 			; <UNDEFINED> instruction: 0xffffffff
    6ebc:	ffff ffff 			; <UNDEFINED> instruction: 0xffffffff
    6ec0:	ffff ffff 			; <UNDEFINED> instruction: 0xffffffff
    6ec4:	ffff ffff 			; <UNDEFINED> instruction: 0xffffffff
    6ec8:	ffff ffff 			; <UNDEFINED> instruction: 0xffffffff
    6ecc:	ffff ffff 			; <UNDEFINED> instruction: 0xffffffff
    6ed0:	ffff ffff 			; <UNDEFINED> instruction: 0xffffffff
    6ed4:	ffff ffff 			; <UNDEFINED> instruction: 0xffffffff
    6ed8:	ffff ffff 			; <UNDEFINED> instruction: 0xffffffff
    6edc:	ffff ffff 			; <UNDEFINED> instruction: 0xffffffff
    6ee0:	ffff ffff 			; <UNDEFINED> instruction: 0xffffffff
    6ee4:	ffff ffff 			; <UNDEFINED> instruction: 0xffffffff
    6ee8:	ffff ffff 			; <UNDEFINED> instruction: 0xffffffff
    6eec:	ffff ffff 			; <UNDEFINED> instruction: 0xffffffff
    6ef0:	ffff ffff 			; <UNDEFINED> instruction: 0xffffffff
    6ef4:	ffff ffff 			; <UNDEFINED> instruction: 0xffffffff
    6ef8:	ffff ffff 			; <UNDEFINED> instruction: 0xffffffff
    6efc:	ffff ffff 			; <UNDEFINED> instruction: 0xffffffff
    6f00:	ffff ffff 			; <UNDEFINED> instruction: 0xffffffff
    6f04:	ffff ffff 			; <UNDEFINED> instruction: 0xffffffff
    6f08:	ffff ffff 			; <UNDEFINED> instruction: 0xffffffff
    6f0c:	ffff ffff 			; <UNDEFINED> instruction: 0xffffffff
    6f10:	ffff ffff 			; <UNDEFINED> instruction: 0xffffffff
    6f14:	ffff ffff 			; <UNDEFINED> instruction: 0xffffffff
    6f18:	ffff ffff 			; <UNDEFINED> instruction: 0xffffffff
    6f1c:	ffff ffff 			; <UNDEFINED> instruction: 0xffffffff
    6f20:	ffff ffff 			; <UNDEFINED> instruction: 0xffffffff
    6f24:	ffff ffff 			; <UNDEFINED> instruction: 0xffffffff
    6f28:	ffff ffff 			; <UNDEFINED> instruction: 0xffffffff
    6f2c:	ffff ffff 			; <UNDEFINED> instruction: 0xffffffff
    6f30:	ffff ffff 			; <UNDEFINED> instruction: 0xffffffff
    6f34:	ffff ffff 			; <UNDEFINED> instruction: 0xffffffff
    6f38:	ffff ffff 			; <UNDEFINED> instruction: 0xffffffff
    6f3c:	ffff ffff 			; <UNDEFINED> instruction: 0xffffffff
    6f40:	ffff ffff 			; <UNDEFINED> instruction: 0xffffffff
    6f44:	ffff ffff 			; <UNDEFINED> instruction: 0xffffffff
    6f48:	ffff ffff 			; <UNDEFINED> instruction: 0xffffffff
    6f4c:	ffff ffff 			; <UNDEFINED> instruction: 0xffffffff
    6f50:	ffff ffff 			; <UNDEFINED> instruction: 0xffffffff
    6f54:	ffff ffff 			; <UNDEFINED> instruction: 0xffffffff
    6f58:	ffff ffff 			; <UNDEFINED> instruction: 0xffffffff
    6f5c:	ffff ffff 			; <UNDEFINED> instruction: 0xffffffff
    6f60:	ffff ffff 			; <UNDEFINED> instruction: 0xffffffff
    6f64:	ffff ffff 			; <UNDEFINED> instruction: 0xffffffff
    6f68:	ffff ffff 			; <UNDEFINED> instruction: 0xffffffff
    6f6c:	ffff ffff 			; <UNDEFINED> instruction: 0xffffffff
    6f70:	ffff ffff 			; <UNDEFINED> instruction: 0xffffffff
    6f74:	ffff ffff 			; <UNDEFINED> instruction: 0xffffffff
    6f78:	ffff ffff 			; <UNDEFINED> instruction: 0xffffffff
    6f7c:	ffff ffff 			; <UNDEFINED> instruction: 0xffffffff
    6f80:	ffff ffff 			; <UNDEFINED> instruction: 0xffffffff
    6f84:	ffff ffff 			; <UNDEFINED> instruction: 0xffffffff
    6f88:	ffff ffff 			; <UNDEFINED> instruction: 0xffffffff
    6f8c:	ffff ffff 			; <UNDEFINED> instruction: 0xffffffff
    6f90:	ffff ffff 			; <UNDEFINED> instruction: 0xffffffff
    6f94:	ffff ffff 			; <UNDEFINED> instruction: 0xffffffff
    6f98:	ffff ffff 			; <UNDEFINED> instruction: 0xffffffff
    6f9c:	ffff ffff 			; <UNDEFINED> instruction: 0xffffffff
    6fa0:	ffff ffff 			; <UNDEFINED> instruction: 0xffffffff
    6fa4:	ffff ffff 			; <UNDEFINED> instruction: 0xffffffff
    6fa8:	ffff ffff 			; <UNDEFINED> instruction: 0xffffffff
    6fac:	ffff ffff 			; <UNDEFINED> instruction: 0xffffffff
    6fb0:	ffff ffff 			; <UNDEFINED> instruction: 0xffffffff
    6fb4:	ffff ffff 			; <UNDEFINED> instruction: 0xffffffff
    6fb8:	ffff ffff 			; <UNDEFINED> instruction: 0xffffffff
    6fbc:	ffff ffff 			; <UNDEFINED> instruction: 0xffffffff
    6fc0:	ffff ffff 			; <UNDEFINED> instruction: 0xffffffff
    6fc4:	ffff ffff 			; <UNDEFINED> instruction: 0xffffffff
    6fc8:	ffff ffff 			; <UNDEFINED> instruction: 0xffffffff
    6fcc:	ffff ffff 			; <UNDEFINED> instruction: 0xffffffff
    6fd0:	ffff ffff 			; <UNDEFINED> instruction: 0xffffffff
    6fd4:	ffff ffff 			; <UNDEFINED> instruction: 0xffffffff
    6fd8:	ffff ffff 			; <UNDEFINED> instruction: 0xffffffff
    6fdc:	ffff ffff 			; <UNDEFINED> instruction: 0xffffffff
    6fe0:	ffff ffff 			; <UNDEFINED> instruction: 0xffffffff
    6fe4:	ffff ffff 			; <UNDEFINED> instruction: 0xffffffff
    6fe8:	ffff ffff 			; <UNDEFINED> instruction: 0xffffffff
    6fec:	ffff ffff 			; <UNDEFINED> instruction: 0xffffffff
    6ff0:	ffff ffff 			; <UNDEFINED> instruction: 0xffffffff
    6ff4:	ffff ffff 			; <UNDEFINED> instruction: 0xffffffff
    6ff8:	ffff ffff 			; <UNDEFINED> instruction: 0xffffffff
    6ffc:	ffff ffff 			; <UNDEFINED> instruction: 0xffffffff
    7000:	ffff ffff 			; <UNDEFINED> instruction: 0xffffffff
    7004:	ffff ffff 			; <UNDEFINED> instruction: 0xffffffff
    7008:	ffff ffff 			; <UNDEFINED> instruction: 0xffffffff
    700c:	ffff ffff 			; <UNDEFINED> instruction: 0xffffffff
    7010:	ffff ffff 			; <UNDEFINED> instruction: 0xffffffff
    7014:	ffff ffff 			; <UNDEFINED> instruction: 0xffffffff
    7018:	ffff ffff 			; <UNDEFINED> instruction: 0xffffffff
    701c:	ffff ffff 			; <UNDEFINED> instruction: 0xffffffff
    7020:	ffff ffff 			; <UNDEFINED> instruction: 0xffffffff
    7024:	ffff ffff 			; <UNDEFINED> instruction: 0xffffffff
    7028:	ffff ffff 			; <UNDEFINED> instruction: 0xffffffff
    702c:	ffff ffff 			; <UNDEFINED> instruction: 0xffffffff
    7030:	ffff ffff 			; <UNDEFINED> instruction: 0xffffffff
    7034:	ffff ffff 			; <UNDEFINED> instruction: 0xffffffff
    7038:	ffff ffff 			; <UNDEFINED> instruction: 0xffffffff
    703c:	ffff ffff 			; <UNDEFINED> instruction: 0xffffffff
    7040:	ffff ffff 			; <UNDEFINED> instruction: 0xffffffff
    7044:	ffff ffff 			; <UNDEFINED> instruction: 0xffffffff
    7048:	ffff ffff 			; <UNDEFINED> instruction: 0xffffffff
    704c:	ffff ffff 			; <UNDEFINED> instruction: 0xffffffff
    7050:	ffff ffff 			; <UNDEFINED> instruction: 0xffffffff
    7054:	ffff ffff 			; <UNDEFINED> instruction: 0xffffffff
    7058:	ffff ffff 			; <UNDEFINED> instruction: 0xffffffff
    705c:	ffff ffff 			; <UNDEFINED> instruction: 0xffffffff
    7060:	ffff ffff 			; <UNDEFINED> instruction: 0xffffffff
    7064:	ffff ffff 			; <UNDEFINED> instruction: 0xffffffff
    7068:	ffff ffff 			; <UNDEFINED> instruction: 0xffffffff
    706c:	ffff ffff 			; <UNDEFINED> instruction: 0xffffffff
    7070:	ffff ffff 			; <UNDEFINED> instruction: 0xffffffff
    7074:	ffff ffff 			; <UNDEFINED> instruction: 0xffffffff
    7078:	ffff ffff 			; <UNDEFINED> instruction: 0xffffffff
    707c:	ffff ffff 			; <UNDEFINED> instruction: 0xffffffff
    7080:	ffff ffff 			; <UNDEFINED> instruction: 0xffffffff
    7084:	ffff ffff 			; <UNDEFINED> instruction: 0xffffffff
    7088:	ffff ffff 			; <UNDEFINED> instruction: 0xffffffff
    708c:	ffff ffff 			; <UNDEFINED> instruction: 0xffffffff
    7090:	ffff ffff 			; <UNDEFINED> instruction: 0xffffffff
    7094:	ffff ffff 			; <UNDEFINED> instruction: 0xffffffff
    7098:	ffff ffff 			; <UNDEFINED> instruction: 0xffffffff
    709c:	ffff ffff 			; <UNDEFINED> instruction: 0xffffffff
    70a0:	ffff ffff 			; <UNDEFINED> instruction: 0xffffffff
    70a4:	ffff ffff 			; <UNDEFINED> instruction: 0xffffffff
    70a8:	ffff ffff 			; <UNDEFINED> instruction: 0xffffffff
    70ac:	ffff ffff 			; <UNDEFINED> instruction: 0xffffffff
    70b0:	ffff ffff 			; <UNDEFINED> instruction: 0xffffffff
    70b4:	ffff ffff 			; <UNDEFINED> instruction: 0xffffffff
    70b8:	ffff ffff 			; <UNDEFINED> instruction: 0xffffffff
    70bc:	ffff ffff 			; <UNDEFINED> instruction: 0xffffffff
    70c0:	ffff ffff 			; <UNDEFINED> instruction: 0xffffffff
    70c4:	ffff ffff 			; <UNDEFINED> instruction: 0xffffffff
    70c8:	ffff ffff 			; <UNDEFINED> instruction: 0xffffffff
    70cc:	ffff ffff 			; <UNDEFINED> instruction: 0xffffffff
    70d0:	ffff ffff 			; <UNDEFINED> instruction: 0xffffffff
    70d4:	ffff ffff 			; <UNDEFINED> instruction: 0xffffffff
    70d8:	ffff ffff 			; <UNDEFINED> instruction: 0xffffffff
    70dc:	ffff ffff 			; <UNDEFINED> instruction: 0xffffffff
    70e0:	ffff ffff 			; <UNDEFINED> instruction: 0xffffffff
    70e4:	ffff ffff 			; <UNDEFINED> instruction: 0xffffffff
    70e8:	ffff ffff 			; <UNDEFINED> instruction: 0xffffffff
    70ec:	ffff ffff 			; <UNDEFINED> instruction: 0xffffffff
    70f0:	ffff ffff 			; <UNDEFINED> instruction: 0xffffffff
    70f4:	ffff ffff 			; <UNDEFINED> instruction: 0xffffffff
    70f8:	ffff ffff 			; <UNDEFINED> instruction: 0xffffffff
    70fc:	ffff ffff 			; <UNDEFINED> instruction: 0xffffffff
    7100:	ffff ffff 			; <UNDEFINED> instruction: 0xffffffff
    7104:	ffff ffff 			; <UNDEFINED> instruction: 0xffffffff
    7108:	ffff ffff 			; <UNDEFINED> instruction: 0xffffffff
    710c:	ffff ffff 			; <UNDEFINED> instruction: 0xffffffff
    7110:	ffff ffff 			; <UNDEFINED> instruction: 0xffffffff
    7114:	ffff ffff 			; <UNDEFINED> instruction: 0xffffffff
    7118:	ffff ffff 			; <UNDEFINED> instruction: 0xffffffff
    711c:	ffff ffff 			; <UNDEFINED> instruction: 0xffffffff
    7120:	ffff ffff 			; <UNDEFINED> instruction: 0xffffffff
    7124:	ffff ffff 			; <UNDEFINED> instruction: 0xffffffff
    7128:	ffff ffff 			; <UNDEFINED> instruction: 0xffffffff
    712c:	ffff ffff 			; <UNDEFINED> instruction: 0xffffffff
    7130:	ffff ffff 			; <UNDEFINED> instruction: 0xffffffff
    7134:	ffff ffff 			; <UNDEFINED> instruction: 0xffffffff
    7138:	ffff ffff 			; <UNDEFINED> instruction: 0xffffffff
    713c:	ffff ffff 			; <UNDEFINED> instruction: 0xffffffff
    7140:	ffff ffff 			; <UNDEFINED> instruction: 0xffffffff
    7144:	ffff ffff 			; <UNDEFINED> instruction: 0xffffffff
    7148:	ffff ffff 			; <UNDEFINED> instruction: 0xffffffff
    714c:	ffff ffff 			; <UNDEFINED> instruction: 0xffffffff
    7150:	ffff ffff 			; <UNDEFINED> instruction: 0xffffffff
    7154:	ffff ffff 			; <UNDEFINED> instruction: 0xffffffff
    7158:	ffff ffff 			; <UNDEFINED> instruction: 0xffffffff
    715c:	ffff ffff 			; <UNDEFINED> instruction: 0xffffffff
    7160:	ffff ffff 			; <UNDEFINED> instruction: 0xffffffff
    7164:	ffff ffff 			; <UNDEFINED> instruction: 0xffffffff
    7168:	ffff ffff 			; <UNDEFINED> instruction: 0xffffffff
    716c:	ffff ffff 			; <UNDEFINED> instruction: 0xffffffff
    7170:	ffff ffff 			; <UNDEFINED> instruction: 0xffffffff
    7174:	ffff ffff 			; <UNDEFINED> instruction: 0xffffffff
    7178:	ffff ffff 			; <UNDEFINED> instruction: 0xffffffff
    717c:	ffff ffff 			; <UNDEFINED> instruction: 0xffffffff
    7180:	ffff ffff 			; <UNDEFINED> instruction: 0xffffffff
    7184:	ffff ffff 			; <UNDEFINED> instruction: 0xffffffff
    7188:	ffff ffff 			; <UNDEFINED> instruction: 0xffffffff
    718c:	ffff ffff 			; <UNDEFINED> instruction: 0xffffffff
    7190:	ffff ffff 			; <UNDEFINED> instruction: 0xffffffff
    7194:	ffff ffff 			; <UNDEFINED> instruction: 0xffffffff
    7198:	ffff ffff 			; <UNDEFINED> instruction: 0xffffffff
    719c:	ffff ffff 			; <UNDEFINED> instruction: 0xffffffff
    71a0:	ffff ffff 			; <UNDEFINED> instruction: 0xffffffff
    71a4:	ffff ffff 			; <UNDEFINED> instruction: 0xffffffff
    71a8:	ffff ffff 			; <UNDEFINED> instruction: 0xffffffff
    71ac:	ffff ffff 			; <UNDEFINED> instruction: 0xffffffff
    71b0:	ffff ffff 			; <UNDEFINED> instruction: 0xffffffff
    71b4:	ffff ffff 			; <UNDEFINED> instruction: 0xffffffff
    71b8:	ffff ffff 			; <UNDEFINED> instruction: 0xffffffff
    71bc:	ffff ffff 			; <UNDEFINED> instruction: 0xffffffff
    71c0:	ffff ffff 			; <UNDEFINED> instruction: 0xffffffff
    71c4:	ffff ffff 			; <UNDEFINED> instruction: 0xffffffff
    71c8:	ffff ffff 			; <UNDEFINED> instruction: 0xffffffff
    71cc:	ffff ffff 			; <UNDEFINED> instruction: 0xffffffff
    71d0:	ffff ffff 			; <UNDEFINED> instruction: 0xffffffff
    71d4:	ffff ffff 			; <UNDEFINED> instruction: 0xffffffff
    71d8:	ffff ffff 			; <UNDEFINED> instruction: 0xffffffff
    71dc:	ffff ffff 			; <UNDEFINED> instruction: 0xffffffff
    71e0:	ffff ffff 			; <UNDEFINED> instruction: 0xffffffff
    71e4:	ffff ffff 			; <UNDEFINED> instruction: 0xffffffff
    71e8:	ffff ffff 			; <UNDEFINED> instruction: 0xffffffff
    71ec:	ffff ffff 			; <UNDEFINED> instruction: 0xffffffff
    71f0:	ffff ffff 			; <UNDEFINED> instruction: 0xffffffff
    71f4:	ffff ffff 			; <UNDEFINED> instruction: 0xffffffff
    71f8:	ffff ffff 			; <UNDEFINED> instruction: 0xffffffff
    71fc:	ffff ffff 			; <UNDEFINED> instruction: 0xffffffff
    7200:	ffff ffff 			; <UNDEFINED> instruction: 0xffffffff
    7204:	ffff ffff 			; <UNDEFINED> instruction: 0xffffffff
    7208:	ffff ffff 			; <UNDEFINED> instruction: 0xffffffff
    720c:	ffff ffff 			; <UNDEFINED> instruction: 0xffffffff
    7210:	ffff ffff 			; <UNDEFINED> instruction: 0xffffffff
    7214:	ffff ffff 			; <UNDEFINED> instruction: 0xffffffff
    7218:	ffff ffff 			; <UNDEFINED> instruction: 0xffffffff
    721c:	ffff ffff 			; <UNDEFINED> instruction: 0xffffffff
    7220:	ffff ffff 			; <UNDEFINED> instruction: 0xffffffff
    7224:	ffff ffff 			; <UNDEFINED> instruction: 0xffffffff
    7228:	ffff ffff 			; <UNDEFINED> instruction: 0xffffffff
    722c:	ffff ffff 			; <UNDEFINED> instruction: 0xffffffff
    7230:	ffff ffff 			; <UNDEFINED> instruction: 0xffffffff
    7234:	ffff ffff 			; <UNDEFINED> instruction: 0xffffffff
    7238:	ffff ffff 			; <UNDEFINED> instruction: 0xffffffff
    723c:	ffff ffff 			; <UNDEFINED> instruction: 0xffffffff
    7240:	ffff ffff 			; <UNDEFINED> instruction: 0xffffffff
    7244:	ffff ffff 			; <UNDEFINED> instruction: 0xffffffff
    7248:	ffff ffff 			; <UNDEFINED> instruction: 0xffffffff
    724c:	ffff ffff 			; <UNDEFINED> instruction: 0xffffffff
    7250:	ffff ffff 			; <UNDEFINED> instruction: 0xffffffff
    7254:	ffff ffff 			; <UNDEFINED> instruction: 0xffffffff
    7258:	ffff ffff 			; <UNDEFINED> instruction: 0xffffffff
    725c:	ffff ffff 			; <UNDEFINED> instruction: 0xffffffff
    7260:	ffff ffff 			; <UNDEFINED> instruction: 0xffffffff
    7264:	ffff ffff 			; <UNDEFINED> instruction: 0xffffffff
    7268:	ffff ffff 			; <UNDEFINED> instruction: 0xffffffff
    726c:	ffff ffff 			; <UNDEFINED> instruction: 0xffffffff
    7270:	ffff ffff 			; <UNDEFINED> instruction: 0xffffffff
    7274:	ffff ffff 			; <UNDEFINED> instruction: 0xffffffff
    7278:	ffff ffff 			; <UNDEFINED> instruction: 0xffffffff
    727c:	ffff ffff 			; <UNDEFINED> instruction: 0xffffffff
    7280:	ffff ffff 			; <UNDEFINED> instruction: 0xffffffff
    7284:	ffff ffff 			; <UNDEFINED> instruction: 0xffffffff
    7288:	ffff ffff 			; <UNDEFINED> instruction: 0xffffffff
    728c:	ffff ffff 			; <UNDEFINED> instruction: 0xffffffff
    7290:	ffff ffff 			; <UNDEFINED> instruction: 0xffffffff
    7294:	ffff ffff 			; <UNDEFINED> instruction: 0xffffffff
    7298:	ffff ffff 			; <UNDEFINED> instruction: 0xffffffff
    729c:	ffff ffff 			; <UNDEFINED> instruction: 0xffffffff
    72a0:	ffff ffff 			; <UNDEFINED> instruction: 0xffffffff
    72a4:	ffff ffff 			; <UNDEFINED> instruction: 0xffffffff
    72a8:	ffff ffff 			; <UNDEFINED> instruction: 0xffffffff
    72ac:	ffff ffff 			; <UNDEFINED> instruction: 0xffffffff
    72b0:	ffff ffff 			; <UNDEFINED> instruction: 0xffffffff
    72b4:	ffff ffff 			; <UNDEFINED> instruction: 0xffffffff
    72b8:	ffff ffff 			; <UNDEFINED> instruction: 0xffffffff
    72bc:	ffff ffff 			; <UNDEFINED> instruction: 0xffffffff
    72c0:	ffff ffff 			; <UNDEFINED> instruction: 0xffffffff
    72c4:	ffff ffff 			; <UNDEFINED> instruction: 0xffffffff
    72c8:	ffff ffff 			; <UNDEFINED> instruction: 0xffffffff
    72cc:	ffff ffff 			; <UNDEFINED> instruction: 0xffffffff
    72d0:	ffff ffff 			; <UNDEFINED> instruction: 0xffffffff
    72d4:	ffff ffff 			; <UNDEFINED> instruction: 0xffffffff
    72d8:	ffff ffff 			; <UNDEFINED> instruction: 0xffffffff
    72dc:	ffff ffff 			; <UNDEFINED> instruction: 0xffffffff
    72e0:	ffff ffff 			; <UNDEFINED> instruction: 0xffffffff
    72e4:	ffff ffff 			; <UNDEFINED> instruction: 0xffffffff
    72e8:	ffff ffff 			; <UNDEFINED> instruction: 0xffffffff
    72ec:	ffff ffff 			; <UNDEFINED> instruction: 0xffffffff
    72f0:	ffff ffff 			; <UNDEFINED> instruction: 0xffffffff
    72f4:	ffff ffff 			; <UNDEFINED> instruction: 0xffffffff
    72f8:	ffff ffff 			; <UNDEFINED> instruction: 0xffffffff
    72fc:	ffff ffff 			; <UNDEFINED> instruction: 0xffffffff
    7300:	ffff ffff 			; <UNDEFINED> instruction: 0xffffffff
    7304:	ffff ffff 			; <UNDEFINED> instruction: 0xffffffff
    7308:	ffff ffff 			; <UNDEFINED> instruction: 0xffffffff
    730c:	ffff ffff 			; <UNDEFINED> instruction: 0xffffffff
    7310:	ffff ffff 			; <UNDEFINED> instruction: 0xffffffff
    7314:	ffff ffff 			; <UNDEFINED> instruction: 0xffffffff
    7318:	ffff ffff 			; <UNDEFINED> instruction: 0xffffffff
    731c:	ffff ffff 			; <UNDEFINED> instruction: 0xffffffff
    7320:	ffff ffff 			; <UNDEFINED> instruction: 0xffffffff
    7324:	ffff ffff 			; <UNDEFINED> instruction: 0xffffffff
    7328:	ffff ffff 			; <UNDEFINED> instruction: 0xffffffff
    732c:	ffff ffff 			; <UNDEFINED> instruction: 0xffffffff
    7330:	ffff ffff 			; <UNDEFINED> instruction: 0xffffffff
    7334:	ffff ffff 			; <UNDEFINED> instruction: 0xffffffff
    7338:	ffff ffff 			; <UNDEFINED> instruction: 0xffffffff
    733c:	ffff ffff 			; <UNDEFINED> instruction: 0xffffffff
    7340:	ffff ffff 			; <UNDEFINED> instruction: 0xffffffff
    7344:	ffff ffff 			; <UNDEFINED> instruction: 0xffffffff
    7348:	ffff ffff 			; <UNDEFINED> instruction: 0xffffffff
    734c:	ffff ffff 			; <UNDEFINED> instruction: 0xffffffff
    7350:	ffff ffff 			; <UNDEFINED> instruction: 0xffffffff
    7354:	ffff ffff 			; <UNDEFINED> instruction: 0xffffffff
    7358:	ffff ffff 			; <UNDEFINED> instruction: 0xffffffff
    735c:	ffff ffff 			; <UNDEFINED> instruction: 0xffffffff
    7360:	ffff ffff 			; <UNDEFINED> instruction: 0xffffffff
    7364:	ffff ffff 			; <UNDEFINED> instruction: 0xffffffff
    7368:	ffff ffff 			; <UNDEFINED> instruction: 0xffffffff
    736c:	ffff ffff 			; <UNDEFINED> instruction: 0xffffffff
    7370:	ffff ffff 			; <UNDEFINED> instruction: 0xffffffff
    7374:	ffff ffff 			; <UNDEFINED> instruction: 0xffffffff
    7378:	ffff ffff 			; <UNDEFINED> instruction: 0xffffffff
    737c:	ffff ffff 			; <UNDEFINED> instruction: 0xffffffff
    7380:	ffff ffff 			; <UNDEFINED> instruction: 0xffffffff
    7384:	ffff ffff 			; <UNDEFINED> instruction: 0xffffffff
    7388:	ffff ffff 			; <UNDEFINED> instruction: 0xffffffff
    738c:	ffff ffff 			; <UNDEFINED> instruction: 0xffffffff
    7390:	ffff ffff 			; <UNDEFINED> instruction: 0xffffffff
    7394:	ffff ffff 			; <UNDEFINED> instruction: 0xffffffff
    7398:	ffff ffff 			; <UNDEFINED> instruction: 0xffffffff
    739c:	ffff ffff 			; <UNDEFINED> instruction: 0xffffffff
    73a0:	ffff ffff 			; <UNDEFINED> instruction: 0xffffffff
    73a4:	ffff ffff 			; <UNDEFINED> instruction: 0xffffffff
    73a8:	ffff ffff 			; <UNDEFINED> instruction: 0xffffffff
    73ac:	ffff ffff 			; <UNDEFINED> instruction: 0xffffffff
    73b0:	ffff ffff 			; <UNDEFINED> instruction: 0xffffffff
    73b4:	ffff ffff 			; <UNDEFINED> instruction: 0xffffffff
    73b8:	ffff ffff 			; <UNDEFINED> instruction: 0xffffffff
    73bc:	ffff ffff 			; <UNDEFINED> instruction: 0xffffffff
    73c0:	ffff ffff 			; <UNDEFINED> instruction: 0xffffffff
    73c4:	ffff ffff 			; <UNDEFINED> instruction: 0xffffffff
    73c8:	ffff ffff 			; <UNDEFINED> instruction: 0xffffffff
    73cc:	ffff ffff 			; <UNDEFINED> instruction: 0xffffffff
    73d0:	ffff ffff 			; <UNDEFINED> instruction: 0xffffffff
    73d4:	ffff ffff 			; <UNDEFINED> instruction: 0xffffffff
    73d8:	ffff ffff 			; <UNDEFINED> instruction: 0xffffffff
    73dc:	ffff ffff 			; <UNDEFINED> instruction: 0xffffffff
    73e0:	ffff ffff 			; <UNDEFINED> instruction: 0xffffffff
    73e4:	ffff ffff 			; <UNDEFINED> instruction: 0xffffffff
    73e8:	ffff ffff 			; <UNDEFINED> instruction: 0xffffffff
    73ec:	ffff ffff 			; <UNDEFINED> instruction: 0xffffffff
    73f0:	ffff ffff 			; <UNDEFINED> instruction: 0xffffffff
    73f4:	ffff ffff 			; <UNDEFINED> instruction: 0xffffffff
    73f8:	ffff ffff 			; <UNDEFINED> instruction: 0xffffffff
    73fc:	ffff ffff 			; <UNDEFINED> instruction: 0xffffffff
    7400:	ffff ffff 			; <UNDEFINED> instruction: 0xffffffff
    7404:	ffff ffff 			; <UNDEFINED> instruction: 0xffffffff
    7408:	ffff ffff 			; <UNDEFINED> instruction: 0xffffffff
    740c:	ffff ffff 			; <UNDEFINED> instruction: 0xffffffff
    7410:	ffff ffff 			; <UNDEFINED> instruction: 0xffffffff
    7414:	ffff ffff 			; <UNDEFINED> instruction: 0xffffffff
    7418:	ffff ffff 			; <UNDEFINED> instruction: 0xffffffff
    741c:	ffff ffff 			; <UNDEFINED> instruction: 0xffffffff
    7420:	ffff ffff 			; <UNDEFINED> instruction: 0xffffffff
    7424:	ffff ffff 			; <UNDEFINED> instruction: 0xffffffff
    7428:	ffff ffff 			; <UNDEFINED> instruction: 0xffffffff
    742c:	ffff ffff 			; <UNDEFINED> instruction: 0xffffffff
    7430:	ffff ffff 			; <UNDEFINED> instruction: 0xffffffff
    7434:	ffff ffff 			; <UNDEFINED> instruction: 0xffffffff
    7438:	ffff ffff 			; <UNDEFINED> instruction: 0xffffffff
    743c:	ffff ffff 			; <UNDEFINED> instruction: 0xffffffff
    7440:	ffff ffff 			; <UNDEFINED> instruction: 0xffffffff
    7444:	ffff ffff 			; <UNDEFINED> instruction: 0xffffffff
    7448:	ffff ffff 			; <UNDEFINED> instruction: 0xffffffff
    744c:	ffff ffff 			; <UNDEFINED> instruction: 0xffffffff
    7450:	ffff ffff 			; <UNDEFINED> instruction: 0xffffffff
    7454:	ffff ffff 			; <UNDEFINED> instruction: 0xffffffff
    7458:	ffff ffff 			; <UNDEFINED> instruction: 0xffffffff
    745c:	ffff ffff 			; <UNDEFINED> instruction: 0xffffffff
    7460:	ffff ffff 			; <UNDEFINED> instruction: 0xffffffff
    7464:	ffff ffff 			; <UNDEFINED> instruction: 0xffffffff
    7468:	ffff ffff 			; <UNDEFINED> instruction: 0xffffffff
    746c:	ffff ffff 			; <UNDEFINED> instruction: 0xffffffff
    7470:	ffff ffff 			; <UNDEFINED> instruction: 0xffffffff
    7474:	ffff ffff 			; <UNDEFINED> instruction: 0xffffffff
    7478:	ffff ffff 			; <UNDEFINED> instruction: 0xffffffff
    747c:	ffff ffff 			; <UNDEFINED> instruction: 0xffffffff
    7480:	ffff ffff 			; <UNDEFINED> instruction: 0xffffffff
    7484:	ffff ffff 			; <UNDEFINED> instruction: 0xffffffff
    7488:	ffff ffff 			; <UNDEFINED> instruction: 0xffffffff
    748c:	ffff ffff 			; <UNDEFINED> instruction: 0xffffffff
    7490:	ffff ffff 			; <UNDEFINED> instruction: 0xffffffff
    7494:	ffff ffff 			; <UNDEFINED> instruction: 0xffffffff
    7498:	ffff ffff 			; <UNDEFINED> instruction: 0xffffffff
    749c:	ffff ffff 			; <UNDEFINED> instruction: 0xffffffff
    74a0:	ffff ffff 			; <UNDEFINED> instruction: 0xffffffff
    74a4:	ffff ffff 			; <UNDEFINED> instruction: 0xffffffff
    74a8:	ffff ffff 			; <UNDEFINED> instruction: 0xffffffff
    74ac:	ffff ffff 			; <UNDEFINED> instruction: 0xffffffff
    74b0:	ffff ffff 			; <UNDEFINED> instruction: 0xffffffff
    74b4:	ffff ffff 			; <UNDEFINED> instruction: 0xffffffff
    74b8:	ffff ffff 			; <UNDEFINED> instruction: 0xffffffff
    74bc:	ffff ffff 			; <UNDEFINED> instruction: 0xffffffff
    74c0:	ffff ffff 			; <UNDEFINED> instruction: 0xffffffff
    74c4:	ffff ffff 			; <UNDEFINED> instruction: 0xffffffff
    74c8:	ffff ffff 			; <UNDEFINED> instruction: 0xffffffff
    74cc:	ffff ffff 			; <UNDEFINED> instruction: 0xffffffff
    74d0:	ffff ffff 			; <UNDEFINED> instruction: 0xffffffff
    74d4:	ffff ffff 			; <UNDEFINED> instruction: 0xffffffff
    74d8:	ffff ffff 			; <UNDEFINED> instruction: 0xffffffff
    74dc:	ffff ffff 			; <UNDEFINED> instruction: 0xffffffff
    74e0:	ffff ffff 			; <UNDEFINED> instruction: 0xffffffff
    74e4:	ffff ffff 			; <UNDEFINED> instruction: 0xffffffff
    74e8:	ffff ffff 			; <UNDEFINED> instruction: 0xffffffff
    74ec:	ffff ffff 			; <UNDEFINED> instruction: 0xffffffff
    74f0:	ffff ffff 			; <UNDEFINED> instruction: 0xffffffff
    74f4:	ffff ffff 			; <UNDEFINED> instruction: 0xffffffff
    74f8:	ffff ffff 			; <UNDEFINED> instruction: 0xffffffff
    74fc:	ffff ffff 			; <UNDEFINED> instruction: 0xffffffff
    7500:	ffff ffff 			; <UNDEFINED> instruction: 0xffffffff
    7504:	ffff ffff 			; <UNDEFINED> instruction: 0xffffffff
    7508:	ffff ffff 			; <UNDEFINED> instruction: 0xffffffff
    750c:	ffff ffff 			; <UNDEFINED> instruction: 0xffffffff
    7510:	ffff ffff 			; <UNDEFINED> instruction: 0xffffffff
    7514:	ffff ffff 			; <UNDEFINED> instruction: 0xffffffff
    7518:	ffff ffff 			; <UNDEFINED> instruction: 0xffffffff
    751c:	ffff ffff 			; <UNDEFINED> instruction: 0xffffffff
    7520:	ffff ffff 			; <UNDEFINED> instruction: 0xffffffff
    7524:	ffff ffff 			; <UNDEFINED> instruction: 0xffffffff
    7528:	ffff ffff 			; <UNDEFINED> instruction: 0xffffffff
    752c:	ffff ffff 			; <UNDEFINED> instruction: 0xffffffff
    7530:	ffff ffff 			; <UNDEFINED> instruction: 0xffffffff
    7534:	ffff ffff 			; <UNDEFINED> instruction: 0xffffffff
    7538:	ffff ffff 			; <UNDEFINED> instruction: 0xffffffff
    753c:	ffff ffff 			; <UNDEFINED> instruction: 0xffffffff
    7540:	ffff ffff 			; <UNDEFINED> instruction: 0xffffffff
    7544:	ffff ffff 			; <UNDEFINED> instruction: 0xffffffff
    7548:	ffff ffff 			; <UNDEFINED> instruction: 0xffffffff
    754c:	ffff ffff 			; <UNDEFINED> instruction: 0xffffffff
    7550:	ffff ffff 			; <UNDEFINED> instruction: 0xffffffff
    7554:	ffff ffff 			; <UNDEFINED> instruction: 0xffffffff
    7558:	ffff ffff 			; <UNDEFINED> instruction: 0xffffffff
    755c:	ffff ffff 			; <UNDEFINED> instruction: 0xffffffff
    7560:	ffff ffff 			; <UNDEFINED> instruction: 0xffffffff
    7564:	ffff ffff 			; <UNDEFINED> instruction: 0xffffffff
    7568:	ffff ffff 			; <UNDEFINED> instruction: 0xffffffff
    756c:	ffff ffff 			; <UNDEFINED> instruction: 0xffffffff
    7570:	ffff ffff 			; <UNDEFINED> instruction: 0xffffffff
    7574:	ffff ffff 			; <UNDEFINED> instruction: 0xffffffff
    7578:	ffff ffff 			; <UNDEFINED> instruction: 0xffffffff
    757c:	ffff ffff 			; <UNDEFINED> instruction: 0xffffffff
    7580:	ffff ffff 			; <UNDEFINED> instruction: 0xffffffff
    7584:	ffff ffff 			; <UNDEFINED> instruction: 0xffffffff
    7588:	ffff ffff 			; <UNDEFINED> instruction: 0xffffffff
    758c:	ffff ffff 			; <UNDEFINED> instruction: 0xffffffff
    7590:	ffff ffff 			; <UNDEFINED> instruction: 0xffffffff
    7594:	ffff ffff 			; <UNDEFINED> instruction: 0xffffffff
    7598:	ffff ffff 			; <UNDEFINED> instruction: 0xffffffff
    759c:	ffff ffff 			; <UNDEFINED> instruction: 0xffffffff
    75a0:	ffff ffff 			; <UNDEFINED> instruction: 0xffffffff
    75a4:	ffff ffff 			; <UNDEFINED> instruction: 0xffffffff
    75a8:	ffff ffff 			; <UNDEFINED> instruction: 0xffffffff
    75ac:	ffff ffff 			; <UNDEFINED> instruction: 0xffffffff
    75b0:	ffff ffff 			; <UNDEFINED> instruction: 0xffffffff
    75b4:	ffff ffff 			; <UNDEFINED> instruction: 0xffffffff
    75b8:	ffff ffff 			; <UNDEFINED> instruction: 0xffffffff
    75bc:	ffff ffff 			; <UNDEFINED> instruction: 0xffffffff
    75c0:	ffff ffff 			; <UNDEFINED> instruction: 0xffffffff
    75c4:	ffff ffff 			; <UNDEFINED> instruction: 0xffffffff
    75c8:	ffff ffff 			; <UNDEFINED> instruction: 0xffffffff
    75cc:	ffff ffff 			; <UNDEFINED> instruction: 0xffffffff
    75d0:	ffff ffff 			; <UNDEFINED> instruction: 0xffffffff
    75d4:	ffff ffff 			; <UNDEFINED> instruction: 0xffffffff
    75d8:	ffff ffff 			; <UNDEFINED> instruction: 0xffffffff
    75dc:	ffff ffff 			; <UNDEFINED> instruction: 0xffffffff
    75e0:	ffff ffff 			; <UNDEFINED> instruction: 0xffffffff
    75e4:	ffff ffff 			; <UNDEFINED> instruction: 0xffffffff
    75e8:	ffff ffff 			; <UNDEFINED> instruction: 0xffffffff
    75ec:	ffff ffff 			; <UNDEFINED> instruction: 0xffffffff
    75f0:	ffff ffff 			; <UNDEFINED> instruction: 0xffffffff
    75f4:	ffff ffff 			; <UNDEFINED> instruction: 0xffffffff
    75f8:	ffff ffff 			; <UNDEFINED> instruction: 0xffffffff
    75fc:	ffff ffff 			; <UNDEFINED> instruction: 0xffffffff
    7600:	ffff ffff 			; <UNDEFINED> instruction: 0xffffffff
    7604:	ffff ffff 			; <UNDEFINED> instruction: 0xffffffff
    7608:	ffff ffff 			; <UNDEFINED> instruction: 0xffffffff
    760c:	ffff ffff 			; <UNDEFINED> instruction: 0xffffffff
    7610:	ffff ffff 			; <UNDEFINED> instruction: 0xffffffff
    7614:	ffff ffff 			; <UNDEFINED> instruction: 0xffffffff
    7618:	ffff ffff 			; <UNDEFINED> instruction: 0xffffffff
    761c:	ffff ffff 			; <UNDEFINED> instruction: 0xffffffff
    7620:	ffff ffff 			; <UNDEFINED> instruction: 0xffffffff
    7624:	ffff ffff 			; <UNDEFINED> instruction: 0xffffffff
    7628:	ffff ffff 			; <UNDEFINED> instruction: 0xffffffff
    762c:	ffff ffff 			; <UNDEFINED> instruction: 0xffffffff
    7630:	ffff ffff 			; <UNDEFINED> instruction: 0xffffffff
    7634:	ffff ffff 			; <UNDEFINED> instruction: 0xffffffff
    7638:	ffff ffff 			; <UNDEFINED> instruction: 0xffffffff
    763c:	ffff ffff 			; <UNDEFINED> instruction: 0xffffffff
    7640:	ffff ffff 			; <UNDEFINED> instruction: 0xffffffff
    7644:	ffff ffff 			; <UNDEFINED> instruction: 0xffffffff
    7648:	ffff ffff 			; <UNDEFINED> instruction: 0xffffffff
    764c:	ffff ffff 			; <UNDEFINED> instruction: 0xffffffff
    7650:	ffff ffff 			; <UNDEFINED> instruction: 0xffffffff
    7654:	ffff ffff 			; <UNDEFINED> instruction: 0xffffffff
    7658:	ffff ffff 			; <UNDEFINED> instruction: 0xffffffff
    765c:	ffff ffff 			; <UNDEFINED> instruction: 0xffffffff
    7660:	ffff ffff 			; <UNDEFINED> instruction: 0xffffffff
    7664:	ffff ffff 			; <UNDEFINED> instruction: 0xffffffff
    7668:	ffff ffff 			; <UNDEFINED> instruction: 0xffffffff
    766c:	ffff ffff 			; <UNDEFINED> instruction: 0xffffffff
    7670:	ffff ffff 			; <UNDEFINED> instruction: 0xffffffff
    7674:	ffff ffff 			; <UNDEFINED> instruction: 0xffffffff
    7678:	ffff ffff 			; <UNDEFINED> instruction: 0xffffffff
    767c:	ffff ffff 			; <UNDEFINED> instruction: 0xffffffff
    7680:	ffff ffff 			; <UNDEFINED> instruction: 0xffffffff
    7684:	ffff ffff 			; <UNDEFINED> instruction: 0xffffffff
    7688:	ffff ffff 			; <UNDEFINED> instruction: 0xffffffff
    768c:	ffff ffff 			; <UNDEFINED> instruction: 0xffffffff
    7690:	ffff ffff 			; <UNDEFINED> instruction: 0xffffffff
    7694:	ffff ffff 			; <UNDEFINED> instruction: 0xffffffff
    7698:	ffff ffff 			; <UNDEFINED> instruction: 0xffffffff
    769c:	ffff ffff 			; <UNDEFINED> instruction: 0xffffffff
    76a0:	ffff ffff 			; <UNDEFINED> instruction: 0xffffffff
    76a4:	ffff ffff 			; <UNDEFINED> instruction: 0xffffffff
    76a8:	ffff ffff 			; <UNDEFINED> instruction: 0xffffffff
    76ac:	ffff ffff 			; <UNDEFINED> instruction: 0xffffffff
    76b0:	ffff ffff 			; <UNDEFINED> instruction: 0xffffffff
    76b4:	ffff ffff 			; <UNDEFINED> instruction: 0xffffffff
    76b8:	ffff ffff 			; <UNDEFINED> instruction: 0xffffffff
    76bc:	ffff ffff 			; <UNDEFINED> instruction: 0xffffffff
    76c0:	ffff ffff 			; <UNDEFINED> instruction: 0xffffffff
    76c4:	ffff ffff 			; <UNDEFINED> instruction: 0xffffffff
    76c8:	ffff ffff 			; <UNDEFINED> instruction: 0xffffffff
    76cc:	ffff ffff 			; <UNDEFINED> instruction: 0xffffffff
    76d0:	ffff ffff 			; <UNDEFINED> instruction: 0xffffffff
    76d4:	ffff ffff 			; <UNDEFINED> instruction: 0xffffffff
    76d8:	ffff ffff 			; <UNDEFINED> instruction: 0xffffffff
    76dc:	ffff ffff 			; <UNDEFINED> instruction: 0xffffffff
    76e0:	ffff ffff 			; <UNDEFINED> instruction: 0xffffffff
    76e4:	ffff ffff 			; <UNDEFINED> instruction: 0xffffffff
    76e8:	ffff ffff 			; <UNDEFINED> instruction: 0xffffffff
    76ec:	ffff ffff 			; <UNDEFINED> instruction: 0xffffffff
    76f0:	ffff ffff 			; <UNDEFINED> instruction: 0xffffffff
    76f4:	ffff ffff 			; <UNDEFINED> instruction: 0xffffffff
    76f8:	ffff ffff 			; <UNDEFINED> instruction: 0xffffffff
    76fc:	ffff ffff 			; <UNDEFINED> instruction: 0xffffffff
    7700:	ffff ffff 			; <UNDEFINED> instruction: 0xffffffff
    7704:	ffff ffff 			; <UNDEFINED> instruction: 0xffffffff
    7708:	ffff ffff 			; <UNDEFINED> instruction: 0xffffffff
    770c:	ffff ffff 			; <UNDEFINED> instruction: 0xffffffff
    7710:	ffff ffff 			; <UNDEFINED> instruction: 0xffffffff
    7714:	ffff ffff 			; <UNDEFINED> instruction: 0xffffffff
    7718:	ffff ffff 			; <UNDEFINED> instruction: 0xffffffff
    771c:	ffff ffff 			; <UNDEFINED> instruction: 0xffffffff
    7720:	ffff ffff 			; <UNDEFINED> instruction: 0xffffffff
    7724:	ffff ffff 			; <UNDEFINED> instruction: 0xffffffff
    7728:	ffff ffff 			; <UNDEFINED> instruction: 0xffffffff
    772c:	ffff ffff 			; <UNDEFINED> instruction: 0xffffffff
    7730:	ffff ffff 			; <UNDEFINED> instruction: 0xffffffff
    7734:	ffff ffff 			; <UNDEFINED> instruction: 0xffffffff
    7738:	ffff ffff 			; <UNDEFINED> instruction: 0xffffffff
    773c:	ffff ffff 			; <UNDEFINED> instruction: 0xffffffff
    7740:	ffff ffff 			; <UNDEFINED> instruction: 0xffffffff
    7744:	ffff ffff 			; <UNDEFINED> instruction: 0xffffffff
    7748:	ffff ffff 			; <UNDEFINED> instruction: 0xffffffff
    774c:	ffff ffff 			; <UNDEFINED> instruction: 0xffffffff
    7750:	ffff ffff 			; <UNDEFINED> instruction: 0xffffffff
    7754:	ffff ffff 			; <UNDEFINED> instruction: 0xffffffff
    7758:	ffff ffff 			; <UNDEFINED> instruction: 0xffffffff
    775c:	ffff ffff 			; <UNDEFINED> instruction: 0xffffffff
    7760:	ffff ffff 			; <UNDEFINED> instruction: 0xffffffff
    7764:	ffff ffff 			; <UNDEFINED> instruction: 0xffffffff
    7768:	ffff ffff 			; <UNDEFINED> instruction: 0xffffffff
    776c:	ffff ffff 			; <UNDEFINED> instruction: 0xffffffff
    7770:	ffff ffff 			; <UNDEFINED> instruction: 0xffffffff
    7774:	ffff ffff 			; <UNDEFINED> instruction: 0xffffffff
    7778:	ffff ffff 			; <UNDEFINED> instruction: 0xffffffff
    777c:	ffff ffff 			; <UNDEFINED> instruction: 0xffffffff
    7780:	ffff ffff 			; <UNDEFINED> instruction: 0xffffffff
    7784:	ffff ffff 			; <UNDEFINED> instruction: 0xffffffff
    7788:	ffff ffff 			; <UNDEFINED> instruction: 0xffffffff
    778c:	ffff ffff 			; <UNDEFINED> instruction: 0xffffffff
    7790:	ffff ffff 			; <UNDEFINED> instruction: 0xffffffff
    7794:	ffff ffff 			; <UNDEFINED> instruction: 0xffffffff
    7798:	ffff ffff 			; <UNDEFINED> instruction: 0xffffffff
    779c:	ffff ffff 			; <UNDEFINED> instruction: 0xffffffff
    77a0:	ffff ffff 			; <UNDEFINED> instruction: 0xffffffff
    77a4:	ffff ffff 			; <UNDEFINED> instruction: 0xffffffff
    77a8:	ffff ffff 			; <UNDEFINED> instruction: 0xffffffff
    77ac:	ffff ffff 			; <UNDEFINED> instruction: 0xffffffff
    77b0:	ffff ffff 			; <UNDEFINED> instruction: 0xffffffff
    77b4:	ffff ffff 			; <UNDEFINED> instruction: 0xffffffff
    77b8:	ffff ffff 			; <UNDEFINED> instruction: 0xffffffff
    77bc:	ffff ffff 			; <UNDEFINED> instruction: 0xffffffff
    77c0:	ffff ffff 			; <UNDEFINED> instruction: 0xffffffff
    77c4:	ffff ffff 			; <UNDEFINED> instruction: 0xffffffff
    77c8:	ffff ffff 			; <UNDEFINED> instruction: 0xffffffff
    77cc:	ffff ffff 			; <UNDEFINED> instruction: 0xffffffff
    77d0:	ffff ffff 			; <UNDEFINED> instruction: 0xffffffff
    77d4:	ffff ffff 			; <UNDEFINED> instruction: 0xffffffff
    77d8:	ffff ffff 			; <UNDEFINED> instruction: 0xffffffff
    77dc:	ffff ffff 			; <UNDEFINED> instruction: 0xffffffff
    77e0:	ffff ffff 			; <UNDEFINED> instruction: 0xffffffff
    77e4:	ffff ffff 			; <UNDEFINED> instruction: 0xffffffff
    77e8:	ffff ffff 			; <UNDEFINED> instruction: 0xffffffff
    77ec:	ffff ffff 			; <UNDEFINED> instruction: 0xffffffff
    77f0:	ffff ffff 			; <UNDEFINED> instruction: 0xffffffff
    77f4:	ffff ffff 			; <UNDEFINED> instruction: 0xffffffff
    77f8:	ffff ffff 			; <UNDEFINED> instruction: 0xffffffff
    77fc:	ffff ffff 			; <UNDEFINED> instruction: 0xffffffff
    7800:	ffff ffff 			; <UNDEFINED> instruction: 0xffffffff
    7804:	ffff ffff 			; <UNDEFINED> instruction: 0xffffffff
    7808:	ffff ffff 			; <UNDEFINED> instruction: 0xffffffff
    780c:	ffff ffff 			; <UNDEFINED> instruction: 0xffffffff
    7810:	ffff ffff 			; <UNDEFINED> instruction: 0xffffffff
    7814:	ffff ffff 			; <UNDEFINED> instruction: 0xffffffff
    7818:	ffff ffff 			; <UNDEFINED> instruction: 0xffffffff
    781c:	ffff ffff 			; <UNDEFINED> instruction: 0xffffffff
    7820:	ffff ffff 			; <UNDEFINED> instruction: 0xffffffff
    7824:	ffff ffff 			; <UNDEFINED> instruction: 0xffffffff
    7828:	ffff ffff 			; <UNDEFINED> instruction: 0xffffffff
    782c:	ffff ffff 			; <UNDEFINED> instruction: 0xffffffff
    7830:	ffff ffff 			; <UNDEFINED> instruction: 0xffffffff
    7834:	ffff ffff 			; <UNDEFINED> instruction: 0xffffffff
    7838:	ffff ffff 			; <UNDEFINED> instruction: 0xffffffff
    783c:	ffff ffff 			; <UNDEFINED> instruction: 0xffffffff
    7840:	ffff ffff 			; <UNDEFINED> instruction: 0xffffffff
    7844:	ffff ffff 			; <UNDEFINED> instruction: 0xffffffff
    7848:	ffff ffff 			; <UNDEFINED> instruction: 0xffffffff
    784c:	ffff ffff 			; <UNDEFINED> instruction: 0xffffffff
    7850:	ffff ffff 			; <UNDEFINED> instruction: 0xffffffff
    7854:	ffff ffff 			; <UNDEFINED> instruction: 0xffffffff
    7858:	ffff ffff 			; <UNDEFINED> instruction: 0xffffffff
    785c:	ffff ffff 			; <UNDEFINED> instruction: 0xffffffff
    7860:	ffff ffff 			; <UNDEFINED> instruction: 0xffffffff
    7864:	ffff ffff 			; <UNDEFINED> instruction: 0xffffffff
    7868:	ffff ffff 			; <UNDEFINED> instruction: 0xffffffff
    786c:	ffff ffff 			; <UNDEFINED> instruction: 0xffffffff
    7870:	ffff ffff 			; <UNDEFINED> instruction: 0xffffffff
    7874:	ffff ffff 			; <UNDEFINED> instruction: 0xffffffff
    7878:	ffff ffff 			; <UNDEFINED> instruction: 0xffffffff
    787c:	ffff ffff 			; <UNDEFINED> instruction: 0xffffffff
    7880:	ffff ffff 			; <UNDEFINED> instruction: 0xffffffff
    7884:	ffff ffff 			; <UNDEFINED> instruction: 0xffffffff
    7888:	ffff ffff 			; <UNDEFINED> instruction: 0xffffffff
    788c:	ffff ffff 			; <UNDEFINED> instruction: 0xffffffff
    7890:	ffff ffff 			; <UNDEFINED> instruction: 0xffffffff
    7894:	ffff ffff 			; <UNDEFINED> instruction: 0xffffffff
    7898:	ffff ffff 			; <UNDEFINED> instruction: 0xffffffff
    789c:	ffff ffff 			; <UNDEFINED> instruction: 0xffffffff
    78a0:	ffff ffff 			; <UNDEFINED> instruction: 0xffffffff
    78a4:	ffff ffff 			; <UNDEFINED> instruction: 0xffffffff
    78a8:	ffff ffff 			; <UNDEFINED> instruction: 0xffffffff
    78ac:	ffff ffff 			; <UNDEFINED> instruction: 0xffffffff
    78b0:	ffff ffff 			; <UNDEFINED> instruction: 0xffffffff
    78b4:	ffff ffff 			; <UNDEFINED> instruction: 0xffffffff
    78b8:	ffff ffff 			; <UNDEFINED> instruction: 0xffffffff
    78bc:	ffff ffff 			; <UNDEFINED> instruction: 0xffffffff
    78c0:	ffff ffff 			; <UNDEFINED> instruction: 0xffffffff
    78c4:	ffff ffff 			; <UNDEFINED> instruction: 0xffffffff
    78c8:	ffff ffff 			; <UNDEFINED> instruction: 0xffffffff
    78cc:	ffff ffff 			; <UNDEFINED> instruction: 0xffffffff
    78d0:	ffff ffff 			; <UNDEFINED> instruction: 0xffffffff
    78d4:	ffff ffff 			; <UNDEFINED> instruction: 0xffffffff
    78d8:	ffff ffff 			; <UNDEFINED> instruction: 0xffffffff
    78dc:	ffff ffff 			; <UNDEFINED> instruction: 0xffffffff
    78e0:	ffff ffff 			; <UNDEFINED> instruction: 0xffffffff
    78e4:	ffff ffff 			; <UNDEFINED> instruction: 0xffffffff
    78e8:	ffff ffff 			; <UNDEFINED> instruction: 0xffffffff
    78ec:	ffff ffff 			; <UNDEFINED> instruction: 0xffffffff
    78f0:	ffff ffff 			; <UNDEFINED> instruction: 0xffffffff
    78f4:	ffff ffff 			; <UNDEFINED> instruction: 0xffffffff
    78f8:	ffff ffff 			; <UNDEFINED> instruction: 0xffffffff
    78fc:	ffff ffff 			; <UNDEFINED> instruction: 0xffffffff
    7900:	ffff ffff 			; <UNDEFINED> instruction: 0xffffffff
    7904:	ffff ffff 			; <UNDEFINED> instruction: 0xffffffff
    7908:	ffff ffff 			; <UNDEFINED> instruction: 0xffffffff
    790c:	ffff ffff 			; <UNDEFINED> instruction: 0xffffffff
    7910:	ffff ffff 			; <UNDEFINED> instruction: 0xffffffff
    7914:	ffff ffff 			; <UNDEFINED> instruction: 0xffffffff
    7918:	ffff ffff 			; <UNDEFINED> instruction: 0xffffffff
    791c:	ffff ffff 			; <UNDEFINED> instruction: 0xffffffff
    7920:	ffff ffff 			; <UNDEFINED> instruction: 0xffffffff
    7924:	ffff ffff 			; <UNDEFINED> instruction: 0xffffffff
    7928:	ffff ffff 			; <UNDEFINED> instruction: 0xffffffff
    792c:	ffff ffff 			; <UNDEFINED> instruction: 0xffffffff
    7930:	ffff ffff 			; <UNDEFINED> instruction: 0xffffffff
    7934:	ffff ffff 			; <UNDEFINED> instruction: 0xffffffff
    7938:	ffff ffff 			; <UNDEFINED> instruction: 0xffffffff
    793c:	ffff ffff 			; <UNDEFINED> instruction: 0xffffffff
    7940:	ffff ffff 			; <UNDEFINED> instruction: 0xffffffff
    7944:	ffff ffff 			; <UNDEFINED> instruction: 0xffffffff
    7948:	ffff ffff 			; <UNDEFINED> instruction: 0xffffffff
    794c:	ffff ffff 			; <UNDEFINED> instruction: 0xffffffff
    7950:	ffff ffff 			; <UNDEFINED> instruction: 0xffffffff
    7954:	ffff ffff 			; <UNDEFINED> instruction: 0xffffffff
    7958:	ffff ffff 			; <UNDEFINED> instruction: 0xffffffff
    795c:	ffff ffff 			; <UNDEFINED> instruction: 0xffffffff
    7960:	ffff ffff 			; <UNDEFINED> instruction: 0xffffffff
    7964:	ffff ffff 			; <UNDEFINED> instruction: 0xffffffff
    7968:	ffff ffff 			; <UNDEFINED> instruction: 0xffffffff
    796c:	ffff ffff 			; <UNDEFINED> instruction: 0xffffffff
    7970:	ffff ffff 			; <UNDEFINED> instruction: 0xffffffff
    7974:	ffff ffff 			; <UNDEFINED> instruction: 0xffffffff
    7978:	ffff ffff 			; <UNDEFINED> instruction: 0xffffffff
    797c:	ffff ffff 			; <UNDEFINED> instruction: 0xffffffff
    7980:	ffff ffff 			; <UNDEFINED> instruction: 0xffffffff
    7984:	ffff ffff 			; <UNDEFINED> instruction: 0xffffffff
    7988:	ffff ffff 			; <UNDEFINED> instruction: 0xffffffff
    798c:	ffff ffff 			; <UNDEFINED> instruction: 0xffffffff
    7990:	ffff ffff 			; <UNDEFINED> instruction: 0xffffffff
    7994:	ffff ffff 			; <UNDEFINED> instruction: 0xffffffff
    7998:	ffff ffff 			; <UNDEFINED> instruction: 0xffffffff
    799c:	ffff ffff 			; <UNDEFINED> instruction: 0xffffffff
    79a0:	ffff ffff 			; <UNDEFINED> instruction: 0xffffffff
    79a4:	ffff ffff 			; <UNDEFINED> instruction: 0xffffffff
    79a8:	ffff ffff 			; <UNDEFINED> instruction: 0xffffffff
    79ac:	ffff ffff 			; <UNDEFINED> instruction: 0xffffffff
    79b0:	ffff ffff 			; <UNDEFINED> instruction: 0xffffffff
    79b4:	ffff ffff 			; <UNDEFINED> instruction: 0xffffffff
    79b8:	ffff ffff 			; <UNDEFINED> instruction: 0xffffffff
    79bc:	ffff ffff 			; <UNDEFINED> instruction: 0xffffffff
    79c0:	ffff ffff 			; <UNDEFINED> instruction: 0xffffffff
    79c4:	ffff ffff 			; <UNDEFINED> instruction: 0xffffffff
    79c8:	ffff ffff 			; <UNDEFINED> instruction: 0xffffffff
    79cc:	ffff ffff 			; <UNDEFINED> instruction: 0xffffffff
    79d0:	ffff ffff 			; <UNDEFINED> instruction: 0xffffffff
    79d4:	ffff ffff 			; <UNDEFINED> instruction: 0xffffffff
    79d8:	ffff ffff 			; <UNDEFINED> instruction: 0xffffffff
    79dc:	ffff ffff 			; <UNDEFINED> instruction: 0xffffffff
    79e0:	ffff ffff 			; <UNDEFINED> instruction: 0xffffffff
    79e4:	ffff ffff 			; <UNDEFINED> instruction: 0xffffffff
    79e8:	ffff ffff 			; <UNDEFINED> instruction: 0xffffffff
    79ec:	ffff ffff 			; <UNDEFINED> instruction: 0xffffffff
    79f0:	ffff ffff 			; <UNDEFINED> instruction: 0xffffffff
    79f4:	ffff ffff 			; <UNDEFINED> instruction: 0xffffffff
    79f8:	ffff ffff 			; <UNDEFINED> instruction: 0xffffffff
    79fc:	ffff ffff 			; <UNDEFINED> instruction: 0xffffffff
    7a00:	ffff ffff 			; <UNDEFINED> instruction: 0xffffffff
    7a04:	ffff ffff 			; <UNDEFINED> instruction: 0xffffffff
    7a08:	ffff ffff 			; <UNDEFINED> instruction: 0xffffffff
    7a0c:	ffff ffff 			; <UNDEFINED> instruction: 0xffffffff
    7a10:	ffff ffff 			; <UNDEFINED> instruction: 0xffffffff
    7a14:	ffff ffff 			; <UNDEFINED> instruction: 0xffffffff
    7a18:	ffff ffff 			; <UNDEFINED> instruction: 0xffffffff
    7a1c:	ffff ffff 			; <UNDEFINED> instruction: 0xffffffff
    7a20:	ffff ffff 			; <UNDEFINED> instruction: 0xffffffff
    7a24:	ffff ffff 			; <UNDEFINED> instruction: 0xffffffff
    7a28:	ffff ffff 			; <UNDEFINED> instruction: 0xffffffff
    7a2c:	ffff ffff 			; <UNDEFINED> instruction: 0xffffffff
    7a30:	ffff ffff 			; <UNDEFINED> instruction: 0xffffffff
    7a34:	ffff ffff 			; <UNDEFINED> instruction: 0xffffffff
    7a38:	ffff ffff 			; <UNDEFINED> instruction: 0xffffffff
    7a3c:	ffff ffff 			; <UNDEFINED> instruction: 0xffffffff
    7a40:	ffff ffff 			; <UNDEFINED> instruction: 0xffffffff
    7a44:	ffff ffff 			; <UNDEFINED> instruction: 0xffffffff
    7a48:	ffff ffff 			; <UNDEFINED> instruction: 0xffffffff
    7a4c:	ffff ffff 			; <UNDEFINED> instruction: 0xffffffff
    7a50:	ffff ffff 			; <UNDEFINED> instruction: 0xffffffff
    7a54:	ffff ffff 			; <UNDEFINED> instruction: 0xffffffff
    7a58:	ffff ffff 			; <UNDEFINED> instruction: 0xffffffff
    7a5c:	ffff ffff 			; <UNDEFINED> instruction: 0xffffffff
    7a60:	ffff ffff 			; <UNDEFINED> instruction: 0xffffffff
    7a64:	ffff ffff 			; <UNDEFINED> instruction: 0xffffffff
    7a68:	ffff ffff 			; <UNDEFINED> instruction: 0xffffffff
    7a6c:	ffff ffff 			; <UNDEFINED> instruction: 0xffffffff
    7a70:	ffff ffff 			; <UNDEFINED> instruction: 0xffffffff
    7a74:	ffff ffff 			; <UNDEFINED> instruction: 0xffffffff
    7a78:	ffff ffff 			; <UNDEFINED> instruction: 0xffffffff
    7a7c:	ffff ffff 			; <UNDEFINED> instruction: 0xffffffff
    7a80:	ffff ffff 			; <UNDEFINED> instruction: 0xffffffff
    7a84:	ffff ffff 			; <UNDEFINED> instruction: 0xffffffff
    7a88:	ffff ffff 			; <UNDEFINED> instruction: 0xffffffff
    7a8c:	ffff ffff 			; <UNDEFINED> instruction: 0xffffffff
    7a90:	ffff ffff 			; <UNDEFINED> instruction: 0xffffffff
    7a94:	ffff ffff 			; <UNDEFINED> instruction: 0xffffffff
    7a98:	ffff ffff 			; <UNDEFINED> instruction: 0xffffffff
    7a9c:	ffff ffff 			; <UNDEFINED> instruction: 0xffffffff
    7aa0:	ffff ffff 			; <UNDEFINED> instruction: 0xffffffff
    7aa4:	ffff ffff 			; <UNDEFINED> instruction: 0xffffffff
    7aa8:	ffff ffff 			; <UNDEFINED> instruction: 0xffffffff
    7aac:	ffff ffff 			; <UNDEFINED> instruction: 0xffffffff
    7ab0:	ffff ffff 			; <UNDEFINED> instruction: 0xffffffff
    7ab4:	ffff ffff 			; <UNDEFINED> instruction: 0xffffffff
    7ab8:	ffff ffff 			; <UNDEFINED> instruction: 0xffffffff
    7abc:	ffff ffff 			; <UNDEFINED> instruction: 0xffffffff
    7ac0:	ffff ffff 			; <UNDEFINED> instruction: 0xffffffff
    7ac4:	ffff ffff 			; <UNDEFINED> instruction: 0xffffffff
    7ac8:	ffff ffff 			; <UNDEFINED> instruction: 0xffffffff
    7acc:	ffff ffff 			; <UNDEFINED> instruction: 0xffffffff
    7ad0:	ffff ffff 			; <UNDEFINED> instruction: 0xffffffff
    7ad4:	ffff ffff 			; <UNDEFINED> instruction: 0xffffffff
    7ad8:	ffff ffff 			; <UNDEFINED> instruction: 0xffffffff
    7adc:	ffff ffff 			; <UNDEFINED> instruction: 0xffffffff
    7ae0:	ffff ffff 			; <UNDEFINED> instruction: 0xffffffff
    7ae4:	ffff ffff 			; <UNDEFINED> instruction: 0xffffffff
    7ae8:	ffff ffff 			; <UNDEFINED> instruction: 0xffffffff
    7aec:	ffff ffff 			; <UNDEFINED> instruction: 0xffffffff
    7af0:	ffff ffff 			; <UNDEFINED> instruction: 0xffffffff
    7af4:	ffff ffff 			; <UNDEFINED> instruction: 0xffffffff
    7af8:	ffff ffff 			; <UNDEFINED> instruction: 0xffffffff
    7afc:	ffff ffff 			; <UNDEFINED> instruction: 0xffffffff
    7b00:	ffff ffff 			; <UNDEFINED> instruction: 0xffffffff
    7b04:	ffff ffff 			; <UNDEFINED> instruction: 0xffffffff
    7b08:	ffff ffff 			; <UNDEFINED> instruction: 0xffffffff
    7b0c:	ffff ffff 			; <UNDEFINED> instruction: 0xffffffff
    7b10:	ffff ffff 			; <UNDEFINED> instruction: 0xffffffff
    7b14:	ffff ffff 			; <UNDEFINED> instruction: 0xffffffff
    7b18:	ffff ffff 			; <UNDEFINED> instruction: 0xffffffff
    7b1c:	ffff ffff 			; <UNDEFINED> instruction: 0xffffffff
    7b20:	ffff ffff 			; <UNDEFINED> instruction: 0xffffffff
    7b24:	ffff ffff 			; <UNDEFINED> instruction: 0xffffffff
    7b28:	ffff ffff 			; <UNDEFINED> instruction: 0xffffffff
    7b2c:	ffff ffff 			; <UNDEFINED> instruction: 0xffffffff
    7b30:	ffff ffff 			; <UNDEFINED> instruction: 0xffffffff
    7b34:	ffff ffff 			; <UNDEFINED> instruction: 0xffffffff
    7b38:	ffff ffff 			; <UNDEFINED> instruction: 0xffffffff
    7b3c:	ffff ffff 			; <UNDEFINED> instruction: 0xffffffff
    7b40:	ffff ffff 			; <UNDEFINED> instruction: 0xffffffff
    7b44:	ffff ffff 			; <UNDEFINED> instruction: 0xffffffff
    7b48:	ffff ffff 			; <UNDEFINED> instruction: 0xffffffff
    7b4c:	ffff ffff 			; <UNDEFINED> instruction: 0xffffffff
    7b50:	ffff ffff 			; <UNDEFINED> instruction: 0xffffffff
    7b54:	ffff ffff 			; <UNDEFINED> instruction: 0xffffffff
    7b58:	ffff ffff 			; <UNDEFINED> instruction: 0xffffffff
    7b5c:	ffff ffff 			; <UNDEFINED> instruction: 0xffffffff
    7b60:	ffff ffff 			; <UNDEFINED> instruction: 0xffffffff
    7b64:	ffff ffff 			; <UNDEFINED> instruction: 0xffffffff
    7b68:	ffff ffff 			; <UNDEFINED> instruction: 0xffffffff
    7b6c:	ffff ffff 			; <UNDEFINED> instruction: 0xffffffff
    7b70:	ffff ffff 			; <UNDEFINED> instruction: 0xffffffff
    7b74:	ffff ffff 			; <UNDEFINED> instruction: 0xffffffff
    7b78:	ffff ffff 			; <UNDEFINED> instruction: 0xffffffff
    7b7c:	ffff ffff 			; <UNDEFINED> instruction: 0xffffffff
    7b80:	ffff ffff 			; <UNDEFINED> instruction: 0xffffffff
    7b84:	ffff ffff 			; <UNDEFINED> instruction: 0xffffffff
    7b88:	ffff ffff 			; <UNDEFINED> instruction: 0xffffffff
    7b8c:	ffff ffff 			; <UNDEFINED> instruction: 0xffffffff
    7b90:	ffff ffff 			; <UNDEFINED> instruction: 0xffffffff
    7b94:	ffff ffff 			; <UNDEFINED> instruction: 0xffffffff
    7b98:	ffff ffff 			; <UNDEFINED> instruction: 0xffffffff
    7b9c:	ffff ffff 			; <UNDEFINED> instruction: 0xffffffff
    7ba0:	ffff ffff 			; <UNDEFINED> instruction: 0xffffffff
    7ba4:	ffff ffff 			; <UNDEFINED> instruction: 0xffffffff
    7ba8:	ffff ffff 			; <UNDEFINED> instruction: 0xffffffff
    7bac:	ffff ffff 			; <UNDEFINED> instruction: 0xffffffff
    7bb0:	ffff ffff 			; <UNDEFINED> instruction: 0xffffffff
    7bb4:	ffff ffff 			; <UNDEFINED> instruction: 0xffffffff
    7bb8:	ffff ffff 			; <UNDEFINED> instruction: 0xffffffff
    7bbc:	ffff ffff 			; <UNDEFINED> instruction: 0xffffffff
    7bc0:	ffff ffff 			; <UNDEFINED> instruction: 0xffffffff
    7bc4:	ffff ffff 			; <UNDEFINED> instruction: 0xffffffff
    7bc8:	ffff ffff 			; <UNDEFINED> instruction: 0xffffffff
    7bcc:	ffff ffff 			; <UNDEFINED> instruction: 0xffffffff
    7bd0:	ffff ffff 			; <UNDEFINED> instruction: 0xffffffff
    7bd4:	ffff ffff 			; <UNDEFINED> instruction: 0xffffffff
    7bd8:	ffff ffff 			; <UNDEFINED> instruction: 0xffffffff
    7bdc:	ffff ffff 			; <UNDEFINED> instruction: 0xffffffff
    7be0:	ffff ffff 			; <UNDEFINED> instruction: 0xffffffff
    7be4:	ffff ffff 			; <UNDEFINED> instruction: 0xffffffff
    7be8:	ffff ffff 			; <UNDEFINED> instruction: 0xffffffff
    7bec:	ffff ffff 			; <UNDEFINED> instruction: 0xffffffff
    7bf0:	ffff ffff 			; <UNDEFINED> instruction: 0xffffffff
    7bf4:	ffff ffff 			; <UNDEFINED> instruction: 0xffffffff
    7bf8:	ffff ffff 			; <UNDEFINED> instruction: 0xffffffff
    7bfc:	ffff ffff 			; <UNDEFINED> instruction: 0xffffffff
    7c00:	ffff ffff 			; <UNDEFINED> instruction: 0xffffffff
    7c04:	ffff ffff 			; <UNDEFINED> instruction: 0xffffffff
    7c08:	ffff ffff 			; <UNDEFINED> instruction: 0xffffffff
    7c0c:	ffff ffff 			; <UNDEFINED> instruction: 0xffffffff
    7c10:	ffff ffff 			; <UNDEFINED> instruction: 0xffffffff
    7c14:	ffff ffff 			; <UNDEFINED> instruction: 0xffffffff
    7c18:	ffff ffff 			; <UNDEFINED> instruction: 0xffffffff
    7c1c:	ffff ffff 			; <UNDEFINED> instruction: 0xffffffff
    7c20:	ffff ffff 			; <UNDEFINED> instruction: 0xffffffff
    7c24:	ffff ffff 			; <UNDEFINED> instruction: 0xffffffff
    7c28:	ffff ffff 			; <UNDEFINED> instruction: 0xffffffff
    7c2c:	ffff ffff 			; <UNDEFINED> instruction: 0xffffffff
    7c30:	ffff ffff 			; <UNDEFINED> instruction: 0xffffffff
    7c34:	ffff ffff 			; <UNDEFINED> instruction: 0xffffffff
    7c38:	ffff ffff 			; <UNDEFINED> instruction: 0xffffffff
    7c3c:	ffff ffff 			; <UNDEFINED> instruction: 0xffffffff
    7c40:	ffff ffff 			; <UNDEFINED> instruction: 0xffffffff
    7c44:	ffff ffff 			; <UNDEFINED> instruction: 0xffffffff
    7c48:	ffff ffff 			; <UNDEFINED> instruction: 0xffffffff
    7c4c:	ffff ffff 			; <UNDEFINED> instruction: 0xffffffff
    7c50:	ffff ffff 			; <UNDEFINED> instruction: 0xffffffff
    7c54:	ffff ffff 			; <UNDEFINED> instruction: 0xffffffff
    7c58:	ffff ffff 			; <UNDEFINED> instruction: 0xffffffff
    7c5c:	ffff ffff 			; <UNDEFINED> instruction: 0xffffffff
    7c60:	ffff ffff 			; <UNDEFINED> instruction: 0xffffffff
    7c64:	ffff ffff 			; <UNDEFINED> instruction: 0xffffffff
    7c68:	ffff ffff 			; <UNDEFINED> instruction: 0xffffffff
    7c6c:	ffff ffff 			; <UNDEFINED> instruction: 0xffffffff
    7c70:	ffff ffff 			; <UNDEFINED> instruction: 0xffffffff
    7c74:	ffff ffff 			; <UNDEFINED> instruction: 0xffffffff
    7c78:	ffff ffff 			; <UNDEFINED> instruction: 0xffffffff
    7c7c:	ffff ffff 			; <UNDEFINED> instruction: 0xffffffff
    7c80:	ffff ffff 			; <UNDEFINED> instruction: 0xffffffff
    7c84:	ffff ffff 			; <UNDEFINED> instruction: 0xffffffff
    7c88:	ffff ffff 			; <UNDEFINED> instruction: 0xffffffff
    7c8c:	ffff ffff 			; <UNDEFINED> instruction: 0xffffffff
    7c90:	ffff ffff 			; <UNDEFINED> instruction: 0xffffffff
    7c94:	ffff ffff 			; <UNDEFINED> instruction: 0xffffffff
    7c98:	ffff ffff 			; <UNDEFINED> instruction: 0xffffffff
    7c9c:	ffff ffff 			; <UNDEFINED> instruction: 0xffffffff
    7ca0:	ffff ffff 			; <UNDEFINED> instruction: 0xffffffff
    7ca4:	ffff ffff 			; <UNDEFINED> instruction: 0xffffffff
    7ca8:	ffff ffff 			; <UNDEFINED> instruction: 0xffffffff
    7cac:	ffff ffff 			; <UNDEFINED> instruction: 0xffffffff
    7cb0:	ffff ffff 			; <UNDEFINED> instruction: 0xffffffff
    7cb4:	ffff ffff 			; <UNDEFINED> instruction: 0xffffffff
    7cb8:	ffff ffff 			; <UNDEFINED> instruction: 0xffffffff
    7cbc:	ffff ffff 			; <UNDEFINED> instruction: 0xffffffff
    7cc0:	ffff ffff 			; <UNDEFINED> instruction: 0xffffffff
    7cc4:	ffff ffff 			; <UNDEFINED> instruction: 0xffffffff
    7cc8:	ffff ffff 			; <UNDEFINED> instruction: 0xffffffff
    7ccc:	ffff ffff 			; <UNDEFINED> instruction: 0xffffffff
    7cd0:	ffff ffff 			; <UNDEFINED> instruction: 0xffffffff
    7cd4:	ffff ffff 			; <UNDEFINED> instruction: 0xffffffff
    7cd8:	ffff ffff 			; <UNDEFINED> instruction: 0xffffffff
    7cdc:	ffff ffff 			; <UNDEFINED> instruction: 0xffffffff
    7ce0:	ffff ffff 			; <UNDEFINED> instruction: 0xffffffff
    7ce4:	ffff ffff 			; <UNDEFINED> instruction: 0xffffffff
    7ce8:	ffff ffff 			; <UNDEFINED> instruction: 0xffffffff
    7cec:	ffff ffff 			; <UNDEFINED> instruction: 0xffffffff
    7cf0:	ffff ffff 			; <UNDEFINED> instruction: 0xffffffff
    7cf4:	ffff ffff 			; <UNDEFINED> instruction: 0xffffffff
    7cf8:	ffff ffff 			; <UNDEFINED> instruction: 0xffffffff
    7cfc:	ffff ffff 			; <UNDEFINED> instruction: 0xffffffff
    7d00:	ffff ffff 			; <UNDEFINED> instruction: 0xffffffff
    7d04:	ffff ffff 			; <UNDEFINED> instruction: 0xffffffff
    7d08:	ffff ffff 			; <UNDEFINED> instruction: 0xffffffff
    7d0c:	ffff ffff 			; <UNDEFINED> instruction: 0xffffffff
    7d10:	ffff ffff 			; <UNDEFINED> instruction: 0xffffffff
    7d14:	ffff ffff 			; <UNDEFINED> instruction: 0xffffffff
    7d18:	ffff ffff 			; <UNDEFINED> instruction: 0xffffffff
    7d1c:	ffff ffff 			; <UNDEFINED> instruction: 0xffffffff
    7d20:	ffff ffff 			; <UNDEFINED> instruction: 0xffffffff
    7d24:	ffff ffff 			; <UNDEFINED> instruction: 0xffffffff
    7d28:	ffff ffff 			; <UNDEFINED> instruction: 0xffffffff
    7d2c:	ffff ffff 			; <UNDEFINED> instruction: 0xffffffff
    7d30:	ffff ffff 			; <UNDEFINED> instruction: 0xffffffff
    7d34:	ffff ffff 			; <UNDEFINED> instruction: 0xffffffff
    7d38:	ffff ffff 			; <UNDEFINED> instruction: 0xffffffff
    7d3c:	ffff ffff 			; <UNDEFINED> instruction: 0xffffffff
    7d40:	ffff ffff 			; <UNDEFINED> instruction: 0xffffffff
    7d44:	ffff ffff 			; <UNDEFINED> instruction: 0xffffffff
    7d48:	ffff ffff 			; <UNDEFINED> instruction: 0xffffffff
    7d4c:	ffff ffff 			; <UNDEFINED> instruction: 0xffffffff
    7d50:	ffff ffff 			; <UNDEFINED> instruction: 0xffffffff
    7d54:	ffff ffff 			; <UNDEFINED> instruction: 0xffffffff
    7d58:	ffff ffff 			; <UNDEFINED> instruction: 0xffffffff
    7d5c:	ffff ffff 			; <UNDEFINED> instruction: 0xffffffff
    7d60:	ffff ffff 			; <UNDEFINED> instruction: 0xffffffff
    7d64:	ffff ffff 			; <UNDEFINED> instruction: 0xffffffff
    7d68:	ffff ffff 			; <UNDEFINED> instruction: 0xffffffff
    7d6c:	ffff ffff 			; <UNDEFINED> instruction: 0xffffffff
    7d70:	ffff ffff 			; <UNDEFINED> instruction: 0xffffffff
    7d74:	ffff ffff 			; <UNDEFINED> instruction: 0xffffffff
    7d78:	ffff ffff 			; <UNDEFINED> instruction: 0xffffffff
    7d7c:	ffff ffff 			; <UNDEFINED> instruction: 0xffffffff
    7d80:	ffff ffff 			; <UNDEFINED> instruction: 0xffffffff
    7d84:	ffff ffff 			; <UNDEFINED> instruction: 0xffffffff
    7d88:	ffff ffff 			; <UNDEFINED> instruction: 0xffffffff
    7d8c:	ffff ffff 			; <UNDEFINED> instruction: 0xffffffff
    7d90:	ffff ffff 			; <UNDEFINED> instruction: 0xffffffff
    7d94:	ffff ffff 			; <UNDEFINED> instruction: 0xffffffff
    7d98:	ffff ffff 			; <UNDEFINED> instruction: 0xffffffff
    7d9c:	ffff ffff 			; <UNDEFINED> instruction: 0xffffffff
    7da0:	ffff ffff 			; <UNDEFINED> instruction: 0xffffffff
    7da4:	ffff ffff 			; <UNDEFINED> instruction: 0xffffffff
    7da8:	ffff ffff 			; <UNDEFINED> instruction: 0xffffffff
    7dac:	ffff ffff 			; <UNDEFINED> instruction: 0xffffffff
    7db0:	ffff ffff 			; <UNDEFINED> instruction: 0xffffffff
    7db4:	ffff ffff 			; <UNDEFINED> instruction: 0xffffffff
    7db8:	ffff ffff 			; <UNDEFINED> instruction: 0xffffffff
    7dbc:	ffff ffff 			; <UNDEFINED> instruction: 0xffffffff
    7dc0:	ffff ffff 			; <UNDEFINED> instruction: 0xffffffff
    7dc4:	ffff ffff 			; <UNDEFINED> instruction: 0xffffffff
    7dc8:	ffff ffff 			; <UNDEFINED> instruction: 0xffffffff
    7dcc:	ffff ffff 			; <UNDEFINED> instruction: 0xffffffff
    7dd0:	ffff ffff 			; <UNDEFINED> instruction: 0xffffffff
    7dd4:	ffff ffff 			; <UNDEFINED> instruction: 0xffffffff
    7dd8:	ffff ffff 			; <UNDEFINED> instruction: 0xffffffff
    7ddc:	ffff ffff 			; <UNDEFINED> instruction: 0xffffffff
    7de0:	ffff ffff 			; <UNDEFINED> instruction: 0xffffffff
    7de4:	ffff ffff 			; <UNDEFINED> instruction: 0xffffffff
    7de8:	ffff ffff 			; <UNDEFINED> instruction: 0xffffffff
    7dec:	ffff ffff 			; <UNDEFINED> instruction: 0xffffffff
    7df0:	ffff ffff 			; <UNDEFINED> instruction: 0xffffffff
    7df4:	ffff ffff 			; <UNDEFINED> instruction: 0xffffffff
    7df8:	ffff ffff 			; <UNDEFINED> instruction: 0xffffffff
    7dfc:	ffff ffff 			; <UNDEFINED> instruction: 0xffffffff
    7e00:	ffff ffff 			; <UNDEFINED> instruction: 0xffffffff
    7e04:	ffff ffff 			; <UNDEFINED> instruction: 0xffffffff
    7e08:	ffff ffff 			; <UNDEFINED> instruction: 0xffffffff
    7e0c:	ffff ffff 			; <UNDEFINED> instruction: 0xffffffff
    7e10:	ffff ffff 			; <UNDEFINED> instruction: 0xffffffff
    7e14:	ffff ffff 			; <UNDEFINED> instruction: 0xffffffff
    7e18:	ffff ffff 			; <UNDEFINED> instruction: 0xffffffff
    7e1c:	ffff ffff 			; <UNDEFINED> instruction: 0xffffffff
    7e20:	ffff ffff 			; <UNDEFINED> instruction: 0xffffffff
    7e24:	ffff ffff 			; <UNDEFINED> instruction: 0xffffffff
    7e28:	ffff ffff 			; <UNDEFINED> instruction: 0xffffffff
    7e2c:	ffff ffff 			; <UNDEFINED> instruction: 0xffffffff
    7e30:	ffff ffff 			; <UNDEFINED> instruction: 0xffffffff
    7e34:	ffff ffff 			; <UNDEFINED> instruction: 0xffffffff
    7e38:	ffff ffff 			; <UNDEFINED> instruction: 0xffffffff
    7e3c:	ffff ffff 			; <UNDEFINED> instruction: 0xffffffff
    7e40:	ffff ffff 			; <UNDEFINED> instruction: 0xffffffff
    7e44:	ffff ffff 			; <UNDEFINED> instruction: 0xffffffff
    7e48:	ffff ffff 			; <UNDEFINED> instruction: 0xffffffff
    7e4c:	ffff ffff 			; <UNDEFINED> instruction: 0xffffffff
    7e50:	ffff ffff 			; <UNDEFINED> instruction: 0xffffffff
    7e54:	ffff ffff 			; <UNDEFINED> instruction: 0xffffffff
    7e58:	ffff ffff 			; <UNDEFINED> instruction: 0xffffffff
    7e5c:	ffff ffff 			; <UNDEFINED> instruction: 0xffffffff
    7e60:	ffff ffff 			; <UNDEFINED> instruction: 0xffffffff
    7e64:	ffff ffff 			; <UNDEFINED> instruction: 0xffffffff
    7e68:	ffff ffff 			; <UNDEFINED> instruction: 0xffffffff
    7e6c:	ffff ffff 			; <UNDEFINED> instruction: 0xffffffff
    7e70:	ffff ffff 			; <UNDEFINED> instruction: 0xffffffff
    7e74:	ffff ffff 			; <UNDEFINED> instruction: 0xffffffff
    7e78:	ffff ffff 			; <UNDEFINED> instruction: 0xffffffff
    7e7c:	ffff ffff 			; <UNDEFINED> instruction: 0xffffffff
    7e80:	ffff ffff 			; <UNDEFINED> instruction: 0xffffffff
    7e84:	ffff ffff 			; <UNDEFINED> instruction: 0xffffffff
    7e88:	ffff ffff 			; <UNDEFINED> instruction: 0xffffffff
    7e8c:	ffff ffff 			; <UNDEFINED> instruction: 0xffffffff
    7e90:	ffff ffff 			; <UNDEFINED> instruction: 0xffffffff
    7e94:	ffff ffff 			; <UNDEFINED> instruction: 0xffffffff
    7e98:	ffff ffff 			; <UNDEFINED> instruction: 0xffffffff
    7e9c:	ffff ffff 			; <UNDEFINED> instruction: 0xffffffff
    7ea0:	ffff ffff 			; <UNDEFINED> instruction: 0xffffffff
    7ea4:	ffff ffff 			; <UNDEFINED> instruction: 0xffffffff
    7ea8:	ffff ffff 			; <UNDEFINED> instruction: 0xffffffff
    7eac:	ffff ffff 			; <UNDEFINED> instruction: 0xffffffff
    7eb0:	ffff ffff 			; <UNDEFINED> instruction: 0xffffffff
    7eb4:	ffff ffff 			; <UNDEFINED> instruction: 0xffffffff
    7eb8:	ffff ffff 			; <UNDEFINED> instruction: 0xffffffff
    7ebc:	ffff ffff 			; <UNDEFINED> instruction: 0xffffffff
    7ec0:	ffff ffff 			; <UNDEFINED> instruction: 0xffffffff
    7ec4:	ffff ffff 			; <UNDEFINED> instruction: 0xffffffff
    7ec8:	ffff ffff 			; <UNDEFINED> instruction: 0xffffffff
    7ecc:	ffff ffff 			; <UNDEFINED> instruction: 0xffffffff
    7ed0:	ffff ffff 			; <UNDEFINED> instruction: 0xffffffff
    7ed4:	ffff ffff 			; <UNDEFINED> instruction: 0xffffffff
    7ed8:	ffff ffff 			; <UNDEFINED> instruction: 0xffffffff
    7edc:	ffff ffff 			; <UNDEFINED> instruction: 0xffffffff
    7ee0:	ffff ffff 			; <UNDEFINED> instruction: 0xffffffff
    7ee4:	ffff ffff 			; <UNDEFINED> instruction: 0xffffffff
    7ee8:	ffff ffff 			; <UNDEFINED> instruction: 0xffffffff
    7eec:	ffff ffff 			; <UNDEFINED> instruction: 0xffffffff
    7ef0:	ffff ffff 			; <UNDEFINED> instruction: 0xffffffff
    7ef4:	ffff ffff 			; <UNDEFINED> instruction: 0xffffffff
    7ef8:	ffff ffff 			; <UNDEFINED> instruction: 0xffffffff
    7efc:	ffff ffff 			; <UNDEFINED> instruction: 0xffffffff
    7f00:	ffff ffff 			; <UNDEFINED> instruction: 0xffffffff
    7f04:	ffff ffff 			; <UNDEFINED> instruction: 0xffffffff
    7f08:	ffff ffff 			; <UNDEFINED> instruction: 0xffffffff
    7f0c:	ffff ffff 			; <UNDEFINED> instruction: 0xffffffff
    7f10:	ffff ffff 			; <UNDEFINED> instruction: 0xffffffff
    7f14:	ffff ffff 			; <UNDEFINED> instruction: 0xffffffff
    7f18:	ffff ffff 			; <UNDEFINED> instruction: 0xffffffff
    7f1c:	ffff ffff 			; <UNDEFINED> instruction: 0xffffffff
    7f20:	ffff ffff 			; <UNDEFINED> instruction: 0xffffffff
    7f24:	ffff ffff 			; <UNDEFINED> instruction: 0xffffffff
    7f28:	ffff ffff 			; <UNDEFINED> instruction: 0xffffffff
    7f2c:	ffff ffff 			; <UNDEFINED> instruction: 0xffffffff
    7f30:	ffff ffff 			; <UNDEFINED> instruction: 0xffffffff
    7f34:	ffff ffff 			; <UNDEFINED> instruction: 0xffffffff
    7f38:	ffff ffff 			; <UNDEFINED> instruction: 0xffffffff
    7f3c:	ffff ffff 			; <UNDEFINED> instruction: 0xffffffff
    7f40:	ffff ffff 			; <UNDEFINED> instruction: 0xffffffff
    7f44:	ffff ffff 			; <UNDEFINED> instruction: 0xffffffff
    7f48:	ffff ffff 			; <UNDEFINED> instruction: 0xffffffff
    7f4c:	ffff ffff 			; <UNDEFINED> instruction: 0xffffffff
    7f50:	ffff ffff 			; <UNDEFINED> instruction: 0xffffffff
    7f54:	ffff ffff 			; <UNDEFINED> instruction: 0xffffffff
    7f58:	ffff ffff 			; <UNDEFINED> instruction: 0xffffffff
    7f5c:	ffff ffff 			; <UNDEFINED> instruction: 0xffffffff
    7f60:	ffff ffff 			; <UNDEFINED> instruction: 0xffffffff
    7f64:	ffff ffff 			; <UNDEFINED> instruction: 0xffffffff
    7f68:	ffff ffff 			; <UNDEFINED> instruction: 0xffffffff
    7f6c:	ffff ffff 			; <UNDEFINED> instruction: 0xffffffff
    7f70:	ffff ffff 			; <UNDEFINED> instruction: 0xffffffff
    7f74:	ffff ffff 			; <UNDEFINED> instruction: 0xffffffff
    7f78:	ffff ffff 			; <UNDEFINED> instruction: 0xffffffff
    7f7c:	ffff ffff 			; <UNDEFINED> instruction: 0xffffffff
    7f80:	ffff ffff 			; <UNDEFINED> instruction: 0xffffffff
    7f84:	ffff ffff 			; <UNDEFINED> instruction: 0xffffffff
    7f88:	ffff ffff 			; <UNDEFINED> instruction: 0xffffffff
    7f8c:	ffff ffff 			; <UNDEFINED> instruction: 0xffffffff
    7f90:	ffff ffff 			; <UNDEFINED> instruction: 0xffffffff
    7f94:	ffff ffff 			; <UNDEFINED> instruction: 0xffffffff
    7f98:	ffff ffff 			; <UNDEFINED> instruction: 0xffffffff
    7f9c:	ffff ffff 			; <UNDEFINED> instruction: 0xffffffff
    7fa0:	ffff ffff 			; <UNDEFINED> instruction: 0xffffffff
    7fa4:	ffff ffff 			; <UNDEFINED> instruction: 0xffffffff
    7fa8:	ffff ffff 			; <UNDEFINED> instruction: 0xffffffff
    7fac:	ffff ffff 			; <UNDEFINED> instruction: 0xffffffff
    7fb0:	ffff ffff 			; <UNDEFINED> instruction: 0xffffffff
    7fb4:	ffff ffff 			; <UNDEFINED> instruction: 0xffffffff
    7fb8:	ffff ffff 			; <UNDEFINED> instruction: 0xffffffff
    7fbc:	ffff ffff 			; <UNDEFINED> instruction: 0xffffffff
    7fc0:	ffff ffff 			; <UNDEFINED> instruction: 0xffffffff
    7fc4:	ffff ffff 			; <UNDEFINED> instruction: 0xffffffff
    7fc8:	ffff ffff 			; <UNDEFINED> instruction: 0xffffffff
    7fcc:	ffff ffff 			; <UNDEFINED> instruction: 0xffffffff
    7fd0:	ffff ffff 			; <UNDEFINED> instruction: 0xffffffff
    7fd4:	ffff ffff 			; <UNDEFINED> instruction: 0xffffffff
    7fd8:	ffff ffff 			; <UNDEFINED> instruction: 0xffffffff
    7fdc:	ffff ffff 			; <UNDEFINED> instruction: 0xffffffff
    7fe0:	ffff ffff 			; <UNDEFINED> instruction: 0xffffffff
    7fe4:	ffff ffff 			; <UNDEFINED> instruction: 0xffffffff
    7fe8:	ffff ffff 			; <UNDEFINED> instruction: 0xffffffff
    7fec:	ffff ffff 			; <UNDEFINED> instruction: 0xffffffff
    7ff0:	ffff ffff 			; <UNDEFINED> instruction: 0xffffffff
    7ff4:	ffff ffff 			; <UNDEFINED> instruction: 0xffffffff
    7ff8:	ffff ffff 			; <UNDEFINED> instruction: 0xffffffff
    7ffc:	ffff ffff 			; <UNDEFINED> instruction: 0xffffffff
    8000:	ffff ffff 			; <UNDEFINED> instruction: 0xffffffff
    8004:	ffff ffff 			; <UNDEFINED> instruction: 0xffffffff
    8008:	ffff ffff 			; <UNDEFINED> instruction: 0xffffffff
    800c:	ffff ffff 			; <UNDEFINED> instruction: 0xffffffff
    8010:	ffff ffff 			; <UNDEFINED> instruction: 0xffffffff
    8014:	ffff ffff 			; <UNDEFINED> instruction: 0xffffffff
    8018:	ffff ffff 			; <UNDEFINED> instruction: 0xffffffff
    801c:	ffff ffff 			; <UNDEFINED> instruction: 0xffffffff
    8020:	ffff ffff 			; <UNDEFINED> instruction: 0xffffffff
    8024:	ffff ffff 			; <UNDEFINED> instruction: 0xffffffff
    8028:	ffff ffff 			; <UNDEFINED> instruction: 0xffffffff
    802c:	ffff ffff 			; <UNDEFINED> instruction: 0xffffffff
    8030:	ffff ffff 			; <UNDEFINED> instruction: 0xffffffff
    8034:	ffff ffff 			; <UNDEFINED> instruction: 0xffffffff
    8038:	ffff ffff 			; <UNDEFINED> instruction: 0xffffffff
    803c:	ffff ffff 			; <UNDEFINED> instruction: 0xffffffff
    8040:	ffff ffff 			; <UNDEFINED> instruction: 0xffffffff
    8044:	ffff ffff 			; <UNDEFINED> instruction: 0xffffffff
    8048:	ffff ffff 			; <UNDEFINED> instruction: 0xffffffff
    804c:	ffff ffff 			; <UNDEFINED> instruction: 0xffffffff
    8050:	ffff ffff 			; <UNDEFINED> instruction: 0xffffffff
    8054:	ffff ffff 			; <UNDEFINED> instruction: 0xffffffff
    8058:	ffff ffff 			; <UNDEFINED> instruction: 0xffffffff
    805c:	ffff ffff 			; <UNDEFINED> instruction: 0xffffffff
    8060:	ffff ffff 			; <UNDEFINED> instruction: 0xffffffff
    8064:	ffff ffff 			; <UNDEFINED> instruction: 0xffffffff
    8068:	ffff ffff 			; <UNDEFINED> instruction: 0xffffffff
    806c:	ffff ffff 			; <UNDEFINED> instruction: 0xffffffff
    8070:	ffff ffff 			; <UNDEFINED> instruction: 0xffffffff
    8074:	ffff ffff 			; <UNDEFINED> instruction: 0xffffffff
    8078:	ffff ffff 			; <UNDEFINED> instruction: 0xffffffff
    807c:	ffff ffff 			; <UNDEFINED> instruction: 0xffffffff
    8080:	ffff ffff 			; <UNDEFINED> instruction: 0xffffffff
    8084:	ffff ffff 			; <UNDEFINED> instruction: 0xffffffff
    8088:	ffff ffff 			; <UNDEFINED> instruction: 0xffffffff
    808c:	ffff ffff 			; <UNDEFINED> instruction: 0xffffffff
    8090:	ffff ffff 			; <UNDEFINED> instruction: 0xffffffff
    8094:	ffff ffff 			; <UNDEFINED> instruction: 0xffffffff
    8098:	ffff ffff 			; <UNDEFINED> instruction: 0xffffffff
    809c:	ffff ffff 			; <UNDEFINED> instruction: 0xffffffff
    80a0:	ffff ffff 			; <UNDEFINED> instruction: 0xffffffff
    80a4:	ffff ffff 			; <UNDEFINED> instruction: 0xffffffff
    80a8:	ffff ffff 			; <UNDEFINED> instruction: 0xffffffff
    80ac:	ffff ffff 			; <UNDEFINED> instruction: 0xffffffff
    80b0:	ffff ffff 			; <UNDEFINED> instruction: 0xffffffff
    80b4:	ffff ffff 			; <UNDEFINED> instruction: 0xffffffff
    80b8:	ffff ffff 			; <UNDEFINED> instruction: 0xffffffff
    80bc:	ffff ffff 			; <UNDEFINED> instruction: 0xffffffff
    80c0:	ffff ffff 			; <UNDEFINED> instruction: 0xffffffff
    80c4:	ffff ffff 			; <UNDEFINED> instruction: 0xffffffff
    80c8:	ffff ffff 			; <UNDEFINED> instruction: 0xffffffff
    80cc:	ffff ffff 			; <UNDEFINED> instruction: 0xffffffff
    80d0:	ffff ffff 			; <UNDEFINED> instruction: 0xffffffff
    80d4:	ffff ffff 			; <UNDEFINED> instruction: 0xffffffff
    80d8:	ffff ffff 			; <UNDEFINED> instruction: 0xffffffff
    80dc:	ffff ffff 			; <UNDEFINED> instruction: 0xffffffff
    80e0:	ffff ffff 			; <UNDEFINED> instruction: 0xffffffff
    80e4:	ffff ffff 			; <UNDEFINED> instruction: 0xffffffff
    80e8:	ffff ffff 			; <UNDEFINED> instruction: 0xffffffff
    80ec:	ffff ffff 			; <UNDEFINED> instruction: 0xffffffff
    80f0:	ffff ffff 			; <UNDEFINED> instruction: 0xffffffff
    80f4:	ffff ffff 			; <UNDEFINED> instruction: 0xffffffff
    80f8:	ffff ffff 			; <UNDEFINED> instruction: 0xffffffff
    80fc:	ffff ffff 			; <UNDEFINED> instruction: 0xffffffff
    8100:	ffff ffff 			; <UNDEFINED> instruction: 0xffffffff
    8104:	ffff ffff 			; <UNDEFINED> instruction: 0xffffffff
    8108:	ffff ffff 			; <UNDEFINED> instruction: 0xffffffff
    810c:	ffff ffff 			; <UNDEFINED> instruction: 0xffffffff
    8110:	ffff ffff 			; <UNDEFINED> instruction: 0xffffffff
    8114:	ffff ffff 			; <UNDEFINED> instruction: 0xffffffff
    8118:	ffff ffff 			; <UNDEFINED> instruction: 0xffffffff
    811c:	ffff ffff 			; <UNDEFINED> instruction: 0xffffffff
    8120:	ffff ffff 			; <UNDEFINED> instruction: 0xffffffff
    8124:	ffff ffff 			; <UNDEFINED> instruction: 0xffffffff
    8128:	ffff ffff 			; <UNDEFINED> instruction: 0xffffffff
    812c:	ffff ffff 			; <UNDEFINED> instruction: 0xffffffff
    8130:	ffff ffff 			; <UNDEFINED> instruction: 0xffffffff
    8134:	ffff ffff 			; <UNDEFINED> instruction: 0xffffffff
    8138:	ffff ffff 			; <UNDEFINED> instruction: 0xffffffff
    813c:	ffff ffff 			; <UNDEFINED> instruction: 0xffffffff
    8140:	ffff ffff 			; <UNDEFINED> instruction: 0xffffffff
    8144:	ffff ffff 			; <UNDEFINED> instruction: 0xffffffff
    8148:	ffff ffff 			; <UNDEFINED> instruction: 0xffffffff
    814c:	ffff ffff 			; <UNDEFINED> instruction: 0xffffffff
    8150:	ffff ffff 			; <UNDEFINED> instruction: 0xffffffff
    8154:	ffff ffff 			; <UNDEFINED> instruction: 0xffffffff
    8158:	ffff ffff 			; <UNDEFINED> instruction: 0xffffffff
    815c:	ffff ffff 			; <UNDEFINED> instruction: 0xffffffff
    8160:	ffff ffff 			; <UNDEFINED> instruction: 0xffffffff
    8164:	ffff ffff 			; <UNDEFINED> instruction: 0xffffffff
    8168:	ffff ffff 			; <UNDEFINED> instruction: 0xffffffff
    816c:	ffff ffff 			; <UNDEFINED> instruction: 0xffffffff
    8170:	ffff ffff 			; <UNDEFINED> instruction: 0xffffffff
    8174:	ffff ffff 			; <UNDEFINED> instruction: 0xffffffff
    8178:	ffff ffff 			; <UNDEFINED> instruction: 0xffffffff
    817c:	ffff ffff 			; <UNDEFINED> instruction: 0xffffffff
    8180:	ffff ffff 			; <UNDEFINED> instruction: 0xffffffff
    8184:	ffff ffff 			; <UNDEFINED> instruction: 0xffffffff
    8188:	ffff ffff 			; <UNDEFINED> instruction: 0xffffffff
    818c:	ffff ffff 			; <UNDEFINED> instruction: 0xffffffff
    8190:	ffff ffff 			; <UNDEFINED> instruction: 0xffffffff
    8194:	ffff ffff 			; <UNDEFINED> instruction: 0xffffffff
    8198:	ffff ffff 			; <UNDEFINED> instruction: 0xffffffff
    819c:	ffff ffff 			; <UNDEFINED> instruction: 0xffffffff
    81a0:	ffff ffff 			; <UNDEFINED> instruction: 0xffffffff
    81a4:	ffff ffff 			; <UNDEFINED> instruction: 0xffffffff
    81a8:	ffff ffff 			; <UNDEFINED> instruction: 0xffffffff
    81ac:	ffff ffff 			; <UNDEFINED> instruction: 0xffffffff
    81b0:	ffff ffff 			; <UNDEFINED> instruction: 0xffffffff
    81b4:	ffff ffff 			; <UNDEFINED> instruction: 0xffffffff
    81b8:	ffff ffff 			; <UNDEFINED> instruction: 0xffffffff
    81bc:	ffff ffff 			; <UNDEFINED> instruction: 0xffffffff
    81c0:	ffff ffff 			; <UNDEFINED> instruction: 0xffffffff
    81c4:	ffff ffff 			; <UNDEFINED> instruction: 0xffffffff
    81c8:	ffff ffff 			; <UNDEFINED> instruction: 0xffffffff
    81cc:	ffff ffff 			; <UNDEFINED> instruction: 0xffffffff
    81d0:	ffff ffff 			; <UNDEFINED> instruction: 0xffffffff
    81d4:	ffff ffff 			; <UNDEFINED> instruction: 0xffffffff
    81d8:	ffff ffff 			; <UNDEFINED> instruction: 0xffffffff
    81dc:	ffff ffff 			; <UNDEFINED> instruction: 0xffffffff
    81e0:	ffff ffff 			; <UNDEFINED> instruction: 0xffffffff
    81e4:	ffff ffff 			; <UNDEFINED> instruction: 0xffffffff
    81e8:	ffff ffff 			; <UNDEFINED> instruction: 0xffffffff
    81ec:	ffff ffff 			; <UNDEFINED> instruction: 0xffffffff
    81f0:	ffff ffff 			; <UNDEFINED> instruction: 0xffffffff
    81f4:	ffff ffff 			; <UNDEFINED> instruction: 0xffffffff
    81f8:	ffff ffff 			; <UNDEFINED> instruction: 0xffffffff
    81fc:	ffff ffff 			; <UNDEFINED> instruction: 0xffffffff
    8200:	ffff ffff 			; <UNDEFINED> instruction: 0xffffffff
    8204:	ffff ffff 			; <UNDEFINED> instruction: 0xffffffff
    8208:	ffff ffff 			; <UNDEFINED> instruction: 0xffffffff
    820c:	ffff ffff 			; <UNDEFINED> instruction: 0xffffffff
    8210:	ffff ffff 			; <UNDEFINED> instruction: 0xffffffff
    8214:	ffff ffff 			; <UNDEFINED> instruction: 0xffffffff
    8218:	ffff ffff 			; <UNDEFINED> instruction: 0xffffffff
    821c:	ffff ffff 			; <UNDEFINED> instruction: 0xffffffff
    8220:	ffff ffff 			; <UNDEFINED> instruction: 0xffffffff
    8224:	ffff ffff 			; <UNDEFINED> instruction: 0xffffffff
    8228:	ffff ffff 			; <UNDEFINED> instruction: 0xffffffff
    822c:	ffff ffff 			; <UNDEFINED> instruction: 0xffffffff
    8230:	ffff ffff 			; <UNDEFINED> instruction: 0xffffffff
    8234:	ffff ffff 			; <UNDEFINED> instruction: 0xffffffff
    8238:	ffff ffff 			; <UNDEFINED> instruction: 0xffffffff
    823c:	ffff ffff 			; <UNDEFINED> instruction: 0xffffffff
    8240:	ffff ffff 			; <UNDEFINED> instruction: 0xffffffff
    8244:	ffff ffff 			; <UNDEFINED> instruction: 0xffffffff
    8248:	ffff ffff 			; <UNDEFINED> instruction: 0xffffffff
    824c:	ffff ffff 			; <UNDEFINED> instruction: 0xffffffff
    8250:	ffff ffff 			; <UNDEFINED> instruction: 0xffffffff
    8254:	ffff ffff 			; <UNDEFINED> instruction: 0xffffffff
    8258:	ffff ffff 			; <UNDEFINED> instruction: 0xffffffff
    825c:	ffff ffff 			; <UNDEFINED> instruction: 0xffffffff
    8260:	ffff ffff 			; <UNDEFINED> instruction: 0xffffffff
    8264:	ffff ffff 			; <UNDEFINED> instruction: 0xffffffff
    8268:	ffff ffff 			; <UNDEFINED> instruction: 0xffffffff
    826c:	ffff ffff 			; <UNDEFINED> instruction: 0xffffffff
    8270:	ffff ffff 			; <UNDEFINED> instruction: 0xffffffff
    8274:	ffff ffff 			; <UNDEFINED> instruction: 0xffffffff
    8278:	ffff ffff 			; <UNDEFINED> instruction: 0xffffffff
    827c:	ffff ffff 			; <UNDEFINED> instruction: 0xffffffff
    8280:	ffff ffff 			; <UNDEFINED> instruction: 0xffffffff
    8284:	ffff ffff 			; <UNDEFINED> instruction: 0xffffffff
    8288:	ffff ffff 			; <UNDEFINED> instruction: 0xffffffff
    828c:	ffff ffff 			; <UNDEFINED> instruction: 0xffffffff
    8290:	ffff ffff 			; <UNDEFINED> instruction: 0xffffffff
    8294:	ffff ffff 			; <UNDEFINED> instruction: 0xffffffff
    8298:	ffff ffff 			; <UNDEFINED> instruction: 0xffffffff
    829c:	ffff ffff 			; <UNDEFINED> instruction: 0xffffffff
    82a0:	ffff ffff 			; <UNDEFINED> instruction: 0xffffffff
    82a4:	ffff ffff 			; <UNDEFINED> instruction: 0xffffffff
    82a8:	ffff ffff 			; <UNDEFINED> instruction: 0xffffffff
    82ac:	ffff ffff 			; <UNDEFINED> instruction: 0xffffffff
    82b0:	ffff ffff 			; <UNDEFINED> instruction: 0xffffffff
    82b4:	ffff ffff 			; <UNDEFINED> instruction: 0xffffffff
    82b8:	ffff ffff 			; <UNDEFINED> instruction: 0xffffffff
    82bc:	ffff ffff 			; <UNDEFINED> instruction: 0xffffffff
    82c0:	ffff ffff 			; <UNDEFINED> instruction: 0xffffffff
    82c4:	ffff ffff 			; <UNDEFINED> instruction: 0xffffffff
    82c8:	ffff ffff 			; <UNDEFINED> instruction: 0xffffffff
    82cc:	ffff ffff 			; <UNDEFINED> instruction: 0xffffffff
    82d0:	ffff ffff 			; <UNDEFINED> instruction: 0xffffffff
    82d4:	ffff ffff 			; <UNDEFINED> instruction: 0xffffffff
    82d8:	ffff ffff 			; <UNDEFINED> instruction: 0xffffffff
    82dc:	ffff ffff 			; <UNDEFINED> instruction: 0xffffffff
    82e0:	ffff ffff 			; <UNDEFINED> instruction: 0xffffffff
    82e4:	ffff ffff 			; <UNDEFINED> instruction: 0xffffffff
    82e8:	ffff ffff 			; <UNDEFINED> instruction: 0xffffffff
    82ec:	ffff ffff 			; <UNDEFINED> instruction: 0xffffffff
    82f0:	ffff ffff 			; <UNDEFINED> instruction: 0xffffffff
    82f4:	ffff ffff 			; <UNDEFINED> instruction: 0xffffffff
    82f8:	ffff ffff 			; <UNDEFINED> instruction: 0xffffffff
    82fc:	ffff ffff 			; <UNDEFINED> instruction: 0xffffffff
    8300:	ffff ffff 			; <UNDEFINED> instruction: 0xffffffff
    8304:	ffff ffff 			; <UNDEFINED> instruction: 0xffffffff
    8308:	ffff ffff 			; <UNDEFINED> instruction: 0xffffffff
    830c:	ffff ffff 			; <UNDEFINED> instruction: 0xffffffff
    8310:	ffff ffff 			; <UNDEFINED> instruction: 0xffffffff
    8314:	ffff ffff 			; <UNDEFINED> instruction: 0xffffffff
    8318:	ffff ffff 			; <UNDEFINED> instruction: 0xffffffff
    831c:	ffff ffff 			; <UNDEFINED> instruction: 0xffffffff
    8320:	ffff ffff 			; <UNDEFINED> instruction: 0xffffffff
    8324:	ffff ffff 			; <UNDEFINED> instruction: 0xffffffff
    8328:	ffff ffff 			; <UNDEFINED> instruction: 0xffffffff
    832c:	ffff ffff 			; <UNDEFINED> instruction: 0xffffffff
    8330:	ffff ffff 			; <UNDEFINED> instruction: 0xffffffff
    8334:	ffff ffff 			; <UNDEFINED> instruction: 0xffffffff
    8338:	ffff ffff 			; <UNDEFINED> instruction: 0xffffffff
    833c:	ffff ffff 			; <UNDEFINED> instruction: 0xffffffff
    8340:	ffff ffff 			; <UNDEFINED> instruction: 0xffffffff
    8344:	ffff ffff 			; <UNDEFINED> instruction: 0xffffffff
    8348:	ffff ffff 			; <UNDEFINED> instruction: 0xffffffff
    834c:	ffff ffff 			; <UNDEFINED> instruction: 0xffffffff
    8350:	ffff ffff 			; <UNDEFINED> instruction: 0xffffffff
    8354:	ffff ffff 			; <UNDEFINED> instruction: 0xffffffff
    8358:	ffff ffff 			; <UNDEFINED> instruction: 0xffffffff
    835c:	ffff ffff 			; <UNDEFINED> instruction: 0xffffffff
    8360:	ffff ffff 			; <UNDEFINED> instruction: 0xffffffff
    8364:	ffff ffff 			; <UNDEFINED> instruction: 0xffffffff
    8368:	ffff ffff 			; <UNDEFINED> instruction: 0xffffffff
    836c:	ffff ffff 			; <UNDEFINED> instruction: 0xffffffff
    8370:	ffff ffff 			; <UNDEFINED> instruction: 0xffffffff
    8374:	ffff ffff 			; <UNDEFINED> instruction: 0xffffffff
    8378:	ffff ffff 			; <UNDEFINED> instruction: 0xffffffff
    837c:	ffff ffff 			; <UNDEFINED> instruction: 0xffffffff
    8380:	ffff ffff 			; <UNDEFINED> instruction: 0xffffffff
    8384:	ffff ffff 			; <UNDEFINED> instruction: 0xffffffff
    8388:	ffff ffff 			; <UNDEFINED> instruction: 0xffffffff
    838c:	ffff ffff 			; <UNDEFINED> instruction: 0xffffffff
    8390:	ffff ffff 			; <UNDEFINED> instruction: 0xffffffff
    8394:	ffff ffff 			; <UNDEFINED> instruction: 0xffffffff
    8398:	ffff ffff 			; <UNDEFINED> instruction: 0xffffffff
    839c:	ffff ffff 			; <UNDEFINED> instruction: 0xffffffff
    83a0:	ffff ffff 			; <UNDEFINED> instruction: 0xffffffff
    83a4:	ffff ffff 			; <UNDEFINED> instruction: 0xffffffff
    83a8:	ffff ffff 			; <UNDEFINED> instruction: 0xffffffff
    83ac:	ffff ffff 			; <UNDEFINED> instruction: 0xffffffff
    83b0:	ffff ffff 			; <UNDEFINED> instruction: 0xffffffff
    83b4:	ffff ffff 			; <UNDEFINED> instruction: 0xffffffff
    83b8:	ffff ffff 			; <UNDEFINED> instruction: 0xffffffff
    83bc:	ffff ffff 			; <UNDEFINED> instruction: 0xffffffff
    83c0:	ffff ffff 			; <UNDEFINED> instruction: 0xffffffff
    83c4:	ffff ffff 			; <UNDEFINED> instruction: 0xffffffff
    83c8:	ffff ffff 			; <UNDEFINED> instruction: 0xffffffff
    83cc:	ffff ffff 			; <UNDEFINED> instruction: 0xffffffff
    83d0:	ffff ffff 			; <UNDEFINED> instruction: 0xffffffff
    83d4:	ffff ffff 			; <UNDEFINED> instruction: 0xffffffff
    83d8:	ffff ffff 			; <UNDEFINED> instruction: 0xffffffff
    83dc:	ffff ffff 			; <UNDEFINED> instruction: 0xffffffff
    83e0:	ffff ffff 			; <UNDEFINED> instruction: 0xffffffff
    83e4:	ffff ffff 			; <UNDEFINED> instruction: 0xffffffff
    83e8:	ffff ffff 			; <UNDEFINED> instruction: 0xffffffff
    83ec:	ffff ffff 			; <UNDEFINED> instruction: 0xffffffff
    83f0:	ffff ffff 			; <UNDEFINED> instruction: 0xffffffff
    83f4:	ffff ffff 			; <UNDEFINED> instruction: 0xffffffff
    83f8:	ffff ffff 			; <UNDEFINED> instruction: 0xffffffff
    83fc:	ffff ffff 			; <UNDEFINED> instruction: 0xffffffff
    8400:	ffff ffff 			; <UNDEFINED> instruction: 0xffffffff
    8404:	ffff ffff 			; <UNDEFINED> instruction: 0xffffffff
    8408:	ffff ffff 			; <UNDEFINED> instruction: 0xffffffff
    840c:	ffff ffff 			; <UNDEFINED> instruction: 0xffffffff
    8410:	ffff ffff 			; <UNDEFINED> instruction: 0xffffffff
    8414:	ffff ffff 			; <UNDEFINED> instruction: 0xffffffff
    8418:	ffff ffff 			; <UNDEFINED> instruction: 0xffffffff
    841c:	ffff ffff 			; <UNDEFINED> instruction: 0xffffffff
    8420:	ffff ffff 			; <UNDEFINED> instruction: 0xffffffff
    8424:	ffff ffff 			; <UNDEFINED> instruction: 0xffffffff
    8428:	ffff ffff 			; <UNDEFINED> instruction: 0xffffffff
    842c:	ffff ffff 			; <UNDEFINED> instruction: 0xffffffff
    8430:	ffff ffff 			; <UNDEFINED> instruction: 0xffffffff
    8434:	ffff ffff 			; <UNDEFINED> instruction: 0xffffffff
    8438:	ffff ffff 			; <UNDEFINED> instruction: 0xffffffff
    843c:	ffff ffff 			; <UNDEFINED> instruction: 0xffffffff
    8440:	ffff ffff 			; <UNDEFINED> instruction: 0xffffffff
    8444:	ffff ffff 			; <UNDEFINED> instruction: 0xffffffff
    8448:	ffff ffff 			; <UNDEFINED> instruction: 0xffffffff
    844c:	ffff ffff 			; <UNDEFINED> instruction: 0xffffffff
    8450:	ffff ffff 			; <UNDEFINED> instruction: 0xffffffff
    8454:	ffff ffff 			; <UNDEFINED> instruction: 0xffffffff
    8458:	ffff ffff 			; <UNDEFINED> instruction: 0xffffffff
    845c:	ffff ffff 			; <UNDEFINED> instruction: 0xffffffff
    8460:	ffff ffff 			; <UNDEFINED> instruction: 0xffffffff
    8464:	ffff ffff 			; <UNDEFINED> instruction: 0xffffffff
    8468:	ffff ffff 			; <UNDEFINED> instruction: 0xffffffff
    846c:	ffff ffff 			; <UNDEFINED> instruction: 0xffffffff
    8470:	ffff ffff 			; <UNDEFINED> instruction: 0xffffffff
    8474:	ffff ffff 			; <UNDEFINED> instruction: 0xffffffff
    8478:	ffff ffff 			; <UNDEFINED> instruction: 0xffffffff
    847c:	ffff ffff 			; <UNDEFINED> instruction: 0xffffffff
    8480:	ffff ffff 			; <UNDEFINED> instruction: 0xffffffff
    8484:	ffff ffff 			; <UNDEFINED> instruction: 0xffffffff
    8488:	ffff ffff 			; <UNDEFINED> instruction: 0xffffffff
    848c:	ffff ffff 			; <UNDEFINED> instruction: 0xffffffff
    8490:	ffff ffff 			; <UNDEFINED> instruction: 0xffffffff
    8494:	ffff ffff 			; <UNDEFINED> instruction: 0xffffffff
    8498:	ffff ffff 			; <UNDEFINED> instruction: 0xffffffff
    849c:	ffff ffff 			; <UNDEFINED> instruction: 0xffffffff
    84a0:	ffff ffff 			; <UNDEFINED> instruction: 0xffffffff
    84a4:	ffff ffff 			; <UNDEFINED> instruction: 0xffffffff
    84a8:	ffff ffff 			; <UNDEFINED> instruction: 0xffffffff
    84ac:	ffff ffff 			; <UNDEFINED> instruction: 0xffffffff
    84b0:	ffff ffff 			; <UNDEFINED> instruction: 0xffffffff
    84b4:	ffff ffff 			; <UNDEFINED> instruction: 0xffffffff
    84b8:	ffff ffff 			; <UNDEFINED> instruction: 0xffffffff
    84bc:	ffff ffff 			; <UNDEFINED> instruction: 0xffffffff
    84c0:	ffff ffff 			; <UNDEFINED> instruction: 0xffffffff
    84c4:	ffff ffff 			; <UNDEFINED> instruction: 0xffffffff
    84c8:	ffff ffff 			; <UNDEFINED> instruction: 0xffffffff
    84cc:	ffff ffff 			; <UNDEFINED> instruction: 0xffffffff
    84d0:	ffff ffff 			; <UNDEFINED> instruction: 0xffffffff
    84d4:	ffff ffff 			; <UNDEFINED> instruction: 0xffffffff
    84d8:	ffff ffff 			; <UNDEFINED> instruction: 0xffffffff
    84dc:	ffff ffff 			; <UNDEFINED> instruction: 0xffffffff
    84e0:	ffff ffff 			; <UNDEFINED> instruction: 0xffffffff
    84e4:	ffff ffff 			; <UNDEFINED> instruction: 0xffffffff
    84e8:	ffff ffff 			; <UNDEFINED> instruction: 0xffffffff
    84ec:	ffff ffff 			; <UNDEFINED> instruction: 0xffffffff
    84f0:	ffff ffff 			; <UNDEFINED> instruction: 0xffffffff
    84f4:	ffff ffff 			; <UNDEFINED> instruction: 0xffffffff
    84f8:	ffff ffff 			; <UNDEFINED> instruction: 0xffffffff
    84fc:	ffff ffff 			; <UNDEFINED> instruction: 0xffffffff
    8500:	ffff ffff 			; <UNDEFINED> instruction: 0xffffffff
    8504:	ffff ffff 			; <UNDEFINED> instruction: 0xffffffff
    8508:	ffff ffff 			; <UNDEFINED> instruction: 0xffffffff
    850c:	ffff ffff 			; <UNDEFINED> instruction: 0xffffffff
    8510:	ffff ffff 			; <UNDEFINED> instruction: 0xffffffff
    8514:	ffff ffff 			; <UNDEFINED> instruction: 0xffffffff
    8518:	ffff ffff 			; <UNDEFINED> instruction: 0xffffffff
    851c:	ffff ffff 			; <UNDEFINED> instruction: 0xffffffff
    8520:	ffff ffff 			; <UNDEFINED> instruction: 0xffffffff
    8524:	ffff ffff 			; <UNDEFINED> instruction: 0xffffffff
    8528:	ffff ffff 			; <UNDEFINED> instruction: 0xffffffff
    852c:	ffff ffff 			; <UNDEFINED> instruction: 0xffffffff
    8530:	ffff ffff 			; <UNDEFINED> instruction: 0xffffffff
    8534:	ffff ffff 			; <UNDEFINED> instruction: 0xffffffff
    8538:	ffff ffff 			; <UNDEFINED> instruction: 0xffffffff
    853c:	ffff ffff 			; <UNDEFINED> instruction: 0xffffffff
    8540:	ffff ffff 			; <UNDEFINED> instruction: 0xffffffff
    8544:	ffff ffff 			; <UNDEFINED> instruction: 0xffffffff
    8548:	ffff ffff 			; <UNDEFINED> instruction: 0xffffffff
    854c:	ffff ffff 			; <UNDEFINED> instruction: 0xffffffff
    8550:	ffff ffff 			; <UNDEFINED> instruction: 0xffffffff
    8554:	ffff ffff 			; <UNDEFINED> instruction: 0xffffffff
    8558:	ffff ffff 			; <UNDEFINED> instruction: 0xffffffff
    855c:	ffff ffff 			; <UNDEFINED> instruction: 0xffffffff
    8560:	ffff ffff 			; <UNDEFINED> instruction: 0xffffffff
    8564:	ffff ffff 			; <UNDEFINED> instruction: 0xffffffff
    8568:	ffff ffff 			; <UNDEFINED> instruction: 0xffffffff
    856c:	ffff ffff 			; <UNDEFINED> instruction: 0xffffffff
    8570:	ffff ffff 			; <UNDEFINED> instruction: 0xffffffff
    8574:	ffff ffff 			; <UNDEFINED> instruction: 0xffffffff
    8578:	ffff ffff 			; <UNDEFINED> instruction: 0xffffffff
    857c:	ffff ffff 			; <UNDEFINED> instruction: 0xffffffff
    8580:	ffff ffff 			; <UNDEFINED> instruction: 0xffffffff
    8584:	ffff ffff 			; <UNDEFINED> instruction: 0xffffffff
    8588:	ffff ffff 			; <UNDEFINED> instruction: 0xffffffff
    858c:	ffff ffff 			; <UNDEFINED> instruction: 0xffffffff
    8590:	ffff ffff 			; <UNDEFINED> instruction: 0xffffffff
    8594:	ffff ffff 			; <UNDEFINED> instruction: 0xffffffff
    8598:	ffff ffff 			; <UNDEFINED> instruction: 0xffffffff
    859c:	ffff ffff 			; <UNDEFINED> instruction: 0xffffffff
    85a0:	ffff ffff 			; <UNDEFINED> instruction: 0xffffffff
    85a4:	ffff ffff 			; <UNDEFINED> instruction: 0xffffffff
    85a8:	ffff ffff 			; <UNDEFINED> instruction: 0xffffffff
    85ac:	ffff ffff 			; <UNDEFINED> instruction: 0xffffffff
    85b0:	ffff ffff 			; <UNDEFINED> instruction: 0xffffffff
    85b4:	ffff ffff 			; <UNDEFINED> instruction: 0xffffffff
    85b8:	ffff ffff 			; <UNDEFINED> instruction: 0xffffffff
    85bc:	ffff ffff 			; <UNDEFINED> instruction: 0xffffffff
    85c0:	ffff ffff 			; <UNDEFINED> instruction: 0xffffffff
    85c4:	ffff ffff 			; <UNDEFINED> instruction: 0xffffffff
    85c8:	ffff ffff 			; <UNDEFINED> instruction: 0xffffffff
    85cc:	ffff ffff 			; <UNDEFINED> instruction: 0xffffffff
    85d0:	ffff ffff 			; <UNDEFINED> instruction: 0xffffffff
    85d4:	ffff ffff 			; <UNDEFINED> instruction: 0xffffffff
    85d8:	ffff ffff 			; <UNDEFINED> instruction: 0xffffffff
    85dc:	ffff ffff 			; <UNDEFINED> instruction: 0xffffffff
    85e0:	ffff ffff 			; <UNDEFINED> instruction: 0xffffffff
    85e4:	ffff ffff 			; <UNDEFINED> instruction: 0xffffffff
    85e8:	ffff ffff 			; <UNDEFINED> instruction: 0xffffffff
    85ec:	ffff ffff 			; <UNDEFINED> instruction: 0xffffffff
    85f0:	ffff ffff 			; <UNDEFINED> instruction: 0xffffffff
    85f4:	ffff ffff 			; <UNDEFINED> instruction: 0xffffffff
    85f8:	ffff ffff 			; <UNDEFINED> instruction: 0xffffffff
    85fc:	ffff ffff 			; <UNDEFINED> instruction: 0xffffffff
    8600:	ffff ffff 			; <UNDEFINED> instruction: 0xffffffff
    8604:	ffff ffff 			; <UNDEFINED> instruction: 0xffffffff
    8608:	ffff ffff 			; <UNDEFINED> instruction: 0xffffffff
    860c:	ffff ffff 			; <UNDEFINED> instruction: 0xffffffff
    8610:	ffff ffff 			; <UNDEFINED> instruction: 0xffffffff
    8614:	ffff ffff 			; <UNDEFINED> instruction: 0xffffffff
    8618:	ffff ffff 			; <UNDEFINED> instruction: 0xffffffff
    861c:	ffff ffff 			; <UNDEFINED> instruction: 0xffffffff
    8620:	ffff ffff 			; <UNDEFINED> instruction: 0xffffffff
    8624:	ffff ffff 			; <UNDEFINED> instruction: 0xffffffff
    8628:	ffff ffff 			; <UNDEFINED> instruction: 0xffffffff
    862c:	ffff ffff 			; <UNDEFINED> instruction: 0xffffffff
    8630:	ffff ffff 			; <UNDEFINED> instruction: 0xffffffff
    8634:	ffff ffff 			; <UNDEFINED> instruction: 0xffffffff
    8638:	ffff ffff 			; <UNDEFINED> instruction: 0xffffffff
    863c:	ffff ffff 			; <UNDEFINED> instruction: 0xffffffff
    8640:	ffff ffff 			; <UNDEFINED> instruction: 0xffffffff
    8644:	ffff ffff 			; <UNDEFINED> instruction: 0xffffffff
    8648:	ffff ffff 			; <UNDEFINED> instruction: 0xffffffff
    864c:	ffff ffff 			; <UNDEFINED> instruction: 0xffffffff
    8650:	ffff ffff 			; <UNDEFINED> instruction: 0xffffffff
    8654:	ffff ffff 			; <UNDEFINED> instruction: 0xffffffff
    8658:	ffff ffff 			; <UNDEFINED> instruction: 0xffffffff
    865c:	ffff ffff 			; <UNDEFINED> instruction: 0xffffffff
    8660:	ffff ffff 			; <UNDEFINED> instruction: 0xffffffff
    8664:	ffff ffff 			; <UNDEFINED> instruction: 0xffffffff
    8668:	ffff ffff 			; <UNDEFINED> instruction: 0xffffffff
    866c:	ffff ffff 			; <UNDEFINED> instruction: 0xffffffff
    8670:	ffff ffff 			; <UNDEFINED> instruction: 0xffffffff
    8674:	ffff ffff 			; <UNDEFINED> instruction: 0xffffffff
    8678:	ffff ffff 			; <UNDEFINED> instruction: 0xffffffff
    867c:	ffff ffff 			; <UNDEFINED> instruction: 0xffffffff
    8680:	ffff ffff 			; <UNDEFINED> instruction: 0xffffffff
    8684:	ffff ffff 			; <UNDEFINED> instruction: 0xffffffff
    8688:	ffff ffff 			; <UNDEFINED> instruction: 0xffffffff
    868c:	ffff ffff 			; <UNDEFINED> instruction: 0xffffffff
    8690:	ffff ffff 			; <UNDEFINED> instruction: 0xffffffff
    8694:	ffff ffff 			; <UNDEFINED> instruction: 0xffffffff
    8698:	ffff ffff 			; <UNDEFINED> instruction: 0xffffffff
    869c:	ffff ffff 			; <UNDEFINED> instruction: 0xffffffff
    86a0:	ffff ffff 			; <UNDEFINED> instruction: 0xffffffff
    86a4:	ffff ffff 			; <UNDEFINED> instruction: 0xffffffff
    86a8:	ffff ffff 			; <UNDEFINED> instruction: 0xffffffff
    86ac:	ffff ffff 			; <UNDEFINED> instruction: 0xffffffff
    86b0:	ffff ffff 			; <UNDEFINED> instruction: 0xffffffff
    86b4:	ffff ffff 			; <UNDEFINED> instruction: 0xffffffff
    86b8:	ffff ffff 			; <UNDEFINED> instruction: 0xffffffff
    86bc:	ffff ffff 			; <UNDEFINED> instruction: 0xffffffff
    86c0:	ffff ffff 			; <UNDEFINED> instruction: 0xffffffff
    86c4:	ffff ffff 			; <UNDEFINED> instruction: 0xffffffff
    86c8:	ffff ffff 			; <UNDEFINED> instruction: 0xffffffff
    86cc:	ffff ffff 			; <UNDEFINED> instruction: 0xffffffff
    86d0:	ffff ffff 			; <UNDEFINED> instruction: 0xffffffff
    86d4:	ffff ffff 			; <UNDEFINED> instruction: 0xffffffff
    86d8:	ffff ffff 			; <UNDEFINED> instruction: 0xffffffff
    86dc:	ffff ffff 			; <UNDEFINED> instruction: 0xffffffff
    86e0:	ffff ffff 			; <UNDEFINED> instruction: 0xffffffff
    86e4:	ffff ffff 			; <UNDEFINED> instruction: 0xffffffff
    86e8:	ffff ffff 			; <UNDEFINED> instruction: 0xffffffff
    86ec:	ffff ffff 			; <UNDEFINED> instruction: 0xffffffff
    86f0:	ffff ffff 			; <UNDEFINED> instruction: 0xffffffff
    86f4:	ffff ffff 			; <UNDEFINED> instruction: 0xffffffff
    86f8:	ffff ffff 			; <UNDEFINED> instruction: 0xffffffff
    86fc:	ffff ffff 			; <UNDEFINED> instruction: 0xffffffff
    8700:	ffff ffff 			; <UNDEFINED> instruction: 0xffffffff
    8704:	ffff ffff 			; <UNDEFINED> instruction: 0xffffffff
    8708:	ffff ffff 			; <UNDEFINED> instruction: 0xffffffff
    870c:	ffff ffff 			; <UNDEFINED> instruction: 0xffffffff
    8710:	ffff ffff 			; <UNDEFINED> instruction: 0xffffffff
    8714:	ffff ffff 			; <UNDEFINED> instruction: 0xffffffff
    8718:	ffff ffff 			; <UNDEFINED> instruction: 0xffffffff
    871c:	ffff ffff 			; <UNDEFINED> instruction: 0xffffffff
    8720:	ffff ffff 			; <UNDEFINED> instruction: 0xffffffff
    8724:	ffff ffff 			; <UNDEFINED> instruction: 0xffffffff
    8728:	ffff ffff 			; <UNDEFINED> instruction: 0xffffffff
    872c:	ffff ffff 			; <UNDEFINED> instruction: 0xffffffff
    8730:	ffff ffff 			; <UNDEFINED> instruction: 0xffffffff
    8734:	ffff ffff 			; <UNDEFINED> instruction: 0xffffffff
    8738:	ffff ffff 			; <UNDEFINED> instruction: 0xffffffff
    873c:	ffff ffff 			; <UNDEFINED> instruction: 0xffffffff
    8740:	ffff ffff 			; <UNDEFINED> instruction: 0xffffffff
    8744:	ffff ffff 			; <UNDEFINED> instruction: 0xffffffff
    8748:	ffff ffff 			; <UNDEFINED> instruction: 0xffffffff
    874c:	ffff ffff 			; <UNDEFINED> instruction: 0xffffffff
    8750:	ffff ffff 			; <UNDEFINED> instruction: 0xffffffff
    8754:	ffff ffff 			; <UNDEFINED> instruction: 0xffffffff
    8758:	ffff ffff 			; <UNDEFINED> instruction: 0xffffffff
    875c:	ffff ffff 			; <UNDEFINED> instruction: 0xffffffff
    8760:	ffff ffff 			; <UNDEFINED> instruction: 0xffffffff
    8764:	ffff ffff 			; <UNDEFINED> instruction: 0xffffffff
    8768:	ffff ffff 			; <UNDEFINED> instruction: 0xffffffff
    876c:	ffff ffff 			; <UNDEFINED> instruction: 0xffffffff
    8770:	ffff ffff 			; <UNDEFINED> instruction: 0xffffffff
    8774:	ffff ffff 			; <UNDEFINED> instruction: 0xffffffff
    8778:	ffff ffff 			; <UNDEFINED> instruction: 0xffffffff
    877c:	ffff ffff 			; <UNDEFINED> instruction: 0xffffffff
    8780:	ffff ffff 			; <UNDEFINED> instruction: 0xffffffff
    8784:	ffff ffff 			; <UNDEFINED> instruction: 0xffffffff
    8788:	ffff ffff 			; <UNDEFINED> instruction: 0xffffffff
    878c:	ffff ffff 			; <UNDEFINED> instruction: 0xffffffff
    8790:	ffff ffff 			; <UNDEFINED> instruction: 0xffffffff
    8794:	ffff ffff 			; <UNDEFINED> instruction: 0xffffffff
    8798:	ffff ffff 			; <UNDEFINED> instruction: 0xffffffff
    879c:	ffff ffff 			; <UNDEFINED> instruction: 0xffffffff
    87a0:	ffff ffff 			; <UNDEFINED> instruction: 0xffffffff
    87a4:	ffff ffff 			; <UNDEFINED> instruction: 0xffffffff
    87a8:	ffff ffff 			; <UNDEFINED> instruction: 0xffffffff
    87ac:	ffff ffff 			; <UNDEFINED> instruction: 0xffffffff
    87b0:	ffff ffff 			; <UNDEFINED> instruction: 0xffffffff
    87b4:	ffff ffff 			; <UNDEFINED> instruction: 0xffffffff
    87b8:	ffff ffff 			; <UNDEFINED> instruction: 0xffffffff
    87bc:	ffff ffff 			; <UNDEFINED> instruction: 0xffffffff
    87c0:	ffff ffff 			; <UNDEFINED> instruction: 0xffffffff
    87c4:	ffff ffff 			; <UNDEFINED> instruction: 0xffffffff
    87c8:	ffff ffff 			; <UNDEFINED> instruction: 0xffffffff
    87cc:	ffff ffff 			; <UNDEFINED> instruction: 0xffffffff
    87d0:	ffff ffff 			; <UNDEFINED> instruction: 0xffffffff
    87d4:	ffff ffff 			; <UNDEFINED> instruction: 0xffffffff
    87d8:	ffff ffff 			; <UNDEFINED> instruction: 0xffffffff
    87dc:	ffff ffff 			; <UNDEFINED> instruction: 0xffffffff
    87e0:	ffff ffff 			; <UNDEFINED> instruction: 0xffffffff
    87e4:	ffff ffff 			; <UNDEFINED> instruction: 0xffffffff
    87e8:	ffff ffff 			; <UNDEFINED> instruction: 0xffffffff
    87ec:	ffff ffff 			; <UNDEFINED> instruction: 0xffffffff
    87f0:	ffff ffff 			; <UNDEFINED> instruction: 0xffffffff
    87f4:	ffff ffff 			; <UNDEFINED> instruction: 0xffffffff
    87f8:	ffff ffff 			; <UNDEFINED> instruction: 0xffffffff
    87fc:	ffff ffff 			; <UNDEFINED> instruction: 0xffffffff
    8800:	ffff ffff 			; <UNDEFINED> instruction: 0xffffffff
    8804:	ffff ffff 			; <UNDEFINED> instruction: 0xffffffff
    8808:	ffff ffff 			; <UNDEFINED> instruction: 0xffffffff
    880c:	ffff ffff 			; <UNDEFINED> instruction: 0xffffffff
    8810:	ffff ffff 			; <UNDEFINED> instruction: 0xffffffff
    8814:	ffff ffff 			; <UNDEFINED> instruction: 0xffffffff
    8818:	ffff ffff 			; <UNDEFINED> instruction: 0xffffffff
    881c:	ffff ffff 			; <UNDEFINED> instruction: 0xffffffff
    8820:	ffff ffff 			; <UNDEFINED> instruction: 0xffffffff
    8824:	ffff ffff 			; <UNDEFINED> instruction: 0xffffffff
    8828:	ffff ffff 			; <UNDEFINED> instruction: 0xffffffff
    882c:	ffff ffff 			; <UNDEFINED> instruction: 0xffffffff
    8830:	ffff ffff 			; <UNDEFINED> instruction: 0xffffffff
    8834:	ffff ffff 			; <UNDEFINED> instruction: 0xffffffff
    8838:	ffff ffff 			; <UNDEFINED> instruction: 0xffffffff
    883c:	ffff ffff 			; <UNDEFINED> instruction: 0xffffffff
    8840:	ffff ffff 			; <UNDEFINED> instruction: 0xffffffff
    8844:	ffff ffff 			; <UNDEFINED> instruction: 0xffffffff
    8848:	ffff ffff 			; <UNDEFINED> instruction: 0xffffffff
    884c:	ffff ffff 			; <UNDEFINED> instruction: 0xffffffff
    8850:	ffff ffff 			; <UNDEFINED> instruction: 0xffffffff
    8854:	ffff ffff 			; <UNDEFINED> instruction: 0xffffffff
    8858:	ffff ffff 			; <UNDEFINED> instruction: 0xffffffff
    885c:	ffff ffff 			; <UNDEFINED> instruction: 0xffffffff
    8860:	ffff ffff 			; <UNDEFINED> instruction: 0xffffffff
    8864:	ffff ffff 			; <UNDEFINED> instruction: 0xffffffff
    8868:	ffff ffff 			; <UNDEFINED> instruction: 0xffffffff
    886c:	ffff ffff 			; <UNDEFINED> instruction: 0xffffffff
    8870:	ffff ffff 			; <UNDEFINED> instruction: 0xffffffff
    8874:	ffff ffff 			; <UNDEFINED> instruction: 0xffffffff
    8878:	ffff ffff 			; <UNDEFINED> instruction: 0xffffffff
    887c:	ffff ffff 			; <UNDEFINED> instruction: 0xffffffff
    8880:	ffff ffff 			; <UNDEFINED> instruction: 0xffffffff
    8884:	ffff ffff 			; <UNDEFINED> instruction: 0xffffffff
    8888:	ffff ffff 			; <UNDEFINED> instruction: 0xffffffff
    888c:	ffff ffff 			; <UNDEFINED> instruction: 0xffffffff
    8890:	ffff ffff 			; <UNDEFINED> instruction: 0xffffffff
    8894:	ffff ffff 			; <UNDEFINED> instruction: 0xffffffff
    8898:	ffff ffff 			; <UNDEFINED> instruction: 0xffffffff
    889c:	ffff ffff 			; <UNDEFINED> instruction: 0xffffffff
    88a0:	ffff ffff 			; <UNDEFINED> instruction: 0xffffffff
    88a4:	ffff ffff 			; <UNDEFINED> instruction: 0xffffffff
    88a8:	ffff ffff 			; <UNDEFINED> instruction: 0xffffffff
    88ac:	ffff ffff 			; <UNDEFINED> instruction: 0xffffffff
    88b0:	ffff ffff 			; <UNDEFINED> instruction: 0xffffffff
    88b4:	ffff ffff 			; <UNDEFINED> instruction: 0xffffffff
    88b8:	ffff ffff 			; <UNDEFINED> instruction: 0xffffffff
    88bc:	ffff ffff 			; <UNDEFINED> instruction: 0xffffffff
    88c0:	ffff ffff 			; <UNDEFINED> instruction: 0xffffffff
    88c4:	ffff ffff 			; <UNDEFINED> instruction: 0xffffffff
    88c8:	ffff ffff 			; <UNDEFINED> instruction: 0xffffffff
    88cc:	ffff ffff 			; <UNDEFINED> instruction: 0xffffffff
    88d0:	ffff ffff 			; <UNDEFINED> instruction: 0xffffffff
    88d4:	ffff ffff 			; <UNDEFINED> instruction: 0xffffffff
    88d8:	ffff ffff 			; <UNDEFINED> instruction: 0xffffffff
    88dc:	ffff ffff 			; <UNDEFINED> instruction: 0xffffffff
    88e0:	ffff ffff 			; <UNDEFINED> instruction: 0xffffffff
    88e4:	ffff ffff 			; <UNDEFINED> instruction: 0xffffffff
    88e8:	ffff ffff 			; <UNDEFINED> instruction: 0xffffffff
    88ec:	ffff ffff 			; <UNDEFINED> instruction: 0xffffffff
    88f0:	ffff ffff 			; <UNDEFINED> instruction: 0xffffffff
    88f4:	ffff ffff 			; <UNDEFINED> instruction: 0xffffffff
    88f8:	ffff ffff 			; <UNDEFINED> instruction: 0xffffffff
    88fc:	ffff ffff 			; <UNDEFINED> instruction: 0xffffffff
    8900:	ffff ffff 			; <UNDEFINED> instruction: 0xffffffff
    8904:	ffff ffff 			; <UNDEFINED> instruction: 0xffffffff
    8908:	ffff ffff 			; <UNDEFINED> instruction: 0xffffffff
    890c:	ffff ffff 			; <UNDEFINED> instruction: 0xffffffff
    8910:	ffff ffff 			; <UNDEFINED> instruction: 0xffffffff
    8914:	ffff ffff 			; <UNDEFINED> instruction: 0xffffffff
    8918:	ffff ffff 			; <UNDEFINED> instruction: 0xffffffff
    891c:	ffff ffff 			; <UNDEFINED> instruction: 0xffffffff
    8920:	ffff ffff 			; <UNDEFINED> instruction: 0xffffffff
    8924:	ffff ffff 			; <UNDEFINED> instruction: 0xffffffff
    8928:	ffff ffff 			; <UNDEFINED> instruction: 0xffffffff
    892c:	ffff ffff 			; <UNDEFINED> instruction: 0xffffffff
    8930:	ffff ffff 			; <UNDEFINED> instruction: 0xffffffff
    8934:	ffff ffff 			; <UNDEFINED> instruction: 0xffffffff
    8938:	ffff ffff 			; <UNDEFINED> instruction: 0xffffffff
    893c:	ffff ffff 			; <UNDEFINED> instruction: 0xffffffff
    8940:	ffff ffff 			; <UNDEFINED> instruction: 0xffffffff
    8944:	ffff ffff 			; <UNDEFINED> instruction: 0xffffffff
    8948:	ffff ffff 			; <UNDEFINED> instruction: 0xffffffff
    894c:	ffff ffff 			; <UNDEFINED> instruction: 0xffffffff
    8950:	ffff ffff 			; <UNDEFINED> instruction: 0xffffffff
    8954:	ffff ffff 			; <UNDEFINED> instruction: 0xffffffff
    8958:	ffff ffff 			; <UNDEFINED> instruction: 0xffffffff
    895c:	ffff ffff 			; <UNDEFINED> instruction: 0xffffffff
    8960:	ffff ffff 			; <UNDEFINED> instruction: 0xffffffff
    8964:	ffff ffff 			; <UNDEFINED> instruction: 0xffffffff
    8968:	ffff ffff 			; <UNDEFINED> instruction: 0xffffffff
    896c:	ffff ffff 			; <UNDEFINED> instruction: 0xffffffff
    8970:	ffff ffff 			; <UNDEFINED> instruction: 0xffffffff
    8974:	ffff ffff 			; <UNDEFINED> instruction: 0xffffffff
    8978:	ffff ffff 			; <UNDEFINED> instruction: 0xffffffff
    897c:	ffff ffff 			; <UNDEFINED> instruction: 0xffffffff
    8980:	ffff ffff 			; <UNDEFINED> instruction: 0xffffffff
    8984:	ffff ffff 			; <UNDEFINED> instruction: 0xffffffff
    8988:	ffff ffff 			; <UNDEFINED> instruction: 0xffffffff
    898c:	ffff ffff 			; <UNDEFINED> instruction: 0xffffffff
    8990:	ffff ffff 			; <UNDEFINED> instruction: 0xffffffff
    8994:	ffff ffff 			; <UNDEFINED> instruction: 0xffffffff
    8998:	ffff ffff 			; <UNDEFINED> instruction: 0xffffffff
    899c:	ffff ffff 			; <UNDEFINED> instruction: 0xffffffff
    89a0:	ffff ffff 			; <UNDEFINED> instruction: 0xffffffff
    89a4:	ffff ffff 			; <UNDEFINED> instruction: 0xffffffff
    89a8:	ffff ffff 			; <UNDEFINED> instruction: 0xffffffff
    89ac:	ffff ffff 			; <UNDEFINED> instruction: 0xffffffff
    89b0:	ffff ffff 			; <UNDEFINED> instruction: 0xffffffff
    89b4:	ffff ffff 			; <UNDEFINED> instruction: 0xffffffff
    89b8:	ffff ffff 			; <UNDEFINED> instruction: 0xffffffff
    89bc:	ffff ffff 			; <UNDEFINED> instruction: 0xffffffff
    89c0:	ffff ffff 			; <UNDEFINED> instruction: 0xffffffff
    89c4:	ffff ffff 			; <UNDEFINED> instruction: 0xffffffff
    89c8:	ffff ffff 			; <UNDEFINED> instruction: 0xffffffff
    89cc:	ffff ffff 			; <UNDEFINED> instruction: 0xffffffff
    89d0:	ffff ffff 			; <UNDEFINED> instruction: 0xffffffff
    89d4:	ffff ffff 			; <UNDEFINED> instruction: 0xffffffff
    89d8:	ffff ffff 			; <UNDEFINED> instruction: 0xffffffff
    89dc:	ffff ffff 			; <UNDEFINED> instruction: 0xffffffff
    89e0:	ffff ffff 			; <UNDEFINED> instruction: 0xffffffff
    89e4:	ffff ffff 			; <UNDEFINED> instruction: 0xffffffff
    89e8:	ffff ffff 			; <UNDEFINED> instruction: 0xffffffff
    89ec:	ffff ffff 			; <UNDEFINED> instruction: 0xffffffff
    89f0:	ffff ffff 			; <UNDEFINED> instruction: 0xffffffff
    89f4:	ffff ffff 			; <UNDEFINED> instruction: 0xffffffff
    89f8:	ffff ffff 			; <UNDEFINED> instruction: 0xffffffff
    89fc:	ffff ffff 			; <UNDEFINED> instruction: 0xffffffff
    8a00:	ffff ffff 			; <UNDEFINED> instruction: 0xffffffff
    8a04:	ffff ffff 			; <UNDEFINED> instruction: 0xffffffff
    8a08:	ffff ffff 			; <UNDEFINED> instruction: 0xffffffff
    8a0c:	ffff ffff 			; <UNDEFINED> instruction: 0xffffffff
    8a10:	ffff ffff 			; <UNDEFINED> instruction: 0xffffffff
    8a14:	ffff ffff 			; <UNDEFINED> instruction: 0xffffffff
    8a18:	ffff ffff 			; <UNDEFINED> instruction: 0xffffffff
    8a1c:	ffff ffff 			; <UNDEFINED> instruction: 0xffffffff
    8a20:	ffff ffff 			; <UNDEFINED> instruction: 0xffffffff
    8a24:	ffff ffff 			; <UNDEFINED> instruction: 0xffffffff
    8a28:	ffff ffff 			; <UNDEFINED> instruction: 0xffffffff
    8a2c:	ffff ffff 			; <UNDEFINED> instruction: 0xffffffff
    8a30:	ffff ffff 			; <UNDEFINED> instruction: 0xffffffff
    8a34:	ffff ffff 			; <UNDEFINED> instruction: 0xffffffff
    8a38:	ffff ffff 			; <UNDEFINED> instruction: 0xffffffff
    8a3c:	ffff ffff 			; <UNDEFINED> instruction: 0xffffffff
    8a40:	ffff ffff 			; <UNDEFINED> instruction: 0xffffffff
    8a44:	ffff ffff 			; <UNDEFINED> instruction: 0xffffffff
    8a48:	ffff ffff 			; <UNDEFINED> instruction: 0xffffffff
    8a4c:	ffff ffff 			; <UNDEFINED> instruction: 0xffffffff
    8a50:	ffff ffff 			; <UNDEFINED> instruction: 0xffffffff
    8a54:	ffff ffff 			; <UNDEFINED> instruction: 0xffffffff
    8a58:	ffff ffff 			; <UNDEFINED> instruction: 0xffffffff
    8a5c:	ffff ffff 			; <UNDEFINED> instruction: 0xffffffff
    8a60:	ffff ffff 			; <UNDEFINED> instruction: 0xffffffff
    8a64:	ffff ffff 			; <UNDEFINED> instruction: 0xffffffff
    8a68:	ffff ffff 			; <UNDEFINED> instruction: 0xffffffff
    8a6c:	ffff ffff 			; <UNDEFINED> instruction: 0xffffffff
    8a70:	ffff ffff 			; <UNDEFINED> instruction: 0xffffffff
    8a74:	ffff ffff 			; <UNDEFINED> instruction: 0xffffffff
    8a78:	ffff ffff 			; <UNDEFINED> instruction: 0xffffffff
    8a7c:	ffff ffff 			; <UNDEFINED> instruction: 0xffffffff
    8a80:	ffff ffff 			; <UNDEFINED> instruction: 0xffffffff
    8a84:	ffff ffff 			; <UNDEFINED> instruction: 0xffffffff
    8a88:	ffff ffff 			; <UNDEFINED> instruction: 0xffffffff
    8a8c:	ffff ffff 			; <UNDEFINED> instruction: 0xffffffff
    8a90:	ffff ffff 			; <UNDEFINED> instruction: 0xffffffff
    8a94:	ffff ffff 			; <UNDEFINED> instruction: 0xffffffff
    8a98:	ffff ffff 			; <UNDEFINED> instruction: 0xffffffff
    8a9c:	ffff ffff 			; <UNDEFINED> instruction: 0xffffffff
    8aa0:	ffff ffff 			; <UNDEFINED> instruction: 0xffffffff
    8aa4:	ffff ffff 			; <UNDEFINED> instruction: 0xffffffff
    8aa8:	ffff ffff 			; <UNDEFINED> instruction: 0xffffffff
    8aac:	ffff ffff 			; <UNDEFINED> instruction: 0xffffffff
    8ab0:	ffff ffff 			; <UNDEFINED> instruction: 0xffffffff
    8ab4:	ffff ffff 			; <UNDEFINED> instruction: 0xffffffff
    8ab8:	ffff ffff 			; <UNDEFINED> instruction: 0xffffffff
    8abc:	ffff ffff 			; <UNDEFINED> instruction: 0xffffffff
    8ac0:	ffff ffff 			; <UNDEFINED> instruction: 0xffffffff
    8ac4:	ffff ffff 			; <UNDEFINED> instruction: 0xffffffff
    8ac8:	ffff ffff 			; <UNDEFINED> instruction: 0xffffffff
    8acc:	ffff ffff 			; <UNDEFINED> instruction: 0xffffffff
    8ad0:	ffff ffff 			; <UNDEFINED> instruction: 0xffffffff
    8ad4:	ffff ffff 			; <UNDEFINED> instruction: 0xffffffff
    8ad8:	ffff ffff 			; <UNDEFINED> instruction: 0xffffffff
    8adc:	ffff ffff 			; <UNDEFINED> instruction: 0xffffffff
    8ae0:	ffff ffff 			; <UNDEFINED> instruction: 0xffffffff
    8ae4:	ffff ffff 			; <UNDEFINED> instruction: 0xffffffff
    8ae8:	ffff ffff 			; <UNDEFINED> instruction: 0xffffffff
    8aec:	ffff ffff 			; <UNDEFINED> instruction: 0xffffffff
    8af0:	ffff ffff 			; <UNDEFINED> instruction: 0xffffffff
    8af4:	ffff ffff 			; <UNDEFINED> instruction: 0xffffffff
    8af8:	ffff ffff 			; <UNDEFINED> instruction: 0xffffffff
    8afc:	ffff ffff 			; <UNDEFINED> instruction: 0xffffffff
    8b00:	ffff ffff 			; <UNDEFINED> instruction: 0xffffffff
    8b04:	ffff ffff 			; <UNDEFINED> instruction: 0xffffffff
    8b08:	ffff ffff 			; <UNDEFINED> instruction: 0xffffffff
    8b0c:	ffff ffff 			; <UNDEFINED> instruction: 0xffffffff
    8b10:	ffff ffff 			; <UNDEFINED> instruction: 0xffffffff
    8b14:	ffff ffff 			; <UNDEFINED> instruction: 0xffffffff
    8b18:	ffff ffff 			; <UNDEFINED> instruction: 0xffffffff
    8b1c:	ffff ffff 			; <UNDEFINED> instruction: 0xffffffff
    8b20:	ffff ffff 			; <UNDEFINED> instruction: 0xffffffff
    8b24:	ffff ffff 			; <UNDEFINED> instruction: 0xffffffff
    8b28:	ffff ffff 			; <UNDEFINED> instruction: 0xffffffff
    8b2c:	ffff ffff 			; <UNDEFINED> instruction: 0xffffffff
    8b30:	ffff ffff 			; <UNDEFINED> instruction: 0xffffffff
    8b34:	ffff ffff 			; <UNDEFINED> instruction: 0xffffffff
    8b38:	ffff ffff 			; <UNDEFINED> instruction: 0xffffffff
    8b3c:	ffff ffff 			; <UNDEFINED> instruction: 0xffffffff
    8b40:	ffff ffff 			; <UNDEFINED> instruction: 0xffffffff
    8b44:	ffff ffff 			; <UNDEFINED> instruction: 0xffffffff
    8b48:	ffff ffff 			; <UNDEFINED> instruction: 0xffffffff
    8b4c:	ffff ffff 			; <UNDEFINED> instruction: 0xffffffff
    8b50:	ffff ffff 			; <UNDEFINED> instruction: 0xffffffff
    8b54:	ffff ffff 			; <UNDEFINED> instruction: 0xffffffff
    8b58:	ffff ffff 			; <UNDEFINED> instruction: 0xffffffff
    8b5c:	ffff ffff 			; <UNDEFINED> instruction: 0xffffffff
    8b60:	ffff ffff 			; <UNDEFINED> instruction: 0xffffffff
    8b64:	ffff ffff 			; <UNDEFINED> instruction: 0xffffffff
    8b68:	ffff ffff 			; <UNDEFINED> instruction: 0xffffffff
    8b6c:	ffff ffff 			; <UNDEFINED> instruction: 0xffffffff
    8b70:	ffff ffff 			; <UNDEFINED> instruction: 0xffffffff
    8b74:	ffff ffff 			; <UNDEFINED> instruction: 0xffffffff
    8b78:	ffff ffff 			; <UNDEFINED> instruction: 0xffffffff
    8b7c:	ffff ffff 			; <UNDEFINED> instruction: 0xffffffff
    8b80:	ffff ffff 			; <UNDEFINED> instruction: 0xffffffff
    8b84:	ffff ffff 			; <UNDEFINED> instruction: 0xffffffff
    8b88:	ffff ffff 			; <UNDEFINED> instruction: 0xffffffff
    8b8c:	ffff ffff 			; <UNDEFINED> instruction: 0xffffffff
    8b90:	ffff ffff 			; <UNDEFINED> instruction: 0xffffffff
    8b94:	ffff ffff 			; <UNDEFINED> instruction: 0xffffffff
    8b98:	ffff ffff 			; <UNDEFINED> instruction: 0xffffffff
    8b9c:	ffff ffff 			; <UNDEFINED> instruction: 0xffffffff
    8ba0:	ffff ffff 			; <UNDEFINED> instruction: 0xffffffff
    8ba4:	ffff ffff 			; <UNDEFINED> instruction: 0xffffffff
    8ba8:	ffff ffff 			; <UNDEFINED> instruction: 0xffffffff
    8bac:	ffff ffff 			; <UNDEFINED> instruction: 0xffffffff
    8bb0:	ffff ffff 			; <UNDEFINED> instruction: 0xffffffff
    8bb4:	ffff ffff 			; <UNDEFINED> instruction: 0xffffffff
    8bb8:	ffff ffff 			; <UNDEFINED> instruction: 0xffffffff
    8bbc:	ffff ffff 			; <UNDEFINED> instruction: 0xffffffff
    8bc0:	ffff ffff 			; <UNDEFINED> instruction: 0xffffffff
    8bc4:	ffff ffff 			; <UNDEFINED> instruction: 0xffffffff
    8bc8:	ffff ffff 			; <UNDEFINED> instruction: 0xffffffff
    8bcc:	ffff ffff 			; <UNDEFINED> instruction: 0xffffffff
    8bd0:	ffff ffff 			; <UNDEFINED> instruction: 0xffffffff
    8bd4:	ffff ffff 			; <UNDEFINED> instruction: 0xffffffff
    8bd8:	ffff ffff 			; <UNDEFINED> instruction: 0xffffffff
    8bdc:	ffff ffff 			; <UNDEFINED> instruction: 0xffffffff
    8be0:	ffff ffff 			; <UNDEFINED> instruction: 0xffffffff
    8be4:	ffff ffff 			; <UNDEFINED> instruction: 0xffffffff
    8be8:	ffff ffff 			; <UNDEFINED> instruction: 0xffffffff
    8bec:	ffff ffff 			; <UNDEFINED> instruction: 0xffffffff
    8bf0:	ffff ffff 			; <UNDEFINED> instruction: 0xffffffff
    8bf4:	ffff ffff 			; <UNDEFINED> instruction: 0xffffffff
    8bf8:	ffff ffff 			; <UNDEFINED> instruction: 0xffffffff
    8bfc:	ffff ffff 			; <UNDEFINED> instruction: 0xffffffff
    8c00:	ffff ffff 			; <UNDEFINED> instruction: 0xffffffff
    8c04:	ffff ffff 			; <UNDEFINED> instruction: 0xffffffff
    8c08:	ffff ffff 			; <UNDEFINED> instruction: 0xffffffff
    8c0c:	ffff ffff 			; <UNDEFINED> instruction: 0xffffffff
    8c10:	ffff ffff 			; <UNDEFINED> instruction: 0xffffffff
    8c14:	ffff ffff 			; <UNDEFINED> instruction: 0xffffffff
    8c18:	ffff ffff 			; <UNDEFINED> instruction: 0xffffffff
    8c1c:	ffff ffff 			; <UNDEFINED> instruction: 0xffffffff
    8c20:	ffff ffff 			; <UNDEFINED> instruction: 0xffffffff
    8c24:	ffff ffff 			; <UNDEFINED> instruction: 0xffffffff
    8c28:	ffff ffff 			; <UNDEFINED> instruction: 0xffffffff
    8c2c:	ffff ffff 			; <UNDEFINED> instruction: 0xffffffff
    8c30:	ffff ffff 			; <UNDEFINED> instruction: 0xffffffff
    8c34:	ffff ffff 			; <UNDEFINED> instruction: 0xffffffff
    8c38:	ffff ffff 			; <UNDEFINED> instruction: 0xffffffff
    8c3c:	ffff ffff 			; <UNDEFINED> instruction: 0xffffffff
    8c40:	ffff ffff 			; <UNDEFINED> instruction: 0xffffffff
    8c44:	ffff ffff 			; <UNDEFINED> instruction: 0xffffffff
    8c48:	ffff ffff 			; <UNDEFINED> instruction: 0xffffffff
    8c4c:	ffff ffff 			; <UNDEFINED> instruction: 0xffffffff
    8c50:	ffff ffff 			; <UNDEFINED> instruction: 0xffffffff
    8c54:	ffff ffff 			; <UNDEFINED> instruction: 0xffffffff
    8c58:	ffff ffff 			; <UNDEFINED> instruction: 0xffffffff
    8c5c:	ffff ffff 			; <UNDEFINED> instruction: 0xffffffff
    8c60:	ffff ffff 			; <UNDEFINED> instruction: 0xffffffff
    8c64:	ffff ffff 			; <UNDEFINED> instruction: 0xffffffff
    8c68:	ffff ffff 			; <UNDEFINED> instruction: 0xffffffff
    8c6c:	ffff ffff 			; <UNDEFINED> instruction: 0xffffffff
    8c70:	ffff ffff 			; <UNDEFINED> instruction: 0xffffffff
    8c74:	ffff ffff 			; <UNDEFINED> instruction: 0xffffffff
    8c78:	ffff ffff 			; <UNDEFINED> instruction: 0xffffffff
    8c7c:	ffff ffff 			; <UNDEFINED> instruction: 0xffffffff
    8c80:	ffff ffff 			; <UNDEFINED> instruction: 0xffffffff
    8c84:	ffff ffff 			; <UNDEFINED> instruction: 0xffffffff
    8c88:	ffff ffff 			; <UNDEFINED> instruction: 0xffffffff
    8c8c:	ffff ffff 			; <UNDEFINED> instruction: 0xffffffff
    8c90:	ffff ffff 			; <UNDEFINED> instruction: 0xffffffff
    8c94:	ffff ffff 			; <UNDEFINED> instruction: 0xffffffff
    8c98:	ffff ffff 			; <UNDEFINED> instruction: 0xffffffff
    8c9c:	ffff ffff 			; <UNDEFINED> instruction: 0xffffffff
    8ca0:	ffff ffff 			; <UNDEFINED> instruction: 0xffffffff
    8ca4:	ffff ffff 			; <UNDEFINED> instruction: 0xffffffff
    8ca8:	ffff ffff 			; <UNDEFINED> instruction: 0xffffffff
    8cac:	ffff ffff 			; <UNDEFINED> instruction: 0xffffffff
    8cb0:	ffff ffff 			; <UNDEFINED> instruction: 0xffffffff
    8cb4:	ffff ffff 			; <UNDEFINED> instruction: 0xffffffff
    8cb8:	ffff ffff 			; <UNDEFINED> instruction: 0xffffffff
    8cbc:	ffff ffff 			; <UNDEFINED> instruction: 0xffffffff
    8cc0:	ffff ffff 			; <UNDEFINED> instruction: 0xffffffff
    8cc4:	ffff ffff 			; <UNDEFINED> instruction: 0xffffffff
    8cc8:	ffff ffff 			; <UNDEFINED> instruction: 0xffffffff
    8ccc:	ffff ffff 			; <UNDEFINED> instruction: 0xffffffff
    8cd0:	ffff ffff 			; <UNDEFINED> instruction: 0xffffffff
    8cd4:	ffff ffff 			; <UNDEFINED> instruction: 0xffffffff
    8cd8:	ffff ffff 			; <UNDEFINED> instruction: 0xffffffff
    8cdc:	ffff ffff 			; <UNDEFINED> instruction: 0xffffffff
    8ce0:	ffff ffff 			; <UNDEFINED> instruction: 0xffffffff
    8ce4:	ffff ffff 			; <UNDEFINED> instruction: 0xffffffff
    8ce8:	ffff ffff 			; <UNDEFINED> instruction: 0xffffffff
    8cec:	ffff ffff 			; <UNDEFINED> instruction: 0xffffffff
    8cf0:	ffff ffff 			; <UNDEFINED> instruction: 0xffffffff
    8cf4:	ffff ffff 			; <UNDEFINED> instruction: 0xffffffff
    8cf8:	ffff ffff 			; <UNDEFINED> instruction: 0xffffffff
    8cfc:	ffff ffff 			; <UNDEFINED> instruction: 0xffffffff
    8d00:	ffff ffff 			; <UNDEFINED> instruction: 0xffffffff
    8d04:	ffff ffff 			; <UNDEFINED> instruction: 0xffffffff
    8d08:	ffff ffff 			; <UNDEFINED> instruction: 0xffffffff
    8d0c:	ffff ffff 			; <UNDEFINED> instruction: 0xffffffff
    8d10:	ffff ffff 			; <UNDEFINED> instruction: 0xffffffff
    8d14:	ffff ffff 			; <UNDEFINED> instruction: 0xffffffff
    8d18:	ffff ffff 			; <UNDEFINED> instruction: 0xffffffff
    8d1c:	ffff ffff 			; <UNDEFINED> instruction: 0xffffffff
    8d20:	ffff ffff 			; <UNDEFINED> instruction: 0xffffffff
    8d24:	ffff ffff 			; <UNDEFINED> instruction: 0xffffffff
    8d28:	ffff ffff 			; <UNDEFINED> instruction: 0xffffffff
    8d2c:	ffff ffff 			; <UNDEFINED> instruction: 0xffffffff
    8d30:	ffff ffff 			; <UNDEFINED> instruction: 0xffffffff
    8d34:	ffff ffff 			; <UNDEFINED> instruction: 0xffffffff
    8d38:	ffff ffff 			; <UNDEFINED> instruction: 0xffffffff
    8d3c:	ffff ffff 			; <UNDEFINED> instruction: 0xffffffff
    8d40:	ffff ffff 			; <UNDEFINED> instruction: 0xffffffff
    8d44:	ffff ffff 			; <UNDEFINED> instruction: 0xffffffff
    8d48:	ffff ffff 			; <UNDEFINED> instruction: 0xffffffff
    8d4c:	ffff ffff 			; <UNDEFINED> instruction: 0xffffffff
    8d50:	ffff ffff 			; <UNDEFINED> instruction: 0xffffffff
    8d54:	ffff ffff 			; <UNDEFINED> instruction: 0xffffffff
    8d58:	ffff ffff 			; <UNDEFINED> instruction: 0xffffffff
    8d5c:	ffff ffff 			; <UNDEFINED> instruction: 0xffffffff
    8d60:	ffff ffff 			; <UNDEFINED> instruction: 0xffffffff
    8d64:	ffff ffff 			; <UNDEFINED> instruction: 0xffffffff
    8d68:	ffff ffff 			; <UNDEFINED> instruction: 0xffffffff
    8d6c:	ffff ffff 			; <UNDEFINED> instruction: 0xffffffff
    8d70:	ffff ffff 			; <UNDEFINED> instruction: 0xffffffff
    8d74:	ffff ffff 			; <UNDEFINED> instruction: 0xffffffff
    8d78:	ffff ffff 			; <UNDEFINED> instruction: 0xffffffff
    8d7c:	ffff ffff 			; <UNDEFINED> instruction: 0xffffffff
    8d80:	ffff ffff 			; <UNDEFINED> instruction: 0xffffffff
    8d84:	ffff ffff 			; <UNDEFINED> instruction: 0xffffffff
    8d88:	ffff ffff 			; <UNDEFINED> instruction: 0xffffffff
    8d8c:	ffff ffff 			; <UNDEFINED> instruction: 0xffffffff
    8d90:	ffff ffff 			; <UNDEFINED> instruction: 0xffffffff
    8d94:	ffff ffff 			; <UNDEFINED> instruction: 0xffffffff
    8d98:	ffff ffff 			; <UNDEFINED> instruction: 0xffffffff
    8d9c:	ffff ffff 			; <UNDEFINED> instruction: 0xffffffff
    8da0:	ffff ffff 			; <UNDEFINED> instruction: 0xffffffff
    8da4:	ffff ffff 			; <UNDEFINED> instruction: 0xffffffff
    8da8:	ffff ffff 			; <UNDEFINED> instruction: 0xffffffff
    8dac:	ffff ffff 			; <UNDEFINED> instruction: 0xffffffff
    8db0:	ffff ffff 			; <UNDEFINED> instruction: 0xffffffff
    8db4:	ffff ffff 			; <UNDEFINED> instruction: 0xffffffff
    8db8:	ffff ffff 			; <UNDEFINED> instruction: 0xffffffff
    8dbc:	ffff ffff 			; <UNDEFINED> instruction: 0xffffffff
    8dc0:	ffff ffff 			; <UNDEFINED> instruction: 0xffffffff
    8dc4:	ffff ffff 			; <UNDEFINED> instruction: 0xffffffff
    8dc8:	ffff ffff 			; <UNDEFINED> instruction: 0xffffffff
    8dcc:	ffff ffff 			; <UNDEFINED> instruction: 0xffffffff
    8dd0:	ffff ffff 			; <UNDEFINED> instruction: 0xffffffff
    8dd4:	ffff ffff 			; <UNDEFINED> instruction: 0xffffffff
    8dd8:	ffff ffff 			; <UNDEFINED> instruction: 0xffffffff
    8ddc:	ffff ffff 			; <UNDEFINED> instruction: 0xffffffff
    8de0:	ffff ffff 			; <UNDEFINED> instruction: 0xffffffff
    8de4:	ffff ffff 			; <UNDEFINED> instruction: 0xffffffff
    8de8:	ffff ffff 			; <UNDEFINED> instruction: 0xffffffff
    8dec:	ffff ffff 			; <UNDEFINED> instruction: 0xffffffff
    8df0:	ffff ffff 			; <UNDEFINED> instruction: 0xffffffff
    8df4:	ffff ffff 			; <UNDEFINED> instruction: 0xffffffff
    8df8:	ffff ffff 			; <UNDEFINED> instruction: 0xffffffff
    8dfc:	ffff ffff 			; <UNDEFINED> instruction: 0xffffffff
    8e00:	ffff ffff 			; <UNDEFINED> instruction: 0xffffffff
    8e04:	ffff ffff 			; <UNDEFINED> instruction: 0xffffffff
    8e08:	ffff ffff 			; <UNDEFINED> instruction: 0xffffffff
    8e0c:	ffff ffff 			; <UNDEFINED> instruction: 0xffffffff
    8e10:	ffff ffff 			; <UNDEFINED> instruction: 0xffffffff
    8e14:	ffff ffff 			; <UNDEFINED> instruction: 0xffffffff
    8e18:	ffff ffff 			; <UNDEFINED> instruction: 0xffffffff
    8e1c:	ffff ffff 			; <UNDEFINED> instruction: 0xffffffff
    8e20:	ffff ffff 			; <UNDEFINED> instruction: 0xffffffff
    8e24:	ffff ffff 			; <UNDEFINED> instruction: 0xffffffff
    8e28:	ffff ffff 			; <UNDEFINED> instruction: 0xffffffff
    8e2c:	ffff ffff 			; <UNDEFINED> instruction: 0xffffffff
    8e30:	ffff ffff 			; <UNDEFINED> instruction: 0xffffffff
    8e34:	ffff ffff 			; <UNDEFINED> instruction: 0xffffffff
    8e38:	ffff ffff 			; <UNDEFINED> instruction: 0xffffffff
    8e3c:	ffff ffff 			; <UNDEFINED> instruction: 0xffffffff
    8e40:	ffff ffff 			; <UNDEFINED> instruction: 0xffffffff
    8e44:	ffff ffff 			; <UNDEFINED> instruction: 0xffffffff
    8e48:	ffff ffff 			; <UNDEFINED> instruction: 0xffffffff
    8e4c:	ffff ffff 			; <UNDEFINED> instruction: 0xffffffff
    8e50:	ffff ffff 			; <UNDEFINED> instruction: 0xffffffff
    8e54:	ffff ffff 			; <UNDEFINED> instruction: 0xffffffff
    8e58:	ffff ffff 			; <UNDEFINED> instruction: 0xffffffff
    8e5c:	ffff ffff 			; <UNDEFINED> instruction: 0xffffffff
    8e60:	ffff ffff 			; <UNDEFINED> instruction: 0xffffffff
    8e64:	ffff ffff 			; <UNDEFINED> instruction: 0xffffffff
    8e68:	ffff ffff 			; <UNDEFINED> instruction: 0xffffffff
    8e6c:	ffff ffff 			; <UNDEFINED> instruction: 0xffffffff
    8e70:	ffff ffff 			; <UNDEFINED> instruction: 0xffffffff
    8e74:	ffff ffff 			; <UNDEFINED> instruction: 0xffffffff
    8e78:	ffff ffff 			; <UNDEFINED> instruction: 0xffffffff
    8e7c:	ffff ffff 			; <UNDEFINED> instruction: 0xffffffff
    8e80:	ffff ffff 			; <UNDEFINED> instruction: 0xffffffff
    8e84:	ffff ffff 			; <UNDEFINED> instruction: 0xffffffff
    8e88:	ffff ffff 			; <UNDEFINED> instruction: 0xffffffff
    8e8c:	ffff ffff 			; <UNDEFINED> instruction: 0xffffffff
    8e90:	ffff ffff 			; <UNDEFINED> instruction: 0xffffffff
    8e94:	ffff ffff 			; <UNDEFINED> instruction: 0xffffffff
    8e98:	ffff ffff 			; <UNDEFINED> instruction: 0xffffffff
    8e9c:	ffff ffff 			; <UNDEFINED> instruction: 0xffffffff
    8ea0:	ffff ffff 			; <UNDEFINED> instruction: 0xffffffff
    8ea4:	ffff ffff 			; <UNDEFINED> instruction: 0xffffffff
    8ea8:	ffff ffff 			; <UNDEFINED> instruction: 0xffffffff
    8eac:	ffff ffff 			; <UNDEFINED> instruction: 0xffffffff
    8eb0:	ffff ffff 			; <UNDEFINED> instruction: 0xffffffff
    8eb4:	ffff ffff 			; <UNDEFINED> instruction: 0xffffffff
    8eb8:	ffff ffff 			; <UNDEFINED> instruction: 0xffffffff
    8ebc:	ffff ffff 			; <UNDEFINED> instruction: 0xffffffff
    8ec0:	ffff ffff 			; <UNDEFINED> instruction: 0xffffffff
    8ec4:	ffff ffff 			; <UNDEFINED> instruction: 0xffffffff
    8ec8:	ffff ffff 			; <UNDEFINED> instruction: 0xffffffff
    8ecc:	ffff ffff 			; <UNDEFINED> instruction: 0xffffffff
    8ed0:	ffff ffff 			; <UNDEFINED> instruction: 0xffffffff
    8ed4:	ffff ffff 			; <UNDEFINED> instruction: 0xffffffff
    8ed8:	ffff ffff 			; <UNDEFINED> instruction: 0xffffffff
    8edc:	ffff ffff 			; <UNDEFINED> instruction: 0xffffffff
    8ee0:	ffff ffff 			; <UNDEFINED> instruction: 0xffffffff
    8ee4:	ffff ffff 			; <UNDEFINED> instruction: 0xffffffff
    8ee8:	ffff ffff 			; <UNDEFINED> instruction: 0xffffffff
    8eec:	ffff ffff 			; <UNDEFINED> instruction: 0xffffffff
    8ef0:	ffff ffff 			; <UNDEFINED> instruction: 0xffffffff
    8ef4:	ffff ffff 			; <UNDEFINED> instruction: 0xffffffff
    8ef8:	ffff ffff 			; <UNDEFINED> instruction: 0xffffffff
    8efc:	ffff ffff 			; <UNDEFINED> instruction: 0xffffffff
    8f00:	ffff ffff 			; <UNDEFINED> instruction: 0xffffffff
    8f04:	ffff ffff 			; <UNDEFINED> instruction: 0xffffffff
    8f08:	ffff ffff 			; <UNDEFINED> instruction: 0xffffffff
    8f0c:	ffff ffff 			; <UNDEFINED> instruction: 0xffffffff
    8f10:	ffff ffff 			; <UNDEFINED> instruction: 0xffffffff
    8f14:	ffff ffff 			; <UNDEFINED> instruction: 0xffffffff
    8f18:	ffff ffff 			; <UNDEFINED> instruction: 0xffffffff
    8f1c:	ffff ffff 			; <UNDEFINED> instruction: 0xffffffff
    8f20:	ffff ffff 			; <UNDEFINED> instruction: 0xffffffff
    8f24:	ffff ffff 			; <UNDEFINED> instruction: 0xffffffff
    8f28:	ffff ffff 			; <UNDEFINED> instruction: 0xffffffff
    8f2c:	ffff ffff 			; <UNDEFINED> instruction: 0xffffffff
    8f30:	ffff ffff 			; <UNDEFINED> instruction: 0xffffffff
    8f34:	ffff ffff 			; <UNDEFINED> instruction: 0xffffffff
    8f38:	ffff ffff 			; <UNDEFINED> instruction: 0xffffffff
    8f3c:	ffff ffff 			; <UNDEFINED> instruction: 0xffffffff
    8f40:	ffff ffff 			; <UNDEFINED> instruction: 0xffffffff
    8f44:	ffff ffff 			; <UNDEFINED> instruction: 0xffffffff
    8f48:	ffff ffff 			; <UNDEFINED> instruction: 0xffffffff
    8f4c:	ffff ffff 			; <UNDEFINED> instruction: 0xffffffff
    8f50:	ffff ffff 			; <UNDEFINED> instruction: 0xffffffff
    8f54:	ffff ffff 			; <UNDEFINED> instruction: 0xffffffff
    8f58:	ffff ffff 			; <UNDEFINED> instruction: 0xffffffff
    8f5c:	ffff ffff 			; <UNDEFINED> instruction: 0xffffffff
    8f60:	ffff ffff 			; <UNDEFINED> instruction: 0xffffffff
    8f64:	ffff ffff 			; <UNDEFINED> instruction: 0xffffffff
    8f68:	ffff ffff 			; <UNDEFINED> instruction: 0xffffffff
    8f6c:	ffff ffff 			; <UNDEFINED> instruction: 0xffffffff
    8f70:	ffff ffff 			; <UNDEFINED> instruction: 0xffffffff
    8f74:	ffff ffff 			; <UNDEFINED> instruction: 0xffffffff
    8f78:	ffff ffff 			; <UNDEFINED> instruction: 0xffffffff
    8f7c:	ffff ffff 			; <UNDEFINED> instruction: 0xffffffff
    8f80:	ffff ffff 			; <UNDEFINED> instruction: 0xffffffff
    8f84:	ffff ffff 			; <UNDEFINED> instruction: 0xffffffff
    8f88:	ffff ffff 			; <UNDEFINED> instruction: 0xffffffff
    8f8c:	ffff ffff 			; <UNDEFINED> instruction: 0xffffffff
    8f90:	ffff ffff 			; <UNDEFINED> instruction: 0xffffffff
    8f94:	ffff ffff 			; <UNDEFINED> instruction: 0xffffffff
    8f98:	ffff ffff 			; <UNDEFINED> instruction: 0xffffffff
    8f9c:	ffff ffff 			; <UNDEFINED> instruction: 0xffffffff
    8fa0:	ffff ffff 			; <UNDEFINED> instruction: 0xffffffff
    8fa4:	ffff ffff 			; <UNDEFINED> instruction: 0xffffffff
    8fa8:	ffff ffff 			; <UNDEFINED> instruction: 0xffffffff
    8fac:	ffff ffff 			; <UNDEFINED> instruction: 0xffffffff
    8fb0:	ffff ffff 			; <UNDEFINED> instruction: 0xffffffff
    8fb4:	ffff ffff 			; <UNDEFINED> instruction: 0xffffffff
    8fb8:	ffff ffff 			; <UNDEFINED> instruction: 0xffffffff
    8fbc:	ffff ffff 			; <UNDEFINED> instruction: 0xffffffff
    8fc0:	ffff ffff 			; <UNDEFINED> instruction: 0xffffffff
    8fc4:	ffff ffff 			; <UNDEFINED> instruction: 0xffffffff
    8fc8:	ffff ffff 			; <UNDEFINED> instruction: 0xffffffff
    8fcc:	ffff ffff 			; <UNDEFINED> instruction: 0xffffffff
    8fd0:	ffff ffff 			; <UNDEFINED> instruction: 0xffffffff
    8fd4:	ffff ffff 			; <UNDEFINED> instruction: 0xffffffff
    8fd8:	ffff ffff 			; <UNDEFINED> instruction: 0xffffffff
    8fdc:	ffff ffff 			; <UNDEFINED> instruction: 0xffffffff
    8fe0:	ffff ffff 			; <UNDEFINED> instruction: 0xffffffff
    8fe4:	ffff ffff 			; <UNDEFINED> instruction: 0xffffffff
    8fe8:	ffff ffff 			; <UNDEFINED> instruction: 0xffffffff
    8fec:	ffff ffff 			; <UNDEFINED> instruction: 0xffffffff
    8ff0:	ffff ffff 			; <UNDEFINED> instruction: 0xffffffff
    8ff4:	ffff ffff 			; <UNDEFINED> instruction: 0xffffffff
    8ff8:	ffff ffff 			; <UNDEFINED> instruction: 0xffffffff
    8ffc:	ffff ffff 			; <UNDEFINED> instruction: 0xffffffff
    9000:	ffff ffff 			; <UNDEFINED> instruction: 0xffffffff
    9004:	ffff ffff 			; <UNDEFINED> instruction: 0xffffffff
    9008:	ffff ffff 			; <UNDEFINED> instruction: 0xffffffff
    900c:	ffff ffff 			; <UNDEFINED> instruction: 0xffffffff
    9010:	ffff ffff 			; <UNDEFINED> instruction: 0xffffffff
    9014:	ffff ffff 			; <UNDEFINED> instruction: 0xffffffff
    9018:	ffff ffff 			; <UNDEFINED> instruction: 0xffffffff
    901c:	ffff ffff 			; <UNDEFINED> instruction: 0xffffffff
    9020:	ffff ffff 			; <UNDEFINED> instruction: 0xffffffff
    9024:	ffff ffff 			; <UNDEFINED> instruction: 0xffffffff
    9028:	ffff ffff 			; <UNDEFINED> instruction: 0xffffffff
    902c:	ffff ffff 			; <UNDEFINED> instruction: 0xffffffff
    9030:	ffff ffff 			; <UNDEFINED> instruction: 0xffffffff
    9034:	ffff ffff 			; <UNDEFINED> instruction: 0xffffffff
    9038:	ffff ffff 			; <UNDEFINED> instruction: 0xffffffff
    903c:	ffff ffff 			; <UNDEFINED> instruction: 0xffffffff
    9040:	ffff ffff 			; <UNDEFINED> instruction: 0xffffffff
    9044:	ffff ffff 			; <UNDEFINED> instruction: 0xffffffff
    9048:	ffff ffff 			; <UNDEFINED> instruction: 0xffffffff
    904c:	ffff ffff 			; <UNDEFINED> instruction: 0xffffffff
    9050:	ffff ffff 			; <UNDEFINED> instruction: 0xffffffff
    9054:	ffff ffff 			; <UNDEFINED> instruction: 0xffffffff
    9058:	ffff ffff 			; <UNDEFINED> instruction: 0xffffffff
    905c:	ffff ffff 			; <UNDEFINED> instruction: 0xffffffff
    9060:	ffff ffff 			; <UNDEFINED> instruction: 0xffffffff
    9064:	ffff ffff 			; <UNDEFINED> instruction: 0xffffffff
    9068:	ffff ffff 			; <UNDEFINED> instruction: 0xffffffff
    906c:	ffff ffff 			; <UNDEFINED> instruction: 0xffffffff
    9070:	ffff ffff 			; <UNDEFINED> instruction: 0xffffffff
    9074:	ffff ffff 			; <UNDEFINED> instruction: 0xffffffff
    9078:	ffff ffff 			; <UNDEFINED> instruction: 0xffffffff
    907c:	ffff ffff 			; <UNDEFINED> instruction: 0xffffffff
    9080:	ffff ffff 			; <UNDEFINED> instruction: 0xffffffff
    9084:	ffff ffff 			; <UNDEFINED> instruction: 0xffffffff
    9088:	ffff ffff 			; <UNDEFINED> instruction: 0xffffffff
    908c:	ffff ffff 			; <UNDEFINED> instruction: 0xffffffff
    9090:	ffff ffff 			; <UNDEFINED> instruction: 0xffffffff
    9094:	ffff ffff 			; <UNDEFINED> instruction: 0xffffffff
    9098:	ffff ffff 			; <UNDEFINED> instruction: 0xffffffff
    909c:	ffff ffff 			; <UNDEFINED> instruction: 0xffffffff
    90a0:	ffff ffff 			; <UNDEFINED> instruction: 0xffffffff
    90a4:	ffff ffff 			; <UNDEFINED> instruction: 0xffffffff
    90a8:	ffff ffff 			; <UNDEFINED> instruction: 0xffffffff
    90ac:	ffff ffff 			; <UNDEFINED> instruction: 0xffffffff
    90b0:	ffff ffff 			; <UNDEFINED> instruction: 0xffffffff
    90b4:	ffff ffff 			; <UNDEFINED> instruction: 0xffffffff
    90b8:	ffff ffff 			; <UNDEFINED> instruction: 0xffffffff
    90bc:	ffff ffff 			; <UNDEFINED> instruction: 0xffffffff
    90c0:	ffff ffff 			; <UNDEFINED> instruction: 0xffffffff
    90c4:	ffff ffff 			; <UNDEFINED> instruction: 0xffffffff
    90c8:	ffff ffff 			; <UNDEFINED> instruction: 0xffffffff
    90cc:	ffff ffff 			; <UNDEFINED> instruction: 0xffffffff
    90d0:	ffff ffff 			; <UNDEFINED> instruction: 0xffffffff
    90d4:	ffff ffff 			; <UNDEFINED> instruction: 0xffffffff
    90d8:	ffff ffff 			; <UNDEFINED> instruction: 0xffffffff
    90dc:	ffff ffff 			; <UNDEFINED> instruction: 0xffffffff
    90e0:	ffff ffff 			; <UNDEFINED> instruction: 0xffffffff
    90e4:	ffff ffff 			; <UNDEFINED> instruction: 0xffffffff
    90e8:	ffff ffff 			; <UNDEFINED> instruction: 0xffffffff
    90ec:	ffff ffff 			; <UNDEFINED> instruction: 0xffffffff
    90f0:	ffff ffff 			; <UNDEFINED> instruction: 0xffffffff
    90f4:	ffff ffff 			; <UNDEFINED> instruction: 0xffffffff
    90f8:	ffff ffff 			; <UNDEFINED> instruction: 0xffffffff
    90fc:	ffff ffff 			; <UNDEFINED> instruction: 0xffffffff
    9100:	ffff ffff 			; <UNDEFINED> instruction: 0xffffffff
    9104:	ffff ffff 			; <UNDEFINED> instruction: 0xffffffff
    9108:	ffff ffff 			; <UNDEFINED> instruction: 0xffffffff
    910c:	ffff ffff 			; <UNDEFINED> instruction: 0xffffffff
    9110:	ffff ffff 			; <UNDEFINED> instruction: 0xffffffff
    9114:	ffff ffff 			; <UNDEFINED> instruction: 0xffffffff
    9118:	ffff ffff 			; <UNDEFINED> instruction: 0xffffffff
    911c:	ffff ffff 			; <UNDEFINED> instruction: 0xffffffff
    9120:	ffff ffff 			; <UNDEFINED> instruction: 0xffffffff
    9124:	ffff ffff 			; <UNDEFINED> instruction: 0xffffffff
    9128:	ffff ffff 			; <UNDEFINED> instruction: 0xffffffff
    912c:	ffff ffff 			; <UNDEFINED> instruction: 0xffffffff
    9130:	ffff ffff 			; <UNDEFINED> instruction: 0xffffffff
    9134:	ffff ffff 			; <UNDEFINED> instruction: 0xffffffff
    9138:	ffff ffff 			; <UNDEFINED> instruction: 0xffffffff
    913c:	ffff ffff 			; <UNDEFINED> instruction: 0xffffffff
    9140:	ffff ffff 			; <UNDEFINED> instruction: 0xffffffff
    9144:	ffff ffff 			; <UNDEFINED> instruction: 0xffffffff
    9148:	ffff ffff 			; <UNDEFINED> instruction: 0xffffffff
    914c:	ffff ffff 			; <UNDEFINED> instruction: 0xffffffff
    9150:	ffff ffff 			; <UNDEFINED> instruction: 0xffffffff
    9154:	ffff ffff 			; <UNDEFINED> instruction: 0xffffffff
    9158:	ffff ffff 			; <UNDEFINED> instruction: 0xffffffff
    915c:	ffff ffff 			; <UNDEFINED> instruction: 0xffffffff
    9160:	ffff ffff 			; <UNDEFINED> instruction: 0xffffffff
    9164:	ffff ffff 			; <UNDEFINED> instruction: 0xffffffff
    9168:	ffff ffff 			; <UNDEFINED> instruction: 0xffffffff
    916c:	ffff ffff 			; <UNDEFINED> instruction: 0xffffffff
    9170:	ffff ffff 			; <UNDEFINED> instruction: 0xffffffff
    9174:	ffff ffff 			; <UNDEFINED> instruction: 0xffffffff
    9178:	ffff ffff 			; <UNDEFINED> instruction: 0xffffffff
    917c:	ffff ffff 			; <UNDEFINED> instruction: 0xffffffff
    9180:	ffff ffff 			; <UNDEFINED> instruction: 0xffffffff
    9184:	ffff ffff 			; <UNDEFINED> instruction: 0xffffffff
    9188:	ffff ffff 			; <UNDEFINED> instruction: 0xffffffff
    918c:	ffff ffff 			; <UNDEFINED> instruction: 0xffffffff
    9190:	ffff ffff 			; <UNDEFINED> instruction: 0xffffffff
    9194:	ffff ffff 			; <UNDEFINED> instruction: 0xffffffff
    9198:	ffff ffff 			; <UNDEFINED> instruction: 0xffffffff
    919c:	ffff ffff 			; <UNDEFINED> instruction: 0xffffffff
    91a0:	ffff ffff 			; <UNDEFINED> instruction: 0xffffffff
    91a4:	ffff ffff 			; <UNDEFINED> instruction: 0xffffffff
    91a8:	ffff ffff 			; <UNDEFINED> instruction: 0xffffffff
    91ac:	ffff ffff 			; <UNDEFINED> instruction: 0xffffffff
    91b0:	ffff ffff 			; <UNDEFINED> instruction: 0xffffffff
    91b4:	ffff ffff 			; <UNDEFINED> instruction: 0xffffffff
    91b8:	ffff ffff 			; <UNDEFINED> instruction: 0xffffffff
    91bc:	ffff ffff 			; <UNDEFINED> instruction: 0xffffffff
    91c0:	ffff ffff 			; <UNDEFINED> instruction: 0xffffffff
    91c4:	ffff ffff 			; <UNDEFINED> instruction: 0xffffffff
    91c8:	ffff ffff 			; <UNDEFINED> instruction: 0xffffffff
    91cc:	ffff ffff 			; <UNDEFINED> instruction: 0xffffffff
    91d0:	ffff ffff 			; <UNDEFINED> instruction: 0xffffffff
    91d4:	ffff ffff 			; <UNDEFINED> instruction: 0xffffffff
    91d8:	ffff ffff 			; <UNDEFINED> instruction: 0xffffffff
    91dc:	ffff ffff 			; <UNDEFINED> instruction: 0xffffffff
    91e0:	ffff ffff 			; <UNDEFINED> instruction: 0xffffffff
    91e4:	ffff ffff 			; <UNDEFINED> instruction: 0xffffffff
    91e8:	ffff ffff 			; <UNDEFINED> instruction: 0xffffffff
    91ec:	ffff ffff 			; <UNDEFINED> instruction: 0xffffffff
    91f0:	ffff ffff 			; <UNDEFINED> instruction: 0xffffffff
    91f4:	ffff ffff 			; <UNDEFINED> instruction: 0xffffffff
    91f8:	ffff ffff 			; <UNDEFINED> instruction: 0xffffffff
    91fc:	ffff ffff 			; <UNDEFINED> instruction: 0xffffffff
    9200:	ffff ffff 			; <UNDEFINED> instruction: 0xffffffff
    9204:	ffff ffff 			; <UNDEFINED> instruction: 0xffffffff
    9208:	ffff ffff 			; <UNDEFINED> instruction: 0xffffffff
    920c:	ffff ffff 			; <UNDEFINED> instruction: 0xffffffff
    9210:	ffff ffff 			; <UNDEFINED> instruction: 0xffffffff
    9214:	ffff ffff 			; <UNDEFINED> instruction: 0xffffffff
    9218:	ffff ffff 			; <UNDEFINED> instruction: 0xffffffff
    921c:	ffff ffff 			; <UNDEFINED> instruction: 0xffffffff
    9220:	ffff ffff 			; <UNDEFINED> instruction: 0xffffffff
    9224:	ffff ffff 			; <UNDEFINED> instruction: 0xffffffff
    9228:	ffff ffff 			; <UNDEFINED> instruction: 0xffffffff
    922c:	ffff ffff 			; <UNDEFINED> instruction: 0xffffffff
    9230:	ffff ffff 			; <UNDEFINED> instruction: 0xffffffff
    9234:	ffff ffff 			; <UNDEFINED> instruction: 0xffffffff
    9238:	ffff ffff 			; <UNDEFINED> instruction: 0xffffffff
    923c:	ffff ffff 			; <UNDEFINED> instruction: 0xffffffff
    9240:	ffff ffff 			; <UNDEFINED> instruction: 0xffffffff
    9244:	ffff ffff 			; <UNDEFINED> instruction: 0xffffffff
    9248:	ffff ffff 			; <UNDEFINED> instruction: 0xffffffff
    924c:	ffff ffff 			; <UNDEFINED> instruction: 0xffffffff
    9250:	ffff ffff 			; <UNDEFINED> instruction: 0xffffffff
    9254:	ffff ffff 			; <UNDEFINED> instruction: 0xffffffff
    9258:	ffff ffff 			; <UNDEFINED> instruction: 0xffffffff
    925c:	ffff ffff 			; <UNDEFINED> instruction: 0xffffffff
    9260:	ffff ffff 			; <UNDEFINED> instruction: 0xffffffff
    9264:	ffff ffff 			; <UNDEFINED> instruction: 0xffffffff
    9268:	ffff ffff 			; <UNDEFINED> instruction: 0xffffffff
    926c:	ffff ffff 			; <UNDEFINED> instruction: 0xffffffff
    9270:	ffff ffff 			; <UNDEFINED> instruction: 0xffffffff
    9274:	ffff ffff 			; <UNDEFINED> instruction: 0xffffffff
    9278:	ffff ffff 			; <UNDEFINED> instruction: 0xffffffff
    927c:	ffff ffff 			; <UNDEFINED> instruction: 0xffffffff
    9280:	ffff ffff 			; <UNDEFINED> instruction: 0xffffffff
    9284:	ffff ffff 			; <UNDEFINED> instruction: 0xffffffff
    9288:	ffff ffff 			; <UNDEFINED> instruction: 0xffffffff
    928c:	ffff ffff 			; <UNDEFINED> instruction: 0xffffffff
    9290:	ffff ffff 			; <UNDEFINED> instruction: 0xffffffff
    9294:	ffff ffff 			; <UNDEFINED> instruction: 0xffffffff
    9298:	ffff ffff 			; <UNDEFINED> instruction: 0xffffffff
    929c:	ffff ffff 			; <UNDEFINED> instruction: 0xffffffff
    92a0:	ffff ffff 			; <UNDEFINED> instruction: 0xffffffff
    92a4:	ffff ffff 			; <UNDEFINED> instruction: 0xffffffff
    92a8:	ffff ffff 			; <UNDEFINED> instruction: 0xffffffff
    92ac:	ffff ffff 			; <UNDEFINED> instruction: 0xffffffff
    92b0:	ffff ffff 			; <UNDEFINED> instruction: 0xffffffff
    92b4:	ffff ffff 			; <UNDEFINED> instruction: 0xffffffff
    92b8:	ffff ffff 			; <UNDEFINED> instruction: 0xffffffff
    92bc:	ffff ffff 			; <UNDEFINED> instruction: 0xffffffff
    92c0:	ffff ffff 			; <UNDEFINED> instruction: 0xffffffff
    92c4:	ffff ffff 			; <UNDEFINED> instruction: 0xffffffff
    92c8:	ffff ffff 			; <UNDEFINED> instruction: 0xffffffff
    92cc:	ffff ffff 			; <UNDEFINED> instruction: 0xffffffff
    92d0:	ffff ffff 			; <UNDEFINED> instruction: 0xffffffff
    92d4:	ffff ffff 			; <UNDEFINED> instruction: 0xffffffff
    92d8:	ffff ffff 			; <UNDEFINED> instruction: 0xffffffff
    92dc:	ffff ffff 			; <UNDEFINED> instruction: 0xffffffff
    92e0:	ffff ffff 			; <UNDEFINED> instruction: 0xffffffff
    92e4:	ffff ffff 			; <UNDEFINED> instruction: 0xffffffff
    92e8:	ffff ffff 			; <UNDEFINED> instruction: 0xffffffff
    92ec:	ffff ffff 			; <UNDEFINED> instruction: 0xffffffff
    92f0:	ffff ffff 			; <UNDEFINED> instruction: 0xffffffff
    92f4:	ffff ffff 			; <UNDEFINED> instruction: 0xffffffff
    92f8:	ffff ffff 			; <UNDEFINED> instruction: 0xffffffff
    92fc:	ffff ffff 			; <UNDEFINED> instruction: 0xffffffff
    9300:	ffff ffff 			; <UNDEFINED> instruction: 0xffffffff
    9304:	ffff ffff 			; <UNDEFINED> instruction: 0xffffffff
    9308:	ffff ffff 			; <UNDEFINED> instruction: 0xffffffff
    930c:	ffff ffff 			; <UNDEFINED> instruction: 0xffffffff
    9310:	ffff ffff 			; <UNDEFINED> instruction: 0xffffffff
    9314:	ffff ffff 			; <UNDEFINED> instruction: 0xffffffff
    9318:	ffff ffff 			; <UNDEFINED> instruction: 0xffffffff
    931c:	ffff ffff 			; <UNDEFINED> instruction: 0xffffffff
    9320:	ffff ffff 			; <UNDEFINED> instruction: 0xffffffff
    9324:	ffff ffff 			; <UNDEFINED> instruction: 0xffffffff
    9328:	ffff ffff 			; <UNDEFINED> instruction: 0xffffffff
    932c:	ffff ffff 			; <UNDEFINED> instruction: 0xffffffff
    9330:	ffff ffff 			; <UNDEFINED> instruction: 0xffffffff
    9334:	ffff ffff 			; <UNDEFINED> instruction: 0xffffffff
    9338:	ffff ffff 			; <UNDEFINED> instruction: 0xffffffff
    933c:	ffff ffff 			; <UNDEFINED> instruction: 0xffffffff
    9340:	ffff ffff 			; <UNDEFINED> instruction: 0xffffffff
    9344:	ffff ffff 			; <UNDEFINED> instruction: 0xffffffff
    9348:	ffff ffff 			; <UNDEFINED> instruction: 0xffffffff
    934c:	ffff ffff 			; <UNDEFINED> instruction: 0xffffffff
    9350:	ffff ffff 			; <UNDEFINED> instruction: 0xffffffff
    9354:	ffff ffff 			; <UNDEFINED> instruction: 0xffffffff
    9358:	ffff ffff 			; <UNDEFINED> instruction: 0xffffffff
    935c:	ffff ffff 			; <UNDEFINED> instruction: 0xffffffff
    9360:	ffff ffff 			; <UNDEFINED> instruction: 0xffffffff
    9364:	ffff ffff 			; <UNDEFINED> instruction: 0xffffffff
    9368:	ffff ffff 			; <UNDEFINED> instruction: 0xffffffff
    936c:	ffff ffff 			; <UNDEFINED> instruction: 0xffffffff
    9370:	ffff ffff 			; <UNDEFINED> instruction: 0xffffffff
    9374:	ffff ffff 			; <UNDEFINED> instruction: 0xffffffff
    9378:	ffff ffff 			; <UNDEFINED> instruction: 0xffffffff
    937c:	ffff ffff 			; <UNDEFINED> instruction: 0xffffffff
    9380:	ffff ffff 			; <UNDEFINED> instruction: 0xffffffff
    9384:	ffff ffff 			; <UNDEFINED> instruction: 0xffffffff
    9388:	ffff ffff 			; <UNDEFINED> instruction: 0xffffffff
    938c:	ffff ffff 			; <UNDEFINED> instruction: 0xffffffff
    9390:	ffff ffff 			; <UNDEFINED> instruction: 0xffffffff
    9394:	ffff ffff 			; <UNDEFINED> instruction: 0xffffffff
    9398:	ffff ffff 			; <UNDEFINED> instruction: 0xffffffff
    939c:	ffff ffff 			; <UNDEFINED> instruction: 0xffffffff
    93a0:	ffff ffff 			; <UNDEFINED> instruction: 0xffffffff
    93a4:	ffff ffff 			; <UNDEFINED> instruction: 0xffffffff
    93a8:	ffff ffff 			; <UNDEFINED> instruction: 0xffffffff
    93ac:	ffff ffff 			; <UNDEFINED> instruction: 0xffffffff
    93b0:	ffff ffff 			; <UNDEFINED> instruction: 0xffffffff
    93b4:	ffff ffff 			; <UNDEFINED> instruction: 0xffffffff
    93b8:	ffff ffff 			; <UNDEFINED> instruction: 0xffffffff
    93bc:	ffff ffff 			; <UNDEFINED> instruction: 0xffffffff
    93c0:	ffff ffff 			; <UNDEFINED> instruction: 0xffffffff
    93c4:	ffff ffff 			; <UNDEFINED> instruction: 0xffffffff
    93c8:	ffff ffff 			; <UNDEFINED> instruction: 0xffffffff
    93cc:	ffff ffff 			; <UNDEFINED> instruction: 0xffffffff
    93d0:	ffff ffff 			; <UNDEFINED> instruction: 0xffffffff
    93d4:	ffff ffff 			; <UNDEFINED> instruction: 0xffffffff
    93d8:	ffff ffff 			; <UNDEFINED> instruction: 0xffffffff
    93dc:	ffff ffff 			; <UNDEFINED> instruction: 0xffffffff
    93e0:	ffff ffff 			; <UNDEFINED> instruction: 0xffffffff
    93e4:	ffff ffff 			; <UNDEFINED> instruction: 0xffffffff
    93e8:	ffff ffff 			; <UNDEFINED> instruction: 0xffffffff
    93ec:	ffff ffff 			; <UNDEFINED> instruction: 0xffffffff
    93f0:	ffff ffff 			; <UNDEFINED> instruction: 0xffffffff
    93f4:	ffff ffff 			; <UNDEFINED> instruction: 0xffffffff
    93f8:	ffff ffff 			; <UNDEFINED> instruction: 0xffffffff
    93fc:	ffff ffff 			; <UNDEFINED> instruction: 0xffffffff
    9400:	ffff ffff 			; <UNDEFINED> instruction: 0xffffffff
    9404:	ffff ffff 			; <UNDEFINED> instruction: 0xffffffff
    9408:	ffff ffff 			; <UNDEFINED> instruction: 0xffffffff
    940c:	ffff ffff 			; <UNDEFINED> instruction: 0xffffffff
    9410:	ffff ffff 			; <UNDEFINED> instruction: 0xffffffff
    9414:	ffff ffff 			; <UNDEFINED> instruction: 0xffffffff
    9418:	ffff ffff 			; <UNDEFINED> instruction: 0xffffffff
    941c:	ffff ffff 			; <UNDEFINED> instruction: 0xffffffff
    9420:	ffff ffff 			; <UNDEFINED> instruction: 0xffffffff
    9424:	ffff ffff 			; <UNDEFINED> instruction: 0xffffffff
    9428:	ffff ffff 			; <UNDEFINED> instruction: 0xffffffff
    942c:	ffff ffff 			; <UNDEFINED> instruction: 0xffffffff
    9430:	ffff ffff 			; <UNDEFINED> instruction: 0xffffffff
    9434:	ffff ffff 			; <UNDEFINED> instruction: 0xffffffff
    9438:	ffff ffff 			; <UNDEFINED> instruction: 0xffffffff
    943c:	ffff ffff 			; <UNDEFINED> instruction: 0xffffffff
    9440:	ffff ffff 			; <UNDEFINED> instruction: 0xffffffff
    9444:	ffff ffff 			; <UNDEFINED> instruction: 0xffffffff
    9448:	ffff ffff 			; <UNDEFINED> instruction: 0xffffffff
    944c:	ffff ffff 			; <UNDEFINED> instruction: 0xffffffff
    9450:	ffff ffff 			; <UNDEFINED> instruction: 0xffffffff
    9454:	ffff ffff 			; <UNDEFINED> instruction: 0xffffffff
    9458:	ffff ffff 			; <UNDEFINED> instruction: 0xffffffff
    945c:	ffff ffff 			; <UNDEFINED> instruction: 0xffffffff
    9460:	ffff ffff 			; <UNDEFINED> instruction: 0xffffffff
    9464:	ffff ffff 			; <UNDEFINED> instruction: 0xffffffff
    9468:	ffff ffff 			; <UNDEFINED> instruction: 0xffffffff
    946c:	ffff ffff 			; <UNDEFINED> instruction: 0xffffffff
    9470:	ffff ffff 			; <UNDEFINED> instruction: 0xffffffff
    9474:	ffff ffff 			; <UNDEFINED> instruction: 0xffffffff
    9478:	ffff ffff 			; <UNDEFINED> instruction: 0xffffffff
    947c:	ffff ffff 			; <UNDEFINED> instruction: 0xffffffff
    9480:	ffff ffff 			; <UNDEFINED> instruction: 0xffffffff
    9484:	ffff ffff 			; <UNDEFINED> instruction: 0xffffffff
    9488:	ffff ffff 			; <UNDEFINED> instruction: 0xffffffff
    948c:	ffff ffff 			; <UNDEFINED> instruction: 0xffffffff
    9490:	ffff ffff 			; <UNDEFINED> instruction: 0xffffffff
    9494:	ffff ffff 			; <UNDEFINED> instruction: 0xffffffff
    9498:	ffff ffff 			; <UNDEFINED> instruction: 0xffffffff
    949c:	ffff ffff 			; <UNDEFINED> instruction: 0xffffffff
    94a0:	ffff ffff 			; <UNDEFINED> instruction: 0xffffffff
    94a4:	ffff ffff 			; <UNDEFINED> instruction: 0xffffffff
    94a8:	ffff ffff 			; <UNDEFINED> instruction: 0xffffffff
    94ac:	ffff ffff 			; <UNDEFINED> instruction: 0xffffffff
    94b0:	ffff ffff 			; <UNDEFINED> instruction: 0xffffffff
    94b4:	ffff ffff 			; <UNDEFINED> instruction: 0xffffffff
    94b8:	ffff ffff 			; <UNDEFINED> instruction: 0xffffffff
    94bc:	ffff ffff 			; <UNDEFINED> instruction: 0xffffffff
    94c0:	ffff ffff 			; <UNDEFINED> instruction: 0xffffffff
    94c4:	ffff ffff 			; <UNDEFINED> instruction: 0xffffffff
    94c8:	ffff ffff 			; <UNDEFINED> instruction: 0xffffffff
    94cc:	ffff ffff 			; <UNDEFINED> instruction: 0xffffffff
    94d0:	ffff ffff 			; <UNDEFINED> instruction: 0xffffffff
    94d4:	ffff ffff 			; <UNDEFINED> instruction: 0xffffffff
    94d8:	ffff ffff 			; <UNDEFINED> instruction: 0xffffffff
    94dc:	ffff ffff 			; <UNDEFINED> instruction: 0xffffffff
    94e0:	ffff ffff 			; <UNDEFINED> instruction: 0xffffffff
    94e4:	ffff ffff 			; <UNDEFINED> instruction: 0xffffffff
    94e8:	ffff ffff 			; <UNDEFINED> instruction: 0xffffffff
    94ec:	ffff ffff 			; <UNDEFINED> instruction: 0xffffffff
    94f0:	ffff ffff 			; <UNDEFINED> instruction: 0xffffffff
    94f4:	ffff ffff 			; <UNDEFINED> instruction: 0xffffffff
    94f8:	ffff ffff 			; <UNDEFINED> instruction: 0xffffffff
    94fc:	ffff ffff 			; <UNDEFINED> instruction: 0xffffffff
    9500:	ffff ffff 			; <UNDEFINED> instruction: 0xffffffff
    9504:	ffff ffff 			; <UNDEFINED> instruction: 0xffffffff
    9508:	ffff ffff 			; <UNDEFINED> instruction: 0xffffffff
    950c:	ffff ffff 			; <UNDEFINED> instruction: 0xffffffff
    9510:	ffff ffff 			; <UNDEFINED> instruction: 0xffffffff
    9514:	ffff ffff 			; <UNDEFINED> instruction: 0xffffffff
    9518:	ffff ffff 			; <UNDEFINED> instruction: 0xffffffff
    951c:	ffff ffff 			; <UNDEFINED> instruction: 0xffffffff
    9520:	ffff ffff 			; <UNDEFINED> instruction: 0xffffffff
    9524:	ffff ffff 			; <UNDEFINED> instruction: 0xffffffff
    9528:	ffff ffff 			; <UNDEFINED> instruction: 0xffffffff
    952c:	ffff ffff 			; <UNDEFINED> instruction: 0xffffffff
    9530:	ffff ffff 			; <UNDEFINED> instruction: 0xffffffff
    9534:	ffff ffff 			; <UNDEFINED> instruction: 0xffffffff
    9538:	ffff ffff 			; <UNDEFINED> instruction: 0xffffffff
    953c:	ffff ffff 			; <UNDEFINED> instruction: 0xffffffff
    9540:	ffff ffff 			; <UNDEFINED> instruction: 0xffffffff
    9544:	ffff ffff 			; <UNDEFINED> instruction: 0xffffffff
    9548:	ffff ffff 			; <UNDEFINED> instruction: 0xffffffff
    954c:	ffff ffff 			; <UNDEFINED> instruction: 0xffffffff
    9550:	ffff ffff 			; <UNDEFINED> instruction: 0xffffffff
    9554:	ffff ffff 			; <UNDEFINED> instruction: 0xffffffff
    9558:	ffff ffff 			; <UNDEFINED> instruction: 0xffffffff
    955c:	ffff ffff 			; <UNDEFINED> instruction: 0xffffffff
    9560:	ffff ffff 			; <UNDEFINED> instruction: 0xffffffff
    9564:	ffff ffff 			; <UNDEFINED> instruction: 0xffffffff
    9568:	ffff ffff 			; <UNDEFINED> instruction: 0xffffffff
    956c:	ffff ffff 			; <UNDEFINED> instruction: 0xffffffff
    9570:	ffff ffff 			; <UNDEFINED> instruction: 0xffffffff
    9574:	ffff ffff 			; <UNDEFINED> instruction: 0xffffffff
    9578:	ffff ffff 			; <UNDEFINED> instruction: 0xffffffff
    957c:	ffff ffff 			; <UNDEFINED> instruction: 0xffffffff
    9580:	ffff ffff 			; <UNDEFINED> instruction: 0xffffffff
    9584:	ffff ffff 			; <UNDEFINED> instruction: 0xffffffff
    9588:	ffff ffff 			; <UNDEFINED> instruction: 0xffffffff
    958c:	ffff ffff 			; <UNDEFINED> instruction: 0xffffffff
    9590:	ffff ffff 			; <UNDEFINED> instruction: 0xffffffff
    9594:	ffff ffff 			; <UNDEFINED> instruction: 0xffffffff
    9598:	ffff ffff 			; <UNDEFINED> instruction: 0xffffffff
    959c:	ffff ffff 			; <UNDEFINED> instruction: 0xffffffff
    95a0:	ffff ffff 			; <UNDEFINED> instruction: 0xffffffff
    95a4:	ffff ffff 			; <UNDEFINED> instruction: 0xffffffff
    95a8:	ffff ffff 			; <UNDEFINED> instruction: 0xffffffff
    95ac:	ffff ffff 			; <UNDEFINED> instruction: 0xffffffff
    95b0:	ffff ffff 			; <UNDEFINED> instruction: 0xffffffff
    95b4:	ffff ffff 			; <UNDEFINED> instruction: 0xffffffff
    95b8:	ffff ffff 			; <UNDEFINED> instruction: 0xffffffff
    95bc:	ffff ffff 			; <UNDEFINED> instruction: 0xffffffff
    95c0:	ffff ffff 			; <UNDEFINED> instruction: 0xffffffff
    95c4:	ffff ffff 			; <UNDEFINED> instruction: 0xffffffff
    95c8:	ffff ffff 			; <UNDEFINED> instruction: 0xffffffff
    95cc:	ffff ffff 			; <UNDEFINED> instruction: 0xffffffff
    95d0:	ffff ffff 			; <UNDEFINED> instruction: 0xffffffff
    95d4:	ffff ffff 			; <UNDEFINED> instruction: 0xffffffff
    95d8:	ffff ffff 			; <UNDEFINED> instruction: 0xffffffff
    95dc:	ffff ffff 			; <UNDEFINED> instruction: 0xffffffff
    95e0:	ffff ffff 			; <UNDEFINED> instruction: 0xffffffff
    95e4:	ffff ffff 			; <UNDEFINED> instruction: 0xffffffff
    95e8:	ffff ffff 			; <UNDEFINED> instruction: 0xffffffff
    95ec:	ffff ffff 			; <UNDEFINED> instruction: 0xffffffff
    95f0:	ffff ffff 			; <UNDEFINED> instruction: 0xffffffff
    95f4:	ffff ffff 			; <UNDEFINED> instruction: 0xffffffff
    95f8:	ffff ffff 			; <UNDEFINED> instruction: 0xffffffff
    95fc:	ffff ffff 			; <UNDEFINED> instruction: 0xffffffff
    9600:	ffff ffff 			; <UNDEFINED> instruction: 0xffffffff
    9604:	ffff ffff 			; <UNDEFINED> instruction: 0xffffffff
    9608:	ffff ffff 			; <UNDEFINED> instruction: 0xffffffff
    960c:	ffff ffff 			; <UNDEFINED> instruction: 0xffffffff
    9610:	ffff ffff 			; <UNDEFINED> instruction: 0xffffffff
    9614:	ffff ffff 			; <UNDEFINED> instruction: 0xffffffff
    9618:	ffff ffff 			; <UNDEFINED> instruction: 0xffffffff
    961c:	ffff ffff 			; <UNDEFINED> instruction: 0xffffffff
    9620:	ffff ffff 			; <UNDEFINED> instruction: 0xffffffff
    9624:	ffff ffff 			; <UNDEFINED> instruction: 0xffffffff
    9628:	ffff ffff 			; <UNDEFINED> instruction: 0xffffffff
    962c:	ffff ffff 			; <UNDEFINED> instruction: 0xffffffff
    9630:	ffff ffff 			; <UNDEFINED> instruction: 0xffffffff
    9634:	ffff ffff 			; <UNDEFINED> instruction: 0xffffffff
    9638:	ffff ffff 			; <UNDEFINED> instruction: 0xffffffff
    963c:	ffff ffff 			; <UNDEFINED> instruction: 0xffffffff
    9640:	ffff ffff 			; <UNDEFINED> instruction: 0xffffffff
    9644:	ffff ffff 			; <UNDEFINED> instruction: 0xffffffff
    9648:	ffff ffff 			; <UNDEFINED> instruction: 0xffffffff
    964c:	ffff ffff 			; <UNDEFINED> instruction: 0xffffffff
    9650:	ffff ffff 			; <UNDEFINED> instruction: 0xffffffff
    9654:	ffff ffff 			; <UNDEFINED> instruction: 0xffffffff
    9658:	ffff ffff 			; <UNDEFINED> instruction: 0xffffffff
    965c:	ffff ffff 			; <UNDEFINED> instruction: 0xffffffff
    9660:	ffff ffff 			; <UNDEFINED> instruction: 0xffffffff
    9664:	ffff ffff 			; <UNDEFINED> instruction: 0xffffffff
    9668:	ffff ffff 			; <UNDEFINED> instruction: 0xffffffff
    966c:	ffff ffff 			; <UNDEFINED> instruction: 0xffffffff
    9670:	ffff ffff 			; <UNDEFINED> instruction: 0xffffffff
    9674:	ffff ffff 			; <UNDEFINED> instruction: 0xffffffff
    9678:	ffff ffff 			; <UNDEFINED> instruction: 0xffffffff
    967c:	ffff ffff 			; <UNDEFINED> instruction: 0xffffffff
    9680:	ffff ffff 			; <UNDEFINED> instruction: 0xffffffff
    9684:	ffff ffff 			; <UNDEFINED> instruction: 0xffffffff
    9688:	ffff ffff 			; <UNDEFINED> instruction: 0xffffffff
    968c:	ffff ffff 			; <UNDEFINED> instruction: 0xffffffff
    9690:	ffff ffff 			; <UNDEFINED> instruction: 0xffffffff
    9694:	ffff ffff 			; <UNDEFINED> instruction: 0xffffffff
    9698:	ffff ffff 			; <UNDEFINED> instruction: 0xffffffff
    969c:	ffff ffff 			; <UNDEFINED> instruction: 0xffffffff
    96a0:	ffff ffff 			; <UNDEFINED> instruction: 0xffffffff
    96a4:	ffff ffff 			; <UNDEFINED> instruction: 0xffffffff
    96a8:	ffff ffff 			; <UNDEFINED> instruction: 0xffffffff
    96ac:	ffff ffff 			; <UNDEFINED> instruction: 0xffffffff
    96b0:	ffff ffff 			; <UNDEFINED> instruction: 0xffffffff
    96b4:	ffff ffff 			; <UNDEFINED> instruction: 0xffffffff
    96b8:	ffff ffff 			; <UNDEFINED> instruction: 0xffffffff
    96bc:	ffff ffff 			; <UNDEFINED> instruction: 0xffffffff
    96c0:	ffff ffff 			; <UNDEFINED> instruction: 0xffffffff
    96c4:	ffff ffff 			; <UNDEFINED> instruction: 0xffffffff
    96c8:	ffff ffff 			; <UNDEFINED> instruction: 0xffffffff
    96cc:	ffff ffff 			; <UNDEFINED> instruction: 0xffffffff
    96d0:	ffff ffff 			; <UNDEFINED> instruction: 0xffffffff
    96d4:	ffff ffff 			; <UNDEFINED> instruction: 0xffffffff
    96d8:	ffff ffff 			; <UNDEFINED> instruction: 0xffffffff
    96dc:	ffff ffff 			; <UNDEFINED> instruction: 0xffffffff
    96e0:	ffff ffff 			; <UNDEFINED> instruction: 0xffffffff
    96e4:	ffff ffff 			; <UNDEFINED> instruction: 0xffffffff
    96e8:	ffff ffff 			; <UNDEFINED> instruction: 0xffffffff
    96ec:	ffff ffff 			; <UNDEFINED> instruction: 0xffffffff
    96f0:	ffff ffff 			; <UNDEFINED> instruction: 0xffffffff
    96f4:	ffff ffff 			; <UNDEFINED> instruction: 0xffffffff
    96f8:	ffff ffff 			; <UNDEFINED> instruction: 0xffffffff
    96fc:	ffff ffff 			; <UNDEFINED> instruction: 0xffffffff
    9700:	ffff ffff 			; <UNDEFINED> instruction: 0xffffffff
    9704:	ffff ffff 			; <UNDEFINED> instruction: 0xffffffff
    9708:	ffff ffff 			; <UNDEFINED> instruction: 0xffffffff
    970c:	ffff ffff 			; <UNDEFINED> instruction: 0xffffffff
    9710:	ffff ffff 			; <UNDEFINED> instruction: 0xffffffff
    9714:	ffff ffff 			; <UNDEFINED> instruction: 0xffffffff
    9718:	ffff ffff 			; <UNDEFINED> instruction: 0xffffffff
    971c:	ffff ffff 			; <UNDEFINED> instruction: 0xffffffff
    9720:	ffff ffff 			; <UNDEFINED> instruction: 0xffffffff
    9724:	ffff ffff 			; <UNDEFINED> instruction: 0xffffffff
    9728:	ffff ffff 			; <UNDEFINED> instruction: 0xffffffff
    972c:	ffff ffff 			; <UNDEFINED> instruction: 0xffffffff
    9730:	ffff ffff 			; <UNDEFINED> instruction: 0xffffffff
    9734:	ffff ffff 			; <UNDEFINED> instruction: 0xffffffff
    9738:	ffff ffff 			; <UNDEFINED> instruction: 0xffffffff
    973c:	ffff ffff 			; <UNDEFINED> instruction: 0xffffffff
    9740:	ffff ffff 			; <UNDEFINED> instruction: 0xffffffff
    9744:	ffff ffff 			; <UNDEFINED> instruction: 0xffffffff
    9748:	ffff ffff 			; <UNDEFINED> instruction: 0xffffffff
    974c:	ffff ffff 			; <UNDEFINED> instruction: 0xffffffff
    9750:	ffff ffff 			; <UNDEFINED> instruction: 0xffffffff
    9754:	ffff ffff 			; <UNDEFINED> instruction: 0xffffffff
    9758:	ffff ffff 			; <UNDEFINED> instruction: 0xffffffff
    975c:	ffff ffff 			; <UNDEFINED> instruction: 0xffffffff
    9760:	ffff ffff 			; <UNDEFINED> instruction: 0xffffffff
    9764:	ffff ffff 			; <UNDEFINED> instruction: 0xffffffff
    9768:	ffff ffff 			; <UNDEFINED> instruction: 0xffffffff
    976c:	ffff ffff 			; <UNDEFINED> instruction: 0xffffffff
    9770:	ffff ffff 			; <UNDEFINED> instruction: 0xffffffff
    9774:	ffff ffff 			; <UNDEFINED> instruction: 0xffffffff
    9778:	ffff ffff 			; <UNDEFINED> instruction: 0xffffffff
    977c:	ffff ffff 			; <UNDEFINED> instruction: 0xffffffff
    9780:	ffff ffff 			; <UNDEFINED> instruction: 0xffffffff
    9784:	ffff ffff 			; <UNDEFINED> instruction: 0xffffffff
    9788:	ffff ffff 			; <UNDEFINED> instruction: 0xffffffff
    978c:	ffff ffff 			; <UNDEFINED> instruction: 0xffffffff
    9790:	ffff ffff 			; <UNDEFINED> instruction: 0xffffffff
    9794:	ffff ffff 			; <UNDEFINED> instruction: 0xffffffff
    9798:	ffff ffff 			; <UNDEFINED> instruction: 0xffffffff
    979c:	ffff ffff 			; <UNDEFINED> instruction: 0xffffffff
    97a0:	ffff ffff 			; <UNDEFINED> instruction: 0xffffffff
    97a4:	ffff ffff 			; <UNDEFINED> instruction: 0xffffffff
    97a8:	ffff ffff 			; <UNDEFINED> instruction: 0xffffffff
    97ac:	ffff ffff 			; <UNDEFINED> instruction: 0xffffffff
    97b0:	ffff ffff 			; <UNDEFINED> instruction: 0xffffffff
    97b4:	ffff ffff 			; <UNDEFINED> instruction: 0xffffffff
    97b8:	ffff ffff 			; <UNDEFINED> instruction: 0xffffffff
    97bc:	ffff ffff 			; <UNDEFINED> instruction: 0xffffffff
    97c0:	ffff ffff 			; <UNDEFINED> instruction: 0xffffffff
    97c4:	ffff ffff 			; <UNDEFINED> instruction: 0xffffffff
    97c8:	ffff ffff 			; <UNDEFINED> instruction: 0xffffffff
    97cc:	ffff ffff 			; <UNDEFINED> instruction: 0xffffffff
    97d0:	ffff ffff 			; <UNDEFINED> instruction: 0xffffffff
    97d4:	ffff ffff 			; <UNDEFINED> instruction: 0xffffffff
    97d8:	ffff ffff 			; <UNDEFINED> instruction: 0xffffffff
    97dc:	ffff ffff 			; <UNDEFINED> instruction: 0xffffffff
    97e0:	ffff ffff 			; <UNDEFINED> instruction: 0xffffffff
    97e4:	ffff ffff 			; <UNDEFINED> instruction: 0xffffffff
    97e8:	ffff ffff 			; <UNDEFINED> instruction: 0xffffffff
    97ec:	ffff ffff 			; <UNDEFINED> instruction: 0xffffffff
    97f0:	ffff ffff 			; <UNDEFINED> instruction: 0xffffffff
    97f4:	ffff ffff 			; <UNDEFINED> instruction: 0xffffffff
    97f8:	ffff ffff 			; <UNDEFINED> instruction: 0xffffffff
    97fc:	ffff ffff 			; <UNDEFINED> instruction: 0xffffffff
    9800:	ffff ffff 			; <UNDEFINED> instruction: 0xffffffff
    9804:	ffff ffff 			; <UNDEFINED> instruction: 0xffffffff
    9808:	ffff ffff 			; <UNDEFINED> instruction: 0xffffffff
    980c:	ffff ffff 			; <UNDEFINED> instruction: 0xffffffff
    9810:	ffff ffff 			; <UNDEFINED> instruction: 0xffffffff
    9814:	ffff ffff 			; <UNDEFINED> instruction: 0xffffffff
    9818:	ffff ffff 			; <UNDEFINED> instruction: 0xffffffff
    981c:	ffff ffff 			; <UNDEFINED> instruction: 0xffffffff
    9820:	ffff ffff 			; <UNDEFINED> instruction: 0xffffffff
    9824:	ffff ffff 			; <UNDEFINED> instruction: 0xffffffff
    9828:	ffff ffff 			; <UNDEFINED> instruction: 0xffffffff
    982c:	ffff ffff 			; <UNDEFINED> instruction: 0xffffffff
    9830:	ffff ffff 			; <UNDEFINED> instruction: 0xffffffff
    9834:	ffff ffff 			; <UNDEFINED> instruction: 0xffffffff
    9838:	ffff ffff 			; <UNDEFINED> instruction: 0xffffffff
    983c:	ffff ffff 			; <UNDEFINED> instruction: 0xffffffff
    9840:	ffff ffff 			; <UNDEFINED> instruction: 0xffffffff
    9844:	ffff ffff 			; <UNDEFINED> instruction: 0xffffffff
    9848:	ffff ffff 			; <UNDEFINED> instruction: 0xffffffff
    984c:	ffff ffff 			; <UNDEFINED> instruction: 0xffffffff
    9850:	ffff ffff 			; <UNDEFINED> instruction: 0xffffffff
    9854:	ffff ffff 			; <UNDEFINED> instruction: 0xffffffff
    9858:	ffff ffff 			; <UNDEFINED> instruction: 0xffffffff
    985c:	ffff ffff 			; <UNDEFINED> instruction: 0xffffffff
    9860:	ffff ffff 			; <UNDEFINED> instruction: 0xffffffff
    9864:	ffff ffff 			; <UNDEFINED> instruction: 0xffffffff
    9868:	ffff ffff 			; <UNDEFINED> instruction: 0xffffffff
    986c:	ffff ffff 			; <UNDEFINED> instruction: 0xffffffff
    9870:	ffff ffff 			; <UNDEFINED> instruction: 0xffffffff
    9874:	ffff ffff 			; <UNDEFINED> instruction: 0xffffffff
    9878:	ffff ffff 			; <UNDEFINED> instruction: 0xffffffff
    987c:	ffff ffff 			; <UNDEFINED> instruction: 0xffffffff
    9880:	ffff ffff 			; <UNDEFINED> instruction: 0xffffffff
    9884:	ffff ffff 			; <UNDEFINED> instruction: 0xffffffff
    9888:	ffff ffff 			; <UNDEFINED> instruction: 0xffffffff
    988c:	ffff ffff 			; <UNDEFINED> instruction: 0xffffffff
    9890:	ffff ffff 			; <UNDEFINED> instruction: 0xffffffff
    9894:	ffff ffff 			; <UNDEFINED> instruction: 0xffffffff
    9898:	ffff ffff 			; <UNDEFINED> instruction: 0xffffffff
    989c:	ffff ffff 			; <UNDEFINED> instruction: 0xffffffff
    98a0:	ffff ffff 			; <UNDEFINED> instruction: 0xffffffff
    98a4:	ffff ffff 			; <UNDEFINED> instruction: 0xffffffff
    98a8:	ffff ffff 			; <UNDEFINED> instruction: 0xffffffff
    98ac:	ffff ffff 			; <UNDEFINED> instruction: 0xffffffff
    98b0:	ffff ffff 			; <UNDEFINED> instruction: 0xffffffff
    98b4:	ffff ffff 			; <UNDEFINED> instruction: 0xffffffff
    98b8:	ffff ffff 			; <UNDEFINED> instruction: 0xffffffff
    98bc:	ffff ffff 			; <UNDEFINED> instruction: 0xffffffff
    98c0:	ffff ffff 			; <UNDEFINED> instruction: 0xffffffff
    98c4:	ffff ffff 			; <UNDEFINED> instruction: 0xffffffff
    98c8:	ffff ffff 			; <UNDEFINED> instruction: 0xffffffff
    98cc:	ffff ffff 			; <UNDEFINED> instruction: 0xffffffff
    98d0:	ffff ffff 			; <UNDEFINED> instruction: 0xffffffff
    98d4:	ffff ffff 			; <UNDEFINED> instruction: 0xffffffff
    98d8:	ffff ffff 			; <UNDEFINED> instruction: 0xffffffff
    98dc:	ffff ffff 			; <UNDEFINED> instruction: 0xffffffff
    98e0:	ffff ffff 			; <UNDEFINED> instruction: 0xffffffff
    98e4:	ffff ffff 			; <UNDEFINED> instruction: 0xffffffff
    98e8:	ffff ffff 			; <UNDEFINED> instruction: 0xffffffff
    98ec:	ffff ffff 			; <UNDEFINED> instruction: 0xffffffff
    98f0:	ffff ffff 			; <UNDEFINED> instruction: 0xffffffff
    98f4:	ffff ffff 			; <UNDEFINED> instruction: 0xffffffff
    98f8:	ffff ffff 			; <UNDEFINED> instruction: 0xffffffff
    98fc:	ffff ffff 			; <UNDEFINED> instruction: 0xffffffff
    9900:	ffff ffff 			; <UNDEFINED> instruction: 0xffffffff
    9904:	ffff ffff 			; <UNDEFINED> instruction: 0xffffffff
    9908:	ffff ffff 			; <UNDEFINED> instruction: 0xffffffff
    990c:	ffff ffff 			; <UNDEFINED> instruction: 0xffffffff
    9910:	ffff ffff 			; <UNDEFINED> instruction: 0xffffffff
    9914:	ffff ffff 			; <UNDEFINED> instruction: 0xffffffff
    9918:	ffff ffff 			; <UNDEFINED> instruction: 0xffffffff
    991c:	ffff ffff 			; <UNDEFINED> instruction: 0xffffffff
    9920:	ffff ffff 			; <UNDEFINED> instruction: 0xffffffff
    9924:	ffff ffff 			; <UNDEFINED> instruction: 0xffffffff
    9928:	ffff ffff 			; <UNDEFINED> instruction: 0xffffffff
    992c:	ffff ffff 			; <UNDEFINED> instruction: 0xffffffff
    9930:	ffff ffff 			; <UNDEFINED> instruction: 0xffffffff
    9934:	ffff ffff 			; <UNDEFINED> instruction: 0xffffffff
    9938:	ffff ffff 			; <UNDEFINED> instruction: 0xffffffff
    993c:	ffff ffff 			; <UNDEFINED> instruction: 0xffffffff
    9940:	ffff ffff 			; <UNDEFINED> instruction: 0xffffffff
    9944:	ffff ffff 			; <UNDEFINED> instruction: 0xffffffff
    9948:	ffff ffff 			; <UNDEFINED> instruction: 0xffffffff
    994c:	ffff ffff 			; <UNDEFINED> instruction: 0xffffffff
    9950:	ffff ffff 			; <UNDEFINED> instruction: 0xffffffff
    9954:	ffff ffff 			; <UNDEFINED> instruction: 0xffffffff
    9958:	ffff ffff 			; <UNDEFINED> instruction: 0xffffffff
    995c:	ffff ffff 			; <UNDEFINED> instruction: 0xffffffff
    9960:	ffff ffff 			; <UNDEFINED> instruction: 0xffffffff
    9964:	ffff ffff 			; <UNDEFINED> instruction: 0xffffffff
    9968:	ffff ffff 			; <UNDEFINED> instruction: 0xffffffff
    996c:	ffff ffff 			; <UNDEFINED> instruction: 0xffffffff
    9970:	ffff ffff 			; <UNDEFINED> instruction: 0xffffffff
    9974:	ffff ffff 			; <UNDEFINED> instruction: 0xffffffff
    9978:	ffff ffff 			; <UNDEFINED> instruction: 0xffffffff
    997c:	ffff ffff 			; <UNDEFINED> instruction: 0xffffffff
    9980:	ffff ffff 			; <UNDEFINED> instruction: 0xffffffff
    9984:	ffff ffff 			; <UNDEFINED> instruction: 0xffffffff
    9988:	ffff ffff 			; <UNDEFINED> instruction: 0xffffffff
    998c:	ffff ffff 			; <UNDEFINED> instruction: 0xffffffff
    9990:	ffff ffff 			; <UNDEFINED> instruction: 0xffffffff
    9994:	ffff ffff 			; <UNDEFINED> instruction: 0xffffffff
    9998:	ffff ffff 			; <UNDEFINED> instruction: 0xffffffff
    999c:	ffff ffff 			; <UNDEFINED> instruction: 0xffffffff
    99a0:	ffff ffff 			; <UNDEFINED> instruction: 0xffffffff
    99a4:	ffff ffff 			; <UNDEFINED> instruction: 0xffffffff
    99a8:	ffff ffff 			; <UNDEFINED> instruction: 0xffffffff
    99ac:	ffff ffff 			; <UNDEFINED> instruction: 0xffffffff
    99b0:	ffff ffff 			; <UNDEFINED> instruction: 0xffffffff
    99b4:	ffff ffff 			; <UNDEFINED> instruction: 0xffffffff
    99b8:	ffff ffff 			; <UNDEFINED> instruction: 0xffffffff
    99bc:	ffff ffff 			; <UNDEFINED> instruction: 0xffffffff
    99c0:	ffff ffff 			; <UNDEFINED> instruction: 0xffffffff
    99c4:	ffff ffff 			; <UNDEFINED> instruction: 0xffffffff
    99c8:	ffff ffff 			; <UNDEFINED> instruction: 0xffffffff
    99cc:	ffff ffff 			; <UNDEFINED> instruction: 0xffffffff
    99d0:	ffff ffff 			; <UNDEFINED> instruction: 0xffffffff
    99d4:	ffff ffff 			; <UNDEFINED> instruction: 0xffffffff
    99d8:	ffff ffff 			; <UNDEFINED> instruction: 0xffffffff
    99dc:	ffff ffff 			; <UNDEFINED> instruction: 0xffffffff
    99e0:	ffff ffff 			; <UNDEFINED> instruction: 0xffffffff
    99e4:	ffff ffff 			; <UNDEFINED> instruction: 0xffffffff
    99e8:	ffff ffff 			; <UNDEFINED> instruction: 0xffffffff
    99ec:	ffff ffff 			; <UNDEFINED> instruction: 0xffffffff
    99f0:	ffff ffff 			; <UNDEFINED> instruction: 0xffffffff
    99f4:	ffff ffff 			; <UNDEFINED> instruction: 0xffffffff
    99f8:	ffff ffff 			; <UNDEFINED> instruction: 0xffffffff
    99fc:	ffff ffff 			; <UNDEFINED> instruction: 0xffffffff
    9a00:	ffff ffff 			; <UNDEFINED> instruction: 0xffffffff
    9a04:	ffff ffff 			; <UNDEFINED> instruction: 0xffffffff
    9a08:	ffff ffff 			; <UNDEFINED> instruction: 0xffffffff
    9a0c:	ffff ffff 			; <UNDEFINED> instruction: 0xffffffff
    9a10:	ffff ffff 			; <UNDEFINED> instruction: 0xffffffff
    9a14:	ffff ffff 			; <UNDEFINED> instruction: 0xffffffff
    9a18:	ffff ffff 			; <UNDEFINED> instruction: 0xffffffff
    9a1c:	ffff ffff 			; <UNDEFINED> instruction: 0xffffffff
    9a20:	ffff ffff 			; <UNDEFINED> instruction: 0xffffffff
    9a24:	ffff ffff 			; <UNDEFINED> instruction: 0xffffffff
    9a28:	ffff ffff 			; <UNDEFINED> instruction: 0xffffffff
    9a2c:	ffff ffff 			; <UNDEFINED> instruction: 0xffffffff
    9a30:	ffff ffff 			; <UNDEFINED> instruction: 0xffffffff
    9a34:	ffff ffff 			; <UNDEFINED> instruction: 0xffffffff
    9a38:	ffff ffff 			; <UNDEFINED> instruction: 0xffffffff
    9a3c:	ffff ffff 			; <UNDEFINED> instruction: 0xffffffff
    9a40:	ffff ffff 			; <UNDEFINED> instruction: 0xffffffff
    9a44:	ffff ffff 			; <UNDEFINED> instruction: 0xffffffff
    9a48:	ffff ffff 			; <UNDEFINED> instruction: 0xffffffff
    9a4c:	ffff ffff 			; <UNDEFINED> instruction: 0xffffffff
    9a50:	ffff ffff 			; <UNDEFINED> instruction: 0xffffffff
    9a54:	ffff ffff 			; <UNDEFINED> instruction: 0xffffffff
    9a58:	ffff ffff 			; <UNDEFINED> instruction: 0xffffffff
    9a5c:	ffff ffff 			; <UNDEFINED> instruction: 0xffffffff
    9a60:	ffff ffff 			; <UNDEFINED> instruction: 0xffffffff
    9a64:	ffff ffff 			; <UNDEFINED> instruction: 0xffffffff
    9a68:	ffff ffff 			; <UNDEFINED> instruction: 0xffffffff
    9a6c:	ffff ffff 			; <UNDEFINED> instruction: 0xffffffff
    9a70:	ffff ffff 			; <UNDEFINED> instruction: 0xffffffff
    9a74:	ffff ffff 			; <UNDEFINED> instruction: 0xffffffff
    9a78:	ffff ffff 			; <UNDEFINED> instruction: 0xffffffff
    9a7c:	ffff ffff 			; <UNDEFINED> instruction: 0xffffffff
    9a80:	ffff ffff 			; <UNDEFINED> instruction: 0xffffffff
    9a84:	ffff ffff 			; <UNDEFINED> instruction: 0xffffffff
    9a88:	ffff ffff 			; <UNDEFINED> instruction: 0xffffffff
    9a8c:	ffff ffff 			; <UNDEFINED> instruction: 0xffffffff
    9a90:	ffff ffff 			; <UNDEFINED> instruction: 0xffffffff
    9a94:	ffff ffff 			; <UNDEFINED> instruction: 0xffffffff
    9a98:	ffff ffff 			; <UNDEFINED> instruction: 0xffffffff
    9a9c:	ffff ffff 			; <UNDEFINED> instruction: 0xffffffff
    9aa0:	ffff ffff 			; <UNDEFINED> instruction: 0xffffffff
    9aa4:	ffff ffff 			; <UNDEFINED> instruction: 0xffffffff
    9aa8:	ffff ffff 			; <UNDEFINED> instruction: 0xffffffff
    9aac:	ffff ffff 			; <UNDEFINED> instruction: 0xffffffff
    9ab0:	ffff ffff 			; <UNDEFINED> instruction: 0xffffffff
    9ab4:	ffff ffff 			; <UNDEFINED> instruction: 0xffffffff
    9ab8:	ffff ffff 			; <UNDEFINED> instruction: 0xffffffff
    9abc:	ffff ffff 			; <UNDEFINED> instruction: 0xffffffff
    9ac0:	ffff ffff 			; <UNDEFINED> instruction: 0xffffffff
    9ac4:	ffff ffff 			; <UNDEFINED> instruction: 0xffffffff
    9ac8:	ffff ffff 			; <UNDEFINED> instruction: 0xffffffff
    9acc:	ffff ffff 			; <UNDEFINED> instruction: 0xffffffff
    9ad0:	ffff ffff 			; <UNDEFINED> instruction: 0xffffffff
    9ad4:	ffff ffff 			; <UNDEFINED> instruction: 0xffffffff
    9ad8:	ffff ffff 			; <UNDEFINED> instruction: 0xffffffff
    9adc:	ffff ffff 			; <UNDEFINED> instruction: 0xffffffff
    9ae0:	ffff ffff 			; <UNDEFINED> instruction: 0xffffffff
    9ae4:	ffff ffff 			; <UNDEFINED> instruction: 0xffffffff
    9ae8:	ffff ffff 			; <UNDEFINED> instruction: 0xffffffff
    9aec:	ffff ffff 			; <UNDEFINED> instruction: 0xffffffff
    9af0:	ffff ffff 			; <UNDEFINED> instruction: 0xffffffff
    9af4:	ffff ffff 			; <UNDEFINED> instruction: 0xffffffff
    9af8:	ffff ffff 			; <UNDEFINED> instruction: 0xffffffff
    9afc:	ffff ffff 			; <UNDEFINED> instruction: 0xffffffff
    9b00:	ffff ffff 			; <UNDEFINED> instruction: 0xffffffff
    9b04:	ffff ffff 			; <UNDEFINED> instruction: 0xffffffff
    9b08:	ffff ffff 			; <UNDEFINED> instruction: 0xffffffff
    9b0c:	ffff ffff 			; <UNDEFINED> instruction: 0xffffffff
    9b10:	ffff ffff 			; <UNDEFINED> instruction: 0xffffffff
    9b14:	ffff ffff 			; <UNDEFINED> instruction: 0xffffffff
    9b18:	ffff ffff 			; <UNDEFINED> instruction: 0xffffffff
    9b1c:	ffff ffff 			; <UNDEFINED> instruction: 0xffffffff
    9b20:	ffff ffff 			; <UNDEFINED> instruction: 0xffffffff
    9b24:	ffff ffff 			; <UNDEFINED> instruction: 0xffffffff
    9b28:	ffff ffff 			; <UNDEFINED> instruction: 0xffffffff
    9b2c:	ffff ffff 			; <UNDEFINED> instruction: 0xffffffff
    9b30:	ffff ffff 			; <UNDEFINED> instruction: 0xffffffff
    9b34:	ffff ffff 			; <UNDEFINED> instruction: 0xffffffff
    9b38:	ffff ffff 			; <UNDEFINED> instruction: 0xffffffff
    9b3c:	ffff ffff 			; <UNDEFINED> instruction: 0xffffffff
    9b40:	ffff ffff 			; <UNDEFINED> instruction: 0xffffffff
    9b44:	ffff ffff 			; <UNDEFINED> instruction: 0xffffffff
    9b48:	ffff ffff 			; <UNDEFINED> instruction: 0xffffffff
    9b4c:	ffff ffff 			; <UNDEFINED> instruction: 0xffffffff
    9b50:	ffff ffff 			; <UNDEFINED> instruction: 0xffffffff
    9b54:	ffff ffff 			; <UNDEFINED> instruction: 0xffffffff
    9b58:	ffff ffff 			; <UNDEFINED> instruction: 0xffffffff
    9b5c:	ffff ffff 			; <UNDEFINED> instruction: 0xffffffff
    9b60:	ffff ffff 			; <UNDEFINED> instruction: 0xffffffff
    9b64:	ffff ffff 			; <UNDEFINED> instruction: 0xffffffff
    9b68:	ffff ffff 			; <UNDEFINED> instruction: 0xffffffff
    9b6c:	ffff ffff 			; <UNDEFINED> instruction: 0xffffffff
    9b70:	ffff ffff 			; <UNDEFINED> instruction: 0xffffffff
    9b74:	ffff ffff 			; <UNDEFINED> instruction: 0xffffffff
    9b78:	ffff ffff 			; <UNDEFINED> instruction: 0xffffffff
    9b7c:	ffff ffff 			; <UNDEFINED> instruction: 0xffffffff
    9b80:	ffff ffff 			; <UNDEFINED> instruction: 0xffffffff
    9b84:	ffff ffff 			; <UNDEFINED> instruction: 0xffffffff
    9b88:	ffff ffff 			; <UNDEFINED> instruction: 0xffffffff
    9b8c:	ffff ffff 			; <UNDEFINED> instruction: 0xffffffff
    9b90:	ffff ffff 			; <UNDEFINED> instruction: 0xffffffff
    9b94:	ffff ffff 			; <UNDEFINED> instruction: 0xffffffff
    9b98:	ffff ffff 			; <UNDEFINED> instruction: 0xffffffff
    9b9c:	ffff ffff 			; <UNDEFINED> instruction: 0xffffffff
    9ba0:	ffff ffff 			; <UNDEFINED> instruction: 0xffffffff
    9ba4:	ffff ffff 			; <UNDEFINED> instruction: 0xffffffff
    9ba8:	ffff ffff 			; <UNDEFINED> instruction: 0xffffffff
    9bac:	ffff ffff 			; <UNDEFINED> instruction: 0xffffffff
    9bb0:	ffff ffff 			; <UNDEFINED> instruction: 0xffffffff
    9bb4:	ffff ffff 			; <UNDEFINED> instruction: 0xffffffff
    9bb8:	ffff ffff 			; <UNDEFINED> instruction: 0xffffffff
    9bbc:	ffff ffff 			; <UNDEFINED> instruction: 0xffffffff
    9bc0:	ffff ffff 			; <UNDEFINED> instruction: 0xffffffff
    9bc4:	ffff ffff 			; <UNDEFINED> instruction: 0xffffffff
    9bc8:	ffff ffff 			; <UNDEFINED> instruction: 0xffffffff
    9bcc:	ffff ffff 			; <UNDEFINED> instruction: 0xffffffff
    9bd0:	ffff ffff 			; <UNDEFINED> instruction: 0xffffffff
    9bd4:	ffff ffff 			; <UNDEFINED> instruction: 0xffffffff
    9bd8:	ffff ffff 			; <UNDEFINED> instruction: 0xffffffff
    9bdc:	ffff ffff 			; <UNDEFINED> instruction: 0xffffffff
    9be0:	ffff ffff 			; <UNDEFINED> instruction: 0xffffffff
    9be4:	ffff ffff 			; <UNDEFINED> instruction: 0xffffffff
    9be8:	ffff ffff 			; <UNDEFINED> instruction: 0xffffffff
    9bec:	ffff ffff 			; <UNDEFINED> instruction: 0xffffffff
    9bf0:	ffff ffff 			; <UNDEFINED> instruction: 0xffffffff
    9bf4:	ffff ffff 			; <UNDEFINED> instruction: 0xffffffff
    9bf8:	ffff ffff 			; <UNDEFINED> instruction: 0xffffffff
    9bfc:	ffff ffff 			; <UNDEFINED> instruction: 0xffffffff
    9c00:	ffff ffff 			; <UNDEFINED> instruction: 0xffffffff
    9c04:	ffff ffff 			; <UNDEFINED> instruction: 0xffffffff
    9c08:	ffff ffff 			; <UNDEFINED> instruction: 0xffffffff
    9c0c:	ffff ffff 			; <UNDEFINED> instruction: 0xffffffff
    9c10:	ffff ffff 			; <UNDEFINED> instruction: 0xffffffff
    9c14:	ffff ffff 			; <UNDEFINED> instruction: 0xffffffff
    9c18:	ffff ffff 			; <UNDEFINED> instruction: 0xffffffff
    9c1c:	ffff ffff 			; <UNDEFINED> instruction: 0xffffffff
    9c20:	ffff ffff 			; <UNDEFINED> instruction: 0xffffffff
    9c24:	ffff ffff 			; <UNDEFINED> instruction: 0xffffffff
    9c28:	ffff ffff 			; <UNDEFINED> instruction: 0xffffffff
    9c2c:	ffff ffff 			; <UNDEFINED> instruction: 0xffffffff
    9c30:	ffff ffff 			; <UNDEFINED> instruction: 0xffffffff
    9c34:	ffff ffff 			; <UNDEFINED> instruction: 0xffffffff
    9c38:	ffff ffff 			; <UNDEFINED> instruction: 0xffffffff
    9c3c:	ffff ffff 			; <UNDEFINED> instruction: 0xffffffff
    9c40:	ffff ffff 			; <UNDEFINED> instruction: 0xffffffff
    9c44:	ffff ffff 			; <UNDEFINED> instruction: 0xffffffff
    9c48:	ffff ffff 			; <UNDEFINED> instruction: 0xffffffff
    9c4c:	ffff ffff 			; <UNDEFINED> instruction: 0xffffffff
    9c50:	ffff ffff 			; <UNDEFINED> instruction: 0xffffffff
    9c54:	ffff ffff 			; <UNDEFINED> instruction: 0xffffffff
    9c58:	ffff ffff 			; <UNDEFINED> instruction: 0xffffffff
    9c5c:	ffff ffff 			; <UNDEFINED> instruction: 0xffffffff
    9c60:	ffff ffff 			; <UNDEFINED> instruction: 0xffffffff
    9c64:	ffff ffff 			; <UNDEFINED> instruction: 0xffffffff
    9c68:	ffff ffff 			; <UNDEFINED> instruction: 0xffffffff
    9c6c:	ffff ffff 			; <UNDEFINED> instruction: 0xffffffff
    9c70:	ffff ffff 			; <UNDEFINED> instruction: 0xffffffff
    9c74:	ffff ffff 			; <UNDEFINED> instruction: 0xffffffff
    9c78:	ffff ffff 			; <UNDEFINED> instruction: 0xffffffff
    9c7c:	ffff ffff 			; <UNDEFINED> instruction: 0xffffffff
    9c80:	ffff ffff 			; <UNDEFINED> instruction: 0xffffffff
    9c84:	ffff ffff 			; <UNDEFINED> instruction: 0xffffffff
    9c88:	ffff ffff 			; <UNDEFINED> instruction: 0xffffffff
    9c8c:	ffff ffff 			; <UNDEFINED> instruction: 0xffffffff
    9c90:	ffff ffff 			; <UNDEFINED> instruction: 0xffffffff
    9c94:	ffff ffff 			; <UNDEFINED> instruction: 0xffffffff
    9c98:	ffff ffff 			; <UNDEFINED> instruction: 0xffffffff
    9c9c:	ffff ffff 			; <UNDEFINED> instruction: 0xffffffff
    9ca0:	ffff ffff 			; <UNDEFINED> instruction: 0xffffffff
    9ca4:	ffff ffff 			; <UNDEFINED> instruction: 0xffffffff
    9ca8:	ffff ffff 			; <UNDEFINED> instruction: 0xffffffff
    9cac:	ffff ffff 			; <UNDEFINED> instruction: 0xffffffff
    9cb0:	ffff ffff 			; <UNDEFINED> instruction: 0xffffffff
    9cb4:	ffff ffff 			; <UNDEFINED> instruction: 0xffffffff
    9cb8:	ffff ffff 			; <UNDEFINED> instruction: 0xffffffff
    9cbc:	ffff ffff 			; <UNDEFINED> instruction: 0xffffffff
    9cc0:	ffff ffff 			; <UNDEFINED> instruction: 0xffffffff
    9cc4:	ffff ffff 			; <UNDEFINED> instruction: 0xffffffff
    9cc8:	ffff ffff 			; <UNDEFINED> instruction: 0xffffffff
    9ccc:	ffff ffff 			; <UNDEFINED> instruction: 0xffffffff
    9cd0:	ffff ffff 			; <UNDEFINED> instruction: 0xffffffff
    9cd4:	ffff ffff 			; <UNDEFINED> instruction: 0xffffffff
    9cd8:	ffff ffff 			; <UNDEFINED> instruction: 0xffffffff
    9cdc:	ffff ffff 			; <UNDEFINED> instruction: 0xffffffff
    9ce0:	ffff ffff 			; <UNDEFINED> instruction: 0xffffffff
    9ce4:	ffff ffff 			; <UNDEFINED> instruction: 0xffffffff
    9ce8:	ffff ffff 			; <UNDEFINED> instruction: 0xffffffff
    9cec:	ffff ffff 			; <UNDEFINED> instruction: 0xffffffff
    9cf0:	ffff ffff 			; <UNDEFINED> instruction: 0xffffffff
    9cf4:	ffff ffff 			; <UNDEFINED> instruction: 0xffffffff
    9cf8:	ffff ffff 			; <UNDEFINED> instruction: 0xffffffff
    9cfc:	ffff ffff 			; <UNDEFINED> instruction: 0xffffffff
    9d00:	ffff ffff 			; <UNDEFINED> instruction: 0xffffffff
    9d04:	ffff ffff 			; <UNDEFINED> instruction: 0xffffffff
    9d08:	ffff ffff 			; <UNDEFINED> instruction: 0xffffffff
    9d0c:	ffff ffff 			; <UNDEFINED> instruction: 0xffffffff
    9d10:	ffff ffff 			; <UNDEFINED> instruction: 0xffffffff
    9d14:	ffff ffff 			; <UNDEFINED> instruction: 0xffffffff
    9d18:	ffff ffff 			; <UNDEFINED> instruction: 0xffffffff
    9d1c:	ffff ffff 			; <UNDEFINED> instruction: 0xffffffff
    9d20:	ffff ffff 			; <UNDEFINED> instruction: 0xffffffff
    9d24:	ffff ffff 			; <UNDEFINED> instruction: 0xffffffff
    9d28:	ffff ffff 			; <UNDEFINED> instruction: 0xffffffff
    9d2c:	ffff ffff 			; <UNDEFINED> instruction: 0xffffffff
    9d30:	ffff ffff 			; <UNDEFINED> instruction: 0xffffffff
    9d34:	ffff ffff 			; <UNDEFINED> instruction: 0xffffffff
    9d38:	ffff ffff 			; <UNDEFINED> instruction: 0xffffffff
    9d3c:	ffff ffff 			; <UNDEFINED> instruction: 0xffffffff
    9d40:	ffff ffff 			; <UNDEFINED> instruction: 0xffffffff
    9d44:	ffff ffff 			; <UNDEFINED> instruction: 0xffffffff
    9d48:	ffff ffff 			; <UNDEFINED> instruction: 0xffffffff
    9d4c:	ffff ffff 			; <UNDEFINED> instruction: 0xffffffff
    9d50:	ffff ffff 			; <UNDEFINED> instruction: 0xffffffff
    9d54:	ffff ffff 			; <UNDEFINED> instruction: 0xffffffff
    9d58:	ffff ffff 			; <UNDEFINED> instruction: 0xffffffff
    9d5c:	ffff ffff 			; <UNDEFINED> instruction: 0xffffffff
    9d60:	ffff ffff 			; <UNDEFINED> instruction: 0xffffffff
    9d64:	ffff ffff 			; <UNDEFINED> instruction: 0xffffffff
    9d68:	ffff ffff 			; <UNDEFINED> instruction: 0xffffffff
    9d6c:	ffff ffff 			; <UNDEFINED> instruction: 0xffffffff
    9d70:	ffff ffff 			; <UNDEFINED> instruction: 0xffffffff
    9d74:	ffff ffff 			; <UNDEFINED> instruction: 0xffffffff
    9d78:	ffff ffff 			; <UNDEFINED> instruction: 0xffffffff
    9d7c:	ffff ffff 			; <UNDEFINED> instruction: 0xffffffff
    9d80:	ffff ffff 			; <UNDEFINED> instruction: 0xffffffff
    9d84:	ffff ffff 			; <UNDEFINED> instruction: 0xffffffff
    9d88:	ffff ffff 			; <UNDEFINED> instruction: 0xffffffff
    9d8c:	ffff ffff 			; <UNDEFINED> instruction: 0xffffffff
    9d90:	ffff ffff 			; <UNDEFINED> instruction: 0xffffffff
    9d94:	ffff ffff 			; <UNDEFINED> instruction: 0xffffffff
    9d98:	ffff ffff 			; <UNDEFINED> instruction: 0xffffffff
    9d9c:	ffff ffff 			; <UNDEFINED> instruction: 0xffffffff
    9da0:	ffff ffff 			; <UNDEFINED> instruction: 0xffffffff
    9da4:	ffff ffff 			; <UNDEFINED> instruction: 0xffffffff
    9da8:	ffff ffff 			; <UNDEFINED> instruction: 0xffffffff
    9dac:	ffff ffff 			; <UNDEFINED> instruction: 0xffffffff
    9db0:	ffff ffff 			; <UNDEFINED> instruction: 0xffffffff
    9db4:	ffff ffff 			; <UNDEFINED> instruction: 0xffffffff
    9db8:	ffff ffff 			; <UNDEFINED> instruction: 0xffffffff
    9dbc:	ffff ffff 			; <UNDEFINED> instruction: 0xffffffff
    9dc0:	ffff ffff 			; <UNDEFINED> instruction: 0xffffffff
    9dc4:	ffff ffff 			; <UNDEFINED> instruction: 0xffffffff
    9dc8:	ffff ffff 			; <UNDEFINED> instruction: 0xffffffff
    9dcc:	ffff ffff 			; <UNDEFINED> instruction: 0xffffffff
    9dd0:	ffff ffff 			; <UNDEFINED> instruction: 0xffffffff
    9dd4:	ffff ffff 			; <UNDEFINED> instruction: 0xffffffff
    9dd8:	ffff ffff 			; <UNDEFINED> instruction: 0xffffffff
    9ddc:	ffff ffff 			; <UNDEFINED> instruction: 0xffffffff
    9de0:	ffff ffff 			; <UNDEFINED> instruction: 0xffffffff
    9de4:	ffff ffff 			; <UNDEFINED> instruction: 0xffffffff
    9de8:	ffff ffff 			; <UNDEFINED> instruction: 0xffffffff
    9dec:	ffff ffff 			; <UNDEFINED> instruction: 0xffffffff
    9df0:	ffff ffff 			; <UNDEFINED> instruction: 0xffffffff
    9df4:	ffff ffff 			; <UNDEFINED> instruction: 0xffffffff
    9df8:	ffff ffff 			; <UNDEFINED> instruction: 0xffffffff
    9dfc:	ffff ffff 			; <UNDEFINED> instruction: 0xffffffff
    9e00:	ffff ffff 			; <UNDEFINED> instruction: 0xffffffff
    9e04:	ffff ffff 			; <UNDEFINED> instruction: 0xffffffff
    9e08:	ffff ffff 			; <UNDEFINED> instruction: 0xffffffff
    9e0c:	ffff ffff 			; <UNDEFINED> instruction: 0xffffffff
    9e10:	ffff ffff 			; <UNDEFINED> instruction: 0xffffffff
    9e14:	ffff ffff 			; <UNDEFINED> instruction: 0xffffffff
    9e18:	ffff ffff 			; <UNDEFINED> instruction: 0xffffffff
    9e1c:	ffff ffff 			; <UNDEFINED> instruction: 0xffffffff
    9e20:	ffff ffff 			; <UNDEFINED> instruction: 0xffffffff
    9e24:	ffff ffff 			; <UNDEFINED> instruction: 0xffffffff
    9e28:	ffff ffff 			; <UNDEFINED> instruction: 0xffffffff
    9e2c:	ffff ffff 			; <UNDEFINED> instruction: 0xffffffff
    9e30:	ffff ffff 			; <UNDEFINED> instruction: 0xffffffff
    9e34:	ffff ffff 			; <UNDEFINED> instruction: 0xffffffff
    9e38:	ffff ffff 			; <UNDEFINED> instruction: 0xffffffff
    9e3c:	ffff ffff 			; <UNDEFINED> instruction: 0xffffffff
    9e40:	ffff ffff 			; <UNDEFINED> instruction: 0xffffffff
    9e44:	ffff ffff 			; <UNDEFINED> instruction: 0xffffffff
    9e48:	ffff ffff 			; <UNDEFINED> instruction: 0xffffffff
    9e4c:	ffff ffff 			; <UNDEFINED> instruction: 0xffffffff
    9e50:	ffff ffff 			; <UNDEFINED> instruction: 0xffffffff
    9e54:	ffff ffff 			; <UNDEFINED> instruction: 0xffffffff
    9e58:	ffff ffff 			; <UNDEFINED> instruction: 0xffffffff
    9e5c:	ffff ffff 			; <UNDEFINED> instruction: 0xffffffff
    9e60:	ffff ffff 			; <UNDEFINED> instruction: 0xffffffff
    9e64:	ffff ffff 			; <UNDEFINED> instruction: 0xffffffff
    9e68:	ffff ffff 			; <UNDEFINED> instruction: 0xffffffff
    9e6c:	ffff ffff 			; <UNDEFINED> instruction: 0xffffffff
    9e70:	ffff ffff 			; <UNDEFINED> instruction: 0xffffffff
    9e74:	ffff ffff 			; <UNDEFINED> instruction: 0xffffffff
    9e78:	ffff ffff 			; <UNDEFINED> instruction: 0xffffffff
    9e7c:	ffff ffff 			; <UNDEFINED> instruction: 0xffffffff
    9e80:	ffff ffff 			; <UNDEFINED> instruction: 0xffffffff
    9e84:	ffff ffff 			; <UNDEFINED> instruction: 0xffffffff
    9e88:	ffff ffff 			; <UNDEFINED> instruction: 0xffffffff
    9e8c:	ffff ffff 			; <UNDEFINED> instruction: 0xffffffff
    9e90:	ffff ffff 			; <UNDEFINED> instruction: 0xffffffff
    9e94:	ffff ffff 			; <UNDEFINED> instruction: 0xffffffff
    9e98:	ffff ffff 			; <UNDEFINED> instruction: 0xffffffff
    9e9c:	ffff ffff 			; <UNDEFINED> instruction: 0xffffffff
    9ea0:	ffff ffff 			; <UNDEFINED> instruction: 0xffffffff
    9ea4:	ffff ffff 			; <UNDEFINED> instruction: 0xffffffff
    9ea8:	ffff ffff 			; <UNDEFINED> instruction: 0xffffffff
    9eac:	ffff ffff 			; <UNDEFINED> instruction: 0xffffffff
    9eb0:	ffff ffff 			; <UNDEFINED> instruction: 0xffffffff
    9eb4:	ffff ffff 			; <UNDEFINED> instruction: 0xffffffff
    9eb8:	ffff ffff 			; <UNDEFINED> instruction: 0xffffffff
    9ebc:	ffff ffff 			; <UNDEFINED> instruction: 0xffffffff
    9ec0:	ffff ffff 			; <UNDEFINED> instruction: 0xffffffff
    9ec4:	ffff ffff 			; <UNDEFINED> instruction: 0xffffffff
    9ec8:	ffff ffff 			; <UNDEFINED> instruction: 0xffffffff
    9ecc:	ffff ffff 			; <UNDEFINED> instruction: 0xffffffff
    9ed0:	ffff ffff 			; <UNDEFINED> instruction: 0xffffffff
    9ed4:	ffff ffff 			; <UNDEFINED> instruction: 0xffffffff
    9ed8:	ffff ffff 			; <UNDEFINED> instruction: 0xffffffff
    9edc:	ffff ffff 			; <UNDEFINED> instruction: 0xffffffff
    9ee0:	ffff ffff 			; <UNDEFINED> instruction: 0xffffffff
    9ee4:	ffff ffff 			; <UNDEFINED> instruction: 0xffffffff
    9ee8:	ffff ffff 			; <UNDEFINED> instruction: 0xffffffff
    9eec:	ffff ffff 			; <UNDEFINED> instruction: 0xffffffff
    9ef0:	ffff ffff 			; <UNDEFINED> instruction: 0xffffffff
    9ef4:	ffff ffff 			; <UNDEFINED> instruction: 0xffffffff
    9ef8:	ffff ffff 			; <UNDEFINED> instruction: 0xffffffff
    9efc:	ffff ffff 			; <UNDEFINED> instruction: 0xffffffff
    9f00:	ffff ffff 			; <UNDEFINED> instruction: 0xffffffff
    9f04:	ffff ffff 			; <UNDEFINED> instruction: 0xffffffff
    9f08:	ffff ffff 			; <UNDEFINED> instruction: 0xffffffff
    9f0c:	ffff ffff 			; <UNDEFINED> instruction: 0xffffffff
    9f10:	ffff ffff 			; <UNDEFINED> instruction: 0xffffffff
    9f14:	ffff ffff 			; <UNDEFINED> instruction: 0xffffffff
    9f18:	ffff ffff 			; <UNDEFINED> instruction: 0xffffffff
    9f1c:	ffff ffff 			; <UNDEFINED> instruction: 0xffffffff
    9f20:	ffff ffff 			; <UNDEFINED> instruction: 0xffffffff
    9f24:	ffff ffff 			; <UNDEFINED> instruction: 0xffffffff
    9f28:	ffff ffff 			; <UNDEFINED> instruction: 0xffffffff
    9f2c:	ffff ffff 			; <UNDEFINED> instruction: 0xffffffff
    9f30:	ffff ffff 			; <UNDEFINED> instruction: 0xffffffff
    9f34:	ffff ffff 			; <UNDEFINED> instruction: 0xffffffff
    9f38:	ffff ffff 			; <UNDEFINED> instruction: 0xffffffff
    9f3c:	ffff ffff 			; <UNDEFINED> instruction: 0xffffffff
    9f40:	ffff ffff 			; <UNDEFINED> instruction: 0xffffffff
    9f44:	ffff ffff 			; <UNDEFINED> instruction: 0xffffffff
    9f48:	ffff ffff 			; <UNDEFINED> instruction: 0xffffffff
    9f4c:	ffff ffff 			; <UNDEFINED> instruction: 0xffffffff
    9f50:	ffff ffff 			; <UNDEFINED> instruction: 0xffffffff
    9f54:	ffff ffff 			; <UNDEFINED> instruction: 0xffffffff
    9f58:	ffff ffff 			; <UNDEFINED> instruction: 0xffffffff
    9f5c:	ffff ffff 			; <UNDEFINED> instruction: 0xffffffff
    9f60:	ffff ffff 			; <UNDEFINED> instruction: 0xffffffff
    9f64:	ffff ffff 			; <UNDEFINED> instruction: 0xffffffff
    9f68:	ffff ffff 			; <UNDEFINED> instruction: 0xffffffff
    9f6c:	ffff ffff 			; <UNDEFINED> instruction: 0xffffffff
    9f70:	ffff ffff 			; <UNDEFINED> instruction: 0xffffffff
    9f74:	ffff ffff 			; <UNDEFINED> instruction: 0xffffffff
    9f78:	ffff ffff 			; <UNDEFINED> instruction: 0xffffffff
    9f7c:	ffff ffff 			; <UNDEFINED> instruction: 0xffffffff
    9f80:	ffff ffff 			; <UNDEFINED> instruction: 0xffffffff
    9f84:	ffff ffff 			; <UNDEFINED> instruction: 0xffffffff
    9f88:	ffff ffff 			; <UNDEFINED> instruction: 0xffffffff
    9f8c:	ffff ffff 			; <UNDEFINED> instruction: 0xffffffff
    9f90:	ffff ffff 			; <UNDEFINED> instruction: 0xffffffff
    9f94:	ffff ffff 			; <UNDEFINED> instruction: 0xffffffff
    9f98:	ffff ffff 			; <UNDEFINED> instruction: 0xffffffff
    9f9c:	ffff ffff 			; <UNDEFINED> instruction: 0xffffffff
    9fa0:	ffff ffff 			; <UNDEFINED> instruction: 0xffffffff
    9fa4:	ffff ffff 			; <UNDEFINED> instruction: 0xffffffff
    9fa8:	ffff ffff 			; <UNDEFINED> instruction: 0xffffffff
    9fac:	ffff ffff 			; <UNDEFINED> instruction: 0xffffffff
    9fb0:	ffff ffff 			; <UNDEFINED> instruction: 0xffffffff
    9fb4:	ffff ffff 			; <UNDEFINED> instruction: 0xffffffff
    9fb8:	ffff ffff 			; <UNDEFINED> instruction: 0xffffffff
    9fbc:	ffff ffff 			; <UNDEFINED> instruction: 0xffffffff
    9fc0:	ffff ffff 			; <UNDEFINED> instruction: 0xffffffff
    9fc4:	ffff ffff 			; <UNDEFINED> instruction: 0xffffffff
    9fc8:	ffff ffff 			; <UNDEFINED> instruction: 0xffffffff
    9fcc:	ffff ffff 			; <UNDEFINED> instruction: 0xffffffff
    9fd0:	ffff ffff 			; <UNDEFINED> instruction: 0xffffffff
    9fd4:	ffff ffff 			; <UNDEFINED> instruction: 0xffffffff
    9fd8:	ffff ffff 			; <UNDEFINED> instruction: 0xffffffff
    9fdc:	ffff ffff 			; <UNDEFINED> instruction: 0xffffffff
    9fe0:	ffff ffff 			; <UNDEFINED> instruction: 0xffffffff
    9fe4:	ffff ffff 			; <UNDEFINED> instruction: 0xffffffff
    9fe8:	ffff ffff 			; <UNDEFINED> instruction: 0xffffffff
    9fec:	ffff ffff 			; <UNDEFINED> instruction: 0xffffffff
    9ff0:	ffff ffff 			; <UNDEFINED> instruction: 0xffffffff
    9ff4:	ffff ffff 			; <UNDEFINED> instruction: 0xffffffff
    9ff8:	ffff ffff 			; <UNDEFINED> instruction: 0xffffffff
    9ffc:	ffff ffff 			; <UNDEFINED> instruction: 0xffffffff
    a000:	ffff ffff 			; <UNDEFINED> instruction: 0xffffffff
    a004:	ffff ffff 			; <UNDEFINED> instruction: 0xffffffff
    a008:	ffff ffff 			; <UNDEFINED> instruction: 0xffffffff
    a00c:	ffff ffff 			; <UNDEFINED> instruction: 0xffffffff
    a010:	ffff ffff 			; <UNDEFINED> instruction: 0xffffffff
    a014:	ffff ffff 			; <UNDEFINED> instruction: 0xffffffff
    a018:	ffff ffff 			; <UNDEFINED> instruction: 0xffffffff
    a01c:	ffff ffff 			; <UNDEFINED> instruction: 0xffffffff
    a020:	ffff ffff 			; <UNDEFINED> instruction: 0xffffffff
    a024:	ffff ffff 			; <UNDEFINED> instruction: 0xffffffff
    a028:	ffff ffff 			; <UNDEFINED> instruction: 0xffffffff
    a02c:	ffff ffff 			; <UNDEFINED> instruction: 0xffffffff
    a030:	ffff ffff 			; <UNDEFINED> instruction: 0xffffffff
    a034:	ffff ffff 			; <UNDEFINED> instruction: 0xffffffff
    a038:	ffff ffff 			; <UNDEFINED> instruction: 0xffffffff
    a03c:	ffff ffff 			; <UNDEFINED> instruction: 0xffffffff
    a040:	ffff ffff 			; <UNDEFINED> instruction: 0xffffffff
    a044:	ffff ffff 			; <UNDEFINED> instruction: 0xffffffff
    a048:	ffff ffff 			; <UNDEFINED> instruction: 0xffffffff
    a04c:	ffff ffff 			; <UNDEFINED> instruction: 0xffffffff
    a050:	ffff ffff 			; <UNDEFINED> instruction: 0xffffffff
    a054:	ffff ffff 			; <UNDEFINED> instruction: 0xffffffff
    a058:	ffff ffff 			; <UNDEFINED> instruction: 0xffffffff
    a05c:	ffff ffff 			; <UNDEFINED> instruction: 0xffffffff
    a060:	ffff ffff 			; <UNDEFINED> instruction: 0xffffffff
    a064:	ffff ffff 			; <UNDEFINED> instruction: 0xffffffff
    a068:	ffff ffff 			; <UNDEFINED> instruction: 0xffffffff
    a06c:	ffff ffff 			; <UNDEFINED> instruction: 0xffffffff
    a070:	ffff ffff 			; <UNDEFINED> instruction: 0xffffffff
    a074:	ffff ffff 			; <UNDEFINED> instruction: 0xffffffff
    a078:	ffff ffff 			; <UNDEFINED> instruction: 0xffffffff
    a07c:	ffff ffff 			; <UNDEFINED> instruction: 0xffffffff
    a080:	ffff ffff 			; <UNDEFINED> instruction: 0xffffffff
    a084:	ffff ffff 			; <UNDEFINED> instruction: 0xffffffff
    a088:	ffff ffff 			; <UNDEFINED> instruction: 0xffffffff
    a08c:	ffff ffff 			; <UNDEFINED> instruction: 0xffffffff
    a090:	ffff ffff 			; <UNDEFINED> instruction: 0xffffffff
    a094:	ffff ffff 			; <UNDEFINED> instruction: 0xffffffff
    a098:	ffff ffff 			; <UNDEFINED> instruction: 0xffffffff
    a09c:	ffff ffff 			; <UNDEFINED> instruction: 0xffffffff
    a0a0:	ffff ffff 			; <UNDEFINED> instruction: 0xffffffff
    a0a4:	ffff ffff 			; <UNDEFINED> instruction: 0xffffffff
    a0a8:	ffff ffff 			; <UNDEFINED> instruction: 0xffffffff
    a0ac:	ffff ffff 			; <UNDEFINED> instruction: 0xffffffff
    a0b0:	ffff ffff 			; <UNDEFINED> instruction: 0xffffffff
    a0b4:	ffff ffff 			; <UNDEFINED> instruction: 0xffffffff
    a0b8:	ffff ffff 			; <UNDEFINED> instruction: 0xffffffff
    a0bc:	ffff ffff 			; <UNDEFINED> instruction: 0xffffffff
    a0c0:	ffff ffff 			; <UNDEFINED> instruction: 0xffffffff
    a0c4:	ffff ffff 			; <UNDEFINED> instruction: 0xffffffff
    a0c8:	ffff ffff 			; <UNDEFINED> instruction: 0xffffffff
    a0cc:	ffff ffff 			; <UNDEFINED> instruction: 0xffffffff
    a0d0:	ffff ffff 			; <UNDEFINED> instruction: 0xffffffff
    a0d4:	ffff ffff 			; <UNDEFINED> instruction: 0xffffffff
    a0d8:	ffff ffff 			; <UNDEFINED> instruction: 0xffffffff
    a0dc:	ffff ffff 			; <UNDEFINED> instruction: 0xffffffff
    a0e0:	ffff ffff 			; <UNDEFINED> instruction: 0xffffffff
    a0e4:	ffff ffff 			; <UNDEFINED> instruction: 0xffffffff
    a0e8:	ffff ffff 			; <UNDEFINED> instruction: 0xffffffff
    a0ec:	ffff ffff 			; <UNDEFINED> instruction: 0xffffffff
    a0f0:	ffff ffff 			; <UNDEFINED> instruction: 0xffffffff
    a0f4:	ffff ffff 			; <UNDEFINED> instruction: 0xffffffff
    a0f8:	ffff ffff 			; <UNDEFINED> instruction: 0xffffffff
    a0fc:	ffff ffff 			; <UNDEFINED> instruction: 0xffffffff
    a100:	ffff ffff 			; <UNDEFINED> instruction: 0xffffffff
    a104:	ffff ffff 			; <UNDEFINED> instruction: 0xffffffff
    a108:	ffff ffff 			; <UNDEFINED> instruction: 0xffffffff
    a10c:	ffff ffff 			; <UNDEFINED> instruction: 0xffffffff
    a110:	ffff ffff 			; <UNDEFINED> instruction: 0xffffffff
    a114:	ffff ffff 			; <UNDEFINED> instruction: 0xffffffff
    a118:	ffff ffff 			; <UNDEFINED> instruction: 0xffffffff
    a11c:	ffff ffff 			; <UNDEFINED> instruction: 0xffffffff
    a120:	ffff ffff 			; <UNDEFINED> instruction: 0xffffffff
    a124:	ffff ffff 			; <UNDEFINED> instruction: 0xffffffff
    a128:	ffff ffff 			; <UNDEFINED> instruction: 0xffffffff
    a12c:	ffff ffff 			; <UNDEFINED> instruction: 0xffffffff
    a130:	ffff ffff 			; <UNDEFINED> instruction: 0xffffffff
    a134:	ffff ffff 			; <UNDEFINED> instruction: 0xffffffff
    a138:	ffff ffff 			; <UNDEFINED> instruction: 0xffffffff
    a13c:	ffff ffff 			; <UNDEFINED> instruction: 0xffffffff
    a140:	ffff ffff 			; <UNDEFINED> instruction: 0xffffffff
    a144:	ffff ffff 			; <UNDEFINED> instruction: 0xffffffff
    a148:	ffff ffff 			; <UNDEFINED> instruction: 0xffffffff
    a14c:	ffff ffff 			; <UNDEFINED> instruction: 0xffffffff
    a150:	ffff ffff 			; <UNDEFINED> instruction: 0xffffffff
    a154:	ffff ffff 			; <UNDEFINED> instruction: 0xffffffff
    a158:	ffff ffff 			; <UNDEFINED> instruction: 0xffffffff
    a15c:	ffff ffff 			; <UNDEFINED> instruction: 0xffffffff
    a160:	ffff ffff 			; <UNDEFINED> instruction: 0xffffffff
    a164:	ffff ffff 			; <UNDEFINED> instruction: 0xffffffff
    a168:	ffff ffff 			; <UNDEFINED> instruction: 0xffffffff
    a16c:	ffff ffff 			; <UNDEFINED> instruction: 0xffffffff
    a170:	ffff ffff 			; <UNDEFINED> instruction: 0xffffffff
    a174:	ffff ffff 			; <UNDEFINED> instruction: 0xffffffff
    a178:	ffff ffff 			; <UNDEFINED> instruction: 0xffffffff
    a17c:	ffff ffff 			; <UNDEFINED> instruction: 0xffffffff
    a180:	ffff ffff 			; <UNDEFINED> instruction: 0xffffffff
    a184:	ffff ffff 			; <UNDEFINED> instruction: 0xffffffff
    a188:	ffff ffff 			; <UNDEFINED> instruction: 0xffffffff
    a18c:	ffff ffff 			; <UNDEFINED> instruction: 0xffffffff
    a190:	ffff ffff 			; <UNDEFINED> instruction: 0xffffffff
    a194:	ffff ffff 			; <UNDEFINED> instruction: 0xffffffff
    a198:	ffff ffff 			; <UNDEFINED> instruction: 0xffffffff
    a19c:	ffff ffff 			; <UNDEFINED> instruction: 0xffffffff
    a1a0:	ffff ffff 			; <UNDEFINED> instruction: 0xffffffff
    a1a4:	ffff ffff 			; <UNDEFINED> instruction: 0xffffffff
    a1a8:	ffff ffff 			; <UNDEFINED> instruction: 0xffffffff
    a1ac:	ffff ffff 			; <UNDEFINED> instruction: 0xffffffff
    a1b0:	ffff ffff 			; <UNDEFINED> instruction: 0xffffffff
    a1b4:	ffff ffff 			; <UNDEFINED> instruction: 0xffffffff
    a1b8:	ffff ffff 			; <UNDEFINED> instruction: 0xffffffff
    a1bc:	ffff ffff 			; <UNDEFINED> instruction: 0xffffffff
    a1c0:	ffff ffff 			; <UNDEFINED> instruction: 0xffffffff
    a1c4:	ffff ffff 			; <UNDEFINED> instruction: 0xffffffff
    a1c8:	ffff ffff 			; <UNDEFINED> instruction: 0xffffffff
    a1cc:	ffff ffff 			; <UNDEFINED> instruction: 0xffffffff
    a1d0:	ffff ffff 			; <UNDEFINED> instruction: 0xffffffff
    a1d4:	ffff ffff 			; <UNDEFINED> instruction: 0xffffffff
    a1d8:	ffff ffff 			; <UNDEFINED> instruction: 0xffffffff
    a1dc:	ffff ffff 			; <UNDEFINED> instruction: 0xffffffff
    a1e0:	ffff ffff 			; <UNDEFINED> instruction: 0xffffffff
    a1e4:	ffff ffff 			; <UNDEFINED> instruction: 0xffffffff
    a1e8:	ffff ffff 			; <UNDEFINED> instruction: 0xffffffff
    a1ec:	ffff ffff 			; <UNDEFINED> instruction: 0xffffffff
    a1f0:	ffff ffff 			; <UNDEFINED> instruction: 0xffffffff
    a1f4:	ffff ffff 			; <UNDEFINED> instruction: 0xffffffff
    a1f8:	ffff ffff 			; <UNDEFINED> instruction: 0xffffffff
    a1fc:	ffff ffff 			; <UNDEFINED> instruction: 0xffffffff
    a200:	ffff ffff 			; <UNDEFINED> instruction: 0xffffffff
    a204:	ffff ffff 			; <UNDEFINED> instruction: 0xffffffff
    a208:	ffff ffff 			; <UNDEFINED> instruction: 0xffffffff
    a20c:	ffff ffff 			; <UNDEFINED> instruction: 0xffffffff
    a210:	ffff ffff 			; <UNDEFINED> instruction: 0xffffffff
    a214:	ffff ffff 			; <UNDEFINED> instruction: 0xffffffff
    a218:	ffff ffff 			; <UNDEFINED> instruction: 0xffffffff
    a21c:	ffff ffff 			; <UNDEFINED> instruction: 0xffffffff
    a220:	ffff ffff 			; <UNDEFINED> instruction: 0xffffffff
    a224:	ffff ffff 			; <UNDEFINED> instruction: 0xffffffff
    a228:	ffff ffff 			; <UNDEFINED> instruction: 0xffffffff
    a22c:	ffff ffff 			; <UNDEFINED> instruction: 0xffffffff
    a230:	ffff ffff 			; <UNDEFINED> instruction: 0xffffffff
    a234:	ffff ffff 			; <UNDEFINED> instruction: 0xffffffff
    a238:	ffff ffff 			; <UNDEFINED> instruction: 0xffffffff
    a23c:	ffff ffff 			; <UNDEFINED> instruction: 0xffffffff
    a240:	ffff ffff 			; <UNDEFINED> instruction: 0xffffffff
    a244:	ffff ffff 			; <UNDEFINED> instruction: 0xffffffff
    a248:	ffff ffff 			; <UNDEFINED> instruction: 0xffffffff
    a24c:	ffff ffff 			; <UNDEFINED> instruction: 0xffffffff
    a250:	ffff ffff 			; <UNDEFINED> instruction: 0xffffffff
    a254:	ffff ffff 			; <UNDEFINED> instruction: 0xffffffff
    a258:	ffff ffff 			; <UNDEFINED> instruction: 0xffffffff
    a25c:	ffff ffff 			; <UNDEFINED> instruction: 0xffffffff
    a260:	ffff ffff 			; <UNDEFINED> instruction: 0xffffffff
    a264:	ffff ffff 			; <UNDEFINED> instruction: 0xffffffff
    a268:	ffff ffff 			; <UNDEFINED> instruction: 0xffffffff
    a26c:	ffff ffff 			; <UNDEFINED> instruction: 0xffffffff
    a270:	ffff ffff 			; <UNDEFINED> instruction: 0xffffffff
    a274:	ffff ffff 			; <UNDEFINED> instruction: 0xffffffff
    a278:	ffff ffff 			; <UNDEFINED> instruction: 0xffffffff
    a27c:	ffff ffff 			; <UNDEFINED> instruction: 0xffffffff
    a280:	ffff ffff 			; <UNDEFINED> instruction: 0xffffffff
    a284:	ffff ffff 			; <UNDEFINED> instruction: 0xffffffff
    a288:	ffff ffff 			; <UNDEFINED> instruction: 0xffffffff
    a28c:	ffff ffff 			; <UNDEFINED> instruction: 0xffffffff
    a290:	ffff ffff 			; <UNDEFINED> instruction: 0xffffffff
    a294:	ffff ffff 			; <UNDEFINED> instruction: 0xffffffff
    a298:	ffff ffff 			; <UNDEFINED> instruction: 0xffffffff
    a29c:	ffff ffff 			; <UNDEFINED> instruction: 0xffffffff
    a2a0:	ffff ffff 			; <UNDEFINED> instruction: 0xffffffff
    a2a4:	ffff ffff 			; <UNDEFINED> instruction: 0xffffffff
    a2a8:	ffff ffff 			; <UNDEFINED> instruction: 0xffffffff
    a2ac:	ffff ffff 			; <UNDEFINED> instruction: 0xffffffff
    a2b0:	ffff ffff 			; <UNDEFINED> instruction: 0xffffffff
    a2b4:	ffff ffff 			; <UNDEFINED> instruction: 0xffffffff
    a2b8:	ffff ffff 			; <UNDEFINED> instruction: 0xffffffff
    a2bc:	ffff ffff 			; <UNDEFINED> instruction: 0xffffffff
    a2c0:	ffff ffff 			; <UNDEFINED> instruction: 0xffffffff
    a2c4:	ffff ffff 			; <UNDEFINED> instruction: 0xffffffff
    a2c8:	ffff ffff 			; <UNDEFINED> instruction: 0xffffffff
    a2cc:	ffff ffff 			; <UNDEFINED> instruction: 0xffffffff
    a2d0:	ffff ffff 			; <UNDEFINED> instruction: 0xffffffff
    a2d4:	ffff ffff 			; <UNDEFINED> instruction: 0xffffffff
    a2d8:	ffff ffff 			; <UNDEFINED> instruction: 0xffffffff
    a2dc:	ffff ffff 			; <UNDEFINED> instruction: 0xffffffff
    a2e0:	ffff ffff 			; <UNDEFINED> instruction: 0xffffffff
    a2e4:	ffff ffff 			; <UNDEFINED> instruction: 0xffffffff
    a2e8:	ffff ffff 			; <UNDEFINED> instruction: 0xffffffff
    a2ec:	ffff ffff 			; <UNDEFINED> instruction: 0xffffffff
    a2f0:	ffff ffff 			; <UNDEFINED> instruction: 0xffffffff
    a2f4:	ffff ffff 			; <UNDEFINED> instruction: 0xffffffff
    a2f8:	ffff ffff 			; <UNDEFINED> instruction: 0xffffffff
    a2fc:	ffff ffff 			; <UNDEFINED> instruction: 0xffffffff
    a300:	ffff ffff 			; <UNDEFINED> instruction: 0xffffffff
    a304:	ffff ffff 			; <UNDEFINED> instruction: 0xffffffff
    a308:	ffff ffff 			; <UNDEFINED> instruction: 0xffffffff
    a30c:	ffff ffff 			; <UNDEFINED> instruction: 0xffffffff
    a310:	ffff ffff 			; <UNDEFINED> instruction: 0xffffffff
    a314:	ffff ffff 			; <UNDEFINED> instruction: 0xffffffff
    a318:	ffff ffff 			; <UNDEFINED> instruction: 0xffffffff
    a31c:	ffff ffff 			; <UNDEFINED> instruction: 0xffffffff
    a320:	ffff ffff 			; <UNDEFINED> instruction: 0xffffffff
    a324:	ffff ffff 			; <UNDEFINED> instruction: 0xffffffff
    a328:	ffff ffff 			; <UNDEFINED> instruction: 0xffffffff
    a32c:	ffff ffff 			; <UNDEFINED> instruction: 0xffffffff
    a330:	ffff ffff 			; <UNDEFINED> instruction: 0xffffffff
    a334:	ffff ffff 			; <UNDEFINED> instruction: 0xffffffff
    a338:	ffff ffff 			; <UNDEFINED> instruction: 0xffffffff
    a33c:	ffff ffff 			; <UNDEFINED> instruction: 0xffffffff
    a340:	ffff ffff 			; <UNDEFINED> instruction: 0xffffffff
    a344:	ffff ffff 			; <UNDEFINED> instruction: 0xffffffff
    a348:	ffff ffff 			; <UNDEFINED> instruction: 0xffffffff
    a34c:	ffff ffff 			; <UNDEFINED> instruction: 0xffffffff
    a350:	ffff ffff 			; <UNDEFINED> instruction: 0xffffffff
    a354:	ffff ffff 			; <UNDEFINED> instruction: 0xffffffff
    a358:	ffff ffff 			; <UNDEFINED> instruction: 0xffffffff
    a35c:	ffff ffff 			; <UNDEFINED> instruction: 0xffffffff
    a360:	ffff ffff 			; <UNDEFINED> instruction: 0xffffffff
    a364:	ffff ffff 			; <UNDEFINED> instruction: 0xffffffff
    a368:	ffff ffff 			; <UNDEFINED> instruction: 0xffffffff
    a36c:	ffff ffff 			; <UNDEFINED> instruction: 0xffffffff
    a370:	ffff ffff 			; <UNDEFINED> instruction: 0xffffffff
    a374:	ffff ffff 			; <UNDEFINED> instruction: 0xffffffff
    a378:	ffff ffff 			; <UNDEFINED> instruction: 0xffffffff
    a37c:	ffff ffff 			; <UNDEFINED> instruction: 0xffffffff
    a380:	ffff ffff 			; <UNDEFINED> instruction: 0xffffffff
    a384:	ffff ffff 			; <UNDEFINED> instruction: 0xffffffff
    a388:	ffff ffff 			; <UNDEFINED> instruction: 0xffffffff
    a38c:	ffff ffff 			; <UNDEFINED> instruction: 0xffffffff
    a390:	ffff ffff 			; <UNDEFINED> instruction: 0xffffffff
    a394:	ffff ffff 			; <UNDEFINED> instruction: 0xffffffff
    a398:	ffff ffff 			; <UNDEFINED> instruction: 0xffffffff
    a39c:	ffff ffff 			; <UNDEFINED> instruction: 0xffffffff
    a3a0:	ffff ffff 			; <UNDEFINED> instruction: 0xffffffff
    a3a4:	ffff ffff 			; <UNDEFINED> instruction: 0xffffffff
    a3a8:	ffff ffff 			; <UNDEFINED> instruction: 0xffffffff
    a3ac:	ffff ffff 			; <UNDEFINED> instruction: 0xffffffff
    a3b0:	ffff ffff 			; <UNDEFINED> instruction: 0xffffffff
    a3b4:	ffff ffff 			; <UNDEFINED> instruction: 0xffffffff
    a3b8:	ffff ffff 			; <UNDEFINED> instruction: 0xffffffff
    a3bc:	ffff ffff 			; <UNDEFINED> instruction: 0xffffffff
    a3c0:	ffff ffff 			; <UNDEFINED> instruction: 0xffffffff
    a3c4:	ffff ffff 			; <UNDEFINED> instruction: 0xffffffff
    a3c8:	ffff ffff 			; <UNDEFINED> instruction: 0xffffffff
    a3cc:	ffff ffff 			; <UNDEFINED> instruction: 0xffffffff
    a3d0:	ffff ffff 			; <UNDEFINED> instruction: 0xffffffff
    a3d4:	ffff ffff 			; <UNDEFINED> instruction: 0xffffffff
    a3d8:	ffff ffff 			; <UNDEFINED> instruction: 0xffffffff
    a3dc:	ffff ffff 			; <UNDEFINED> instruction: 0xffffffff
    a3e0:	ffff ffff 			; <UNDEFINED> instruction: 0xffffffff
    a3e4:	ffff ffff 			; <UNDEFINED> instruction: 0xffffffff
    a3e8:	ffff ffff 			; <UNDEFINED> instruction: 0xffffffff
    a3ec:	ffff ffff 			; <UNDEFINED> instruction: 0xffffffff
    a3f0:	ffff ffff 			; <UNDEFINED> instruction: 0xffffffff
    a3f4:	ffff ffff 			; <UNDEFINED> instruction: 0xffffffff
    a3f8:	ffff ffff 			; <UNDEFINED> instruction: 0xffffffff
    a3fc:	ffff ffff 			; <UNDEFINED> instruction: 0xffffffff
    a400:	ffff ffff 			; <UNDEFINED> instruction: 0xffffffff
    a404:	ffff ffff 			; <UNDEFINED> instruction: 0xffffffff
    a408:	ffff ffff 			; <UNDEFINED> instruction: 0xffffffff
    a40c:	ffff ffff 			; <UNDEFINED> instruction: 0xffffffff
    a410:	ffff ffff 			; <UNDEFINED> instruction: 0xffffffff
    a414:	ffff ffff 			; <UNDEFINED> instruction: 0xffffffff
    a418:	ffff ffff 			; <UNDEFINED> instruction: 0xffffffff
    a41c:	ffff ffff 			; <UNDEFINED> instruction: 0xffffffff
    a420:	ffff ffff 			; <UNDEFINED> instruction: 0xffffffff
    a424:	ffff ffff 			; <UNDEFINED> instruction: 0xffffffff
    a428:	ffff ffff 			; <UNDEFINED> instruction: 0xffffffff
    a42c:	ffff ffff 			; <UNDEFINED> instruction: 0xffffffff
    a430:	ffff ffff 			; <UNDEFINED> instruction: 0xffffffff
    a434:	ffff ffff 			; <UNDEFINED> instruction: 0xffffffff
    a438:	ffff ffff 			; <UNDEFINED> instruction: 0xffffffff
    a43c:	ffff ffff 			; <UNDEFINED> instruction: 0xffffffff
    a440:	ffff ffff 			; <UNDEFINED> instruction: 0xffffffff
    a444:	ffff ffff 			; <UNDEFINED> instruction: 0xffffffff
    a448:	ffff ffff 			; <UNDEFINED> instruction: 0xffffffff
    a44c:	ffff ffff 			; <UNDEFINED> instruction: 0xffffffff
    a450:	ffff ffff 			; <UNDEFINED> instruction: 0xffffffff
    a454:	ffff ffff 			; <UNDEFINED> instruction: 0xffffffff
    a458:	ffff ffff 			; <UNDEFINED> instruction: 0xffffffff
    a45c:	ffff ffff 			; <UNDEFINED> instruction: 0xffffffff
    a460:	ffff ffff 			; <UNDEFINED> instruction: 0xffffffff
    a464:	ffff ffff 			; <UNDEFINED> instruction: 0xffffffff
    a468:	ffff ffff 			; <UNDEFINED> instruction: 0xffffffff
    a46c:	ffff ffff 			; <UNDEFINED> instruction: 0xffffffff
    a470:	ffff ffff 			; <UNDEFINED> instruction: 0xffffffff
    a474:	ffff ffff 			; <UNDEFINED> instruction: 0xffffffff
    a478:	ffff ffff 			; <UNDEFINED> instruction: 0xffffffff
    a47c:	ffff ffff 			; <UNDEFINED> instruction: 0xffffffff
    a480:	ffff ffff 			; <UNDEFINED> instruction: 0xffffffff
    a484:	ffff ffff 			; <UNDEFINED> instruction: 0xffffffff
    a488:	ffff ffff 			; <UNDEFINED> instruction: 0xffffffff
    a48c:	ffff ffff 			; <UNDEFINED> instruction: 0xffffffff
    a490:	ffff ffff 			; <UNDEFINED> instruction: 0xffffffff
    a494:	ffff ffff 			; <UNDEFINED> instruction: 0xffffffff
    a498:	ffff ffff 			; <UNDEFINED> instruction: 0xffffffff
    a49c:	ffff ffff 			; <UNDEFINED> instruction: 0xffffffff
    a4a0:	ffff ffff 			; <UNDEFINED> instruction: 0xffffffff
    a4a4:	ffff ffff 			; <UNDEFINED> instruction: 0xffffffff
    a4a8:	ffff ffff 			; <UNDEFINED> instruction: 0xffffffff
    a4ac:	ffff ffff 			; <UNDEFINED> instruction: 0xffffffff
    a4b0:	ffff ffff 			; <UNDEFINED> instruction: 0xffffffff
    a4b4:	ffff ffff 			; <UNDEFINED> instruction: 0xffffffff
    a4b8:	ffff ffff 			; <UNDEFINED> instruction: 0xffffffff
    a4bc:	ffff ffff 			; <UNDEFINED> instruction: 0xffffffff
    a4c0:	ffff ffff 			; <UNDEFINED> instruction: 0xffffffff
    a4c4:	ffff ffff 			; <UNDEFINED> instruction: 0xffffffff
    a4c8:	ffff ffff 			; <UNDEFINED> instruction: 0xffffffff
    a4cc:	ffff ffff 			; <UNDEFINED> instruction: 0xffffffff
    a4d0:	ffff ffff 			; <UNDEFINED> instruction: 0xffffffff
    a4d4:	ffff ffff 			; <UNDEFINED> instruction: 0xffffffff
    a4d8:	ffff ffff 			; <UNDEFINED> instruction: 0xffffffff
    a4dc:	ffff ffff 			; <UNDEFINED> instruction: 0xffffffff
    a4e0:	ffff ffff 			; <UNDEFINED> instruction: 0xffffffff
    a4e4:	ffff ffff 			; <UNDEFINED> instruction: 0xffffffff
    a4e8:	ffff ffff 			; <UNDEFINED> instruction: 0xffffffff
    a4ec:	ffff ffff 			; <UNDEFINED> instruction: 0xffffffff
    a4f0:	ffff ffff 			; <UNDEFINED> instruction: 0xffffffff
    a4f4:	ffff ffff 			; <UNDEFINED> instruction: 0xffffffff
    a4f8:	ffff ffff 			; <UNDEFINED> instruction: 0xffffffff
    a4fc:	ffff ffff 			; <UNDEFINED> instruction: 0xffffffff
    a500:	ffff ffff 			; <UNDEFINED> instruction: 0xffffffff
    a504:	ffff ffff 			; <UNDEFINED> instruction: 0xffffffff
    a508:	ffff ffff 			; <UNDEFINED> instruction: 0xffffffff
    a50c:	ffff ffff 			; <UNDEFINED> instruction: 0xffffffff
    a510:	ffff ffff 			; <UNDEFINED> instruction: 0xffffffff
    a514:	ffff ffff 			; <UNDEFINED> instruction: 0xffffffff
    a518:	ffff ffff 			; <UNDEFINED> instruction: 0xffffffff
    a51c:	ffff ffff 			; <UNDEFINED> instruction: 0xffffffff
    a520:	ffff ffff 			; <UNDEFINED> instruction: 0xffffffff
    a524:	ffff ffff 			; <UNDEFINED> instruction: 0xffffffff
    a528:	ffff ffff 			; <UNDEFINED> instruction: 0xffffffff
    a52c:	ffff ffff 			; <UNDEFINED> instruction: 0xffffffff
    a530:	ffff ffff 			; <UNDEFINED> instruction: 0xffffffff
    a534:	ffff ffff 			; <UNDEFINED> instruction: 0xffffffff
    a538:	ffff ffff 			; <UNDEFINED> instruction: 0xffffffff
    a53c:	ffff ffff 			; <UNDEFINED> instruction: 0xffffffff
    a540:	ffff ffff 			; <UNDEFINED> instruction: 0xffffffff
    a544:	ffff ffff 			; <UNDEFINED> instruction: 0xffffffff
    a548:	ffff ffff 			; <UNDEFINED> instruction: 0xffffffff
    a54c:	ffff ffff 			; <UNDEFINED> instruction: 0xffffffff
    a550:	ffff ffff 			; <UNDEFINED> instruction: 0xffffffff
    a554:	ffff ffff 			; <UNDEFINED> instruction: 0xffffffff
    a558:	ffff ffff 			; <UNDEFINED> instruction: 0xffffffff
    a55c:	ffff ffff 			; <UNDEFINED> instruction: 0xffffffff
    a560:	ffff ffff 			; <UNDEFINED> instruction: 0xffffffff
    a564:	ffff ffff 			; <UNDEFINED> instruction: 0xffffffff
    a568:	ffff ffff 			; <UNDEFINED> instruction: 0xffffffff
    a56c:	ffff ffff 			; <UNDEFINED> instruction: 0xffffffff
    a570:	ffff ffff 			; <UNDEFINED> instruction: 0xffffffff
    a574:	ffff ffff 			; <UNDEFINED> instruction: 0xffffffff
    a578:	ffff ffff 			; <UNDEFINED> instruction: 0xffffffff
    a57c:	ffff ffff 			; <UNDEFINED> instruction: 0xffffffff
    a580:	ffff ffff 			; <UNDEFINED> instruction: 0xffffffff
    a584:	ffff ffff 			; <UNDEFINED> instruction: 0xffffffff
    a588:	ffff ffff 			; <UNDEFINED> instruction: 0xffffffff
    a58c:	ffff ffff 			; <UNDEFINED> instruction: 0xffffffff
    a590:	ffff ffff 			; <UNDEFINED> instruction: 0xffffffff
    a594:	ffff ffff 			; <UNDEFINED> instruction: 0xffffffff
    a598:	ffff ffff 			; <UNDEFINED> instruction: 0xffffffff
    a59c:	ffff ffff 			; <UNDEFINED> instruction: 0xffffffff
    a5a0:	ffff ffff 			; <UNDEFINED> instruction: 0xffffffff
    a5a4:	ffff ffff 			; <UNDEFINED> instruction: 0xffffffff
    a5a8:	ffff ffff 			; <UNDEFINED> instruction: 0xffffffff
    a5ac:	ffff ffff 			; <UNDEFINED> instruction: 0xffffffff
    a5b0:	ffff ffff 			; <UNDEFINED> instruction: 0xffffffff
    a5b4:	ffff ffff 			; <UNDEFINED> instruction: 0xffffffff
    a5b8:	ffff ffff 			; <UNDEFINED> instruction: 0xffffffff
    a5bc:	ffff ffff 			; <UNDEFINED> instruction: 0xffffffff
    a5c0:	ffff ffff 			; <UNDEFINED> instruction: 0xffffffff
    a5c4:	ffff ffff 			; <UNDEFINED> instruction: 0xffffffff
    a5c8:	ffff ffff 			; <UNDEFINED> instruction: 0xffffffff
    a5cc:	ffff ffff 			; <UNDEFINED> instruction: 0xffffffff
    a5d0:	ffff ffff 			; <UNDEFINED> instruction: 0xffffffff
    a5d4:	ffff ffff 			; <UNDEFINED> instruction: 0xffffffff
    a5d8:	ffff ffff 			; <UNDEFINED> instruction: 0xffffffff
    a5dc:	ffff ffff 			; <UNDEFINED> instruction: 0xffffffff
    a5e0:	ffff ffff 			; <UNDEFINED> instruction: 0xffffffff
    a5e4:	ffff ffff 			; <UNDEFINED> instruction: 0xffffffff
    a5e8:	ffff ffff 			; <UNDEFINED> instruction: 0xffffffff
    a5ec:	ffff ffff 			; <UNDEFINED> instruction: 0xffffffff
    a5f0:	ffff ffff 			; <UNDEFINED> instruction: 0xffffffff
    a5f4:	ffff ffff 			; <UNDEFINED> instruction: 0xffffffff
    a5f8:	ffff ffff 			; <UNDEFINED> instruction: 0xffffffff
    a5fc:	ffff ffff 			; <UNDEFINED> instruction: 0xffffffff
    a600:	ffff ffff 			; <UNDEFINED> instruction: 0xffffffff
    a604:	ffff ffff 			; <UNDEFINED> instruction: 0xffffffff
    a608:	ffff ffff 			; <UNDEFINED> instruction: 0xffffffff
    a60c:	ffff ffff 			; <UNDEFINED> instruction: 0xffffffff
    a610:	ffff ffff 			; <UNDEFINED> instruction: 0xffffffff
    a614:	ffff ffff 			; <UNDEFINED> instruction: 0xffffffff
    a618:	ffff ffff 			; <UNDEFINED> instruction: 0xffffffff
    a61c:	ffff ffff 			; <UNDEFINED> instruction: 0xffffffff
    a620:	ffff ffff 			; <UNDEFINED> instruction: 0xffffffff
    a624:	ffff ffff 			; <UNDEFINED> instruction: 0xffffffff
    a628:	ffff ffff 			; <UNDEFINED> instruction: 0xffffffff
    a62c:	ffff ffff 			; <UNDEFINED> instruction: 0xffffffff
    a630:	ffff ffff 			; <UNDEFINED> instruction: 0xffffffff
    a634:	ffff ffff 			; <UNDEFINED> instruction: 0xffffffff
    a638:	ffff ffff 			; <UNDEFINED> instruction: 0xffffffff
    a63c:	ffff ffff 			; <UNDEFINED> instruction: 0xffffffff
    a640:	ffff ffff 			; <UNDEFINED> instruction: 0xffffffff
    a644:	ffff ffff 			; <UNDEFINED> instruction: 0xffffffff
    a648:	ffff ffff 			; <UNDEFINED> instruction: 0xffffffff
    a64c:	ffff ffff 			; <UNDEFINED> instruction: 0xffffffff
    a650:	ffff ffff 			; <UNDEFINED> instruction: 0xffffffff
    a654:	ffff ffff 			; <UNDEFINED> instruction: 0xffffffff
    a658:	ffff ffff 			; <UNDEFINED> instruction: 0xffffffff
    a65c:	ffff ffff 			; <UNDEFINED> instruction: 0xffffffff
    a660:	ffff ffff 			; <UNDEFINED> instruction: 0xffffffff
    a664:	ffff ffff 			; <UNDEFINED> instruction: 0xffffffff
    a668:	ffff ffff 			; <UNDEFINED> instruction: 0xffffffff
    a66c:	ffff ffff 			; <UNDEFINED> instruction: 0xffffffff
    a670:	ffff ffff 			; <UNDEFINED> instruction: 0xffffffff
    a674:	ffff ffff 			; <UNDEFINED> instruction: 0xffffffff
    a678:	ffff ffff 			; <UNDEFINED> instruction: 0xffffffff
    a67c:	ffff ffff 			; <UNDEFINED> instruction: 0xffffffff
    a680:	ffff ffff 			; <UNDEFINED> instruction: 0xffffffff
    a684:	ffff ffff 			; <UNDEFINED> instruction: 0xffffffff
    a688:	ffff ffff 			; <UNDEFINED> instruction: 0xffffffff
    a68c:	ffff ffff 			; <UNDEFINED> instruction: 0xffffffff
    a690:	ffff ffff 			; <UNDEFINED> instruction: 0xffffffff
    a694:	ffff ffff 			; <UNDEFINED> instruction: 0xffffffff
    a698:	ffff ffff 			; <UNDEFINED> instruction: 0xffffffff
    a69c:	ffff ffff 			; <UNDEFINED> instruction: 0xffffffff
    a6a0:	ffff ffff 			; <UNDEFINED> instruction: 0xffffffff
    a6a4:	ffff ffff 			; <UNDEFINED> instruction: 0xffffffff
    a6a8:	ffff ffff 			; <UNDEFINED> instruction: 0xffffffff
    a6ac:	ffff ffff 			; <UNDEFINED> instruction: 0xffffffff
    a6b0:	ffff ffff 			; <UNDEFINED> instruction: 0xffffffff
    a6b4:	ffff ffff 			; <UNDEFINED> instruction: 0xffffffff
    a6b8:	ffff ffff 			; <UNDEFINED> instruction: 0xffffffff
    a6bc:	ffff ffff 			; <UNDEFINED> instruction: 0xffffffff
    a6c0:	ffff ffff 			; <UNDEFINED> instruction: 0xffffffff
    a6c4:	ffff ffff 			; <UNDEFINED> instruction: 0xffffffff
    a6c8:	ffff ffff 			; <UNDEFINED> instruction: 0xffffffff
    a6cc:	ffff ffff 			; <UNDEFINED> instruction: 0xffffffff
    a6d0:	ffff ffff 			; <UNDEFINED> instruction: 0xffffffff
    a6d4:	ffff ffff 			; <UNDEFINED> instruction: 0xffffffff
    a6d8:	ffff ffff 			; <UNDEFINED> instruction: 0xffffffff
    a6dc:	ffff ffff 			; <UNDEFINED> instruction: 0xffffffff
    a6e0:	ffff ffff 			; <UNDEFINED> instruction: 0xffffffff
    a6e4:	ffff ffff 			; <UNDEFINED> instruction: 0xffffffff
    a6e8:	ffff ffff 			; <UNDEFINED> instruction: 0xffffffff
    a6ec:	ffff ffff 			; <UNDEFINED> instruction: 0xffffffff
    a6f0:	ffff ffff 			; <UNDEFINED> instruction: 0xffffffff
    a6f4:	ffff ffff 			; <UNDEFINED> instruction: 0xffffffff
    a6f8:	ffff ffff 			; <UNDEFINED> instruction: 0xffffffff
    a6fc:	ffff ffff 			; <UNDEFINED> instruction: 0xffffffff
    a700:	ffff ffff 			; <UNDEFINED> instruction: 0xffffffff
    a704:	ffff ffff 			; <UNDEFINED> instruction: 0xffffffff
    a708:	ffff ffff 			; <UNDEFINED> instruction: 0xffffffff
    a70c:	ffff ffff 			; <UNDEFINED> instruction: 0xffffffff
    a710:	ffff ffff 			; <UNDEFINED> instruction: 0xffffffff
    a714:	ffff ffff 			; <UNDEFINED> instruction: 0xffffffff
    a718:	ffff ffff 			; <UNDEFINED> instruction: 0xffffffff
    a71c:	ffff ffff 			; <UNDEFINED> instruction: 0xffffffff
    a720:	ffff ffff 			; <UNDEFINED> instruction: 0xffffffff
    a724:	ffff ffff 			; <UNDEFINED> instruction: 0xffffffff
    a728:	ffff ffff 			; <UNDEFINED> instruction: 0xffffffff
    a72c:	ffff ffff 			; <UNDEFINED> instruction: 0xffffffff
    a730:	ffff ffff 			; <UNDEFINED> instruction: 0xffffffff
    a734:	ffff ffff 			; <UNDEFINED> instruction: 0xffffffff
    a738:	ffff ffff 			; <UNDEFINED> instruction: 0xffffffff
    a73c:	ffff ffff 			; <UNDEFINED> instruction: 0xffffffff
    a740:	ffff ffff 			; <UNDEFINED> instruction: 0xffffffff
    a744:	ffff ffff 			; <UNDEFINED> instruction: 0xffffffff
    a748:	ffff ffff 			; <UNDEFINED> instruction: 0xffffffff
    a74c:	ffff ffff 			; <UNDEFINED> instruction: 0xffffffff
    a750:	ffff ffff 			; <UNDEFINED> instruction: 0xffffffff
    a754:	ffff ffff 			; <UNDEFINED> instruction: 0xffffffff
    a758:	ffff ffff 			; <UNDEFINED> instruction: 0xffffffff
    a75c:	ffff ffff 			; <UNDEFINED> instruction: 0xffffffff
    a760:	ffff ffff 			; <UNDEFINED> instruction: 0xffffffff
    a764:	ffff ffff 			; <UNDEFINED> instruction: 0xffffffff
    a768:	ffff ffff 			; <UNDEFINED> instruction: 0xffffffff
    a76c:	ffff ffff 			; <UNDEFINED> instruction: 0xffffffff
    a770:	ffff ffff 			; <UNDEFINED> instruction: 0xffffffff
    a774:	ffff ffff 			; <UNDEFINED> instruction: 0xffffffff
    a778:	ffff ffff 			; <UNDEFINED> instruction: 0xffffffff
    a77c:	ffff ffff 			; <UNDEFINED> instruction: 0xffffffff
    a780:	ffff ffff 			; <UNDEFINED> instruction: 0xffffffff
    a784:	ffff ffff 			; <UNDEFINED> instruction: 0xffffffff
    a788:	ffff ffff 			; <UNDEFINED> instruction: 0xffffffff
    a78c:	ffff ffff 			; <UNDEFINED> instruction: 0xffffffff
    a790:	ffff ffff 			; <UNDEFINED> instruction: 0xffffffff
    a794:	ffff ffff 			; <UNDEFINED> instruction: 0xffffffff
    a798:	ffff ffff 			; <UNDEFINED> instruction: 0xffffffff
    a79c:	ffff ffff 			; <UNDEFINED> instruction: 0xffffffff
    a7a0:	ffff ffff 			; <UNDEFINED> instruction: 0xffffffff
    a7a4:	ffff ffff 			; <UNDEFINED> instruction: 0xffffffff
    a7a8:	ffff ffff 			; <UNDEFINED> instruction: 0xffffffff
    a7ac:	ffff ffff 			; <UNDEFINED> instruction: 0xffffffff
    a7b0:	ffff ffff 			; <UNDEFINED> instruction: 0xffffffff
    a7b4:	ffff ffff 			; <UNDEFINED> instruction: 0xffffffff
    a7b8:	ffff ffff 			; <UNDEFINED> instruction: 0xffffffff
    a7bc:	ffff ffff 			; <UNDEFINED> instruction: 0xffffffff
    a7c0:	ffff ffff 			; <UNDEFINED> instruction: 0xffffffff
    a7c4:	ffff ffff 			; <UNDEFINED> instruction: 0xffffffff
    a7c8:	ffff ffff 			; <UNDEFINED> instruction: 0xffffffff
    a7cc:	ffff ffff 			; <UNDEFINED> instruction: 0xffffffff
    a7d0:	ffff ffff 			; <UNDEFINED> instruction: 0xffffffff
    a7d4:	ffff ffff 			; <UNDEFINED> instruction: 0xffffffff
    a7d8:	ffff ffff 			; <UNDEFINED> instruction: 0xffffffff
    a7dc:	ffff ffff 			; <UNDEFINED> instruction: 0xffffffff
    a7e0:	ffff ffff 			; <UNDEFINED> instruction: 0xffffffff
    a7e4:	ffff ffff 			; <UNDEFINED> instruction: 0xffffffff
    a7e8:	ffff ffff 			; <UNDEFINED> instruction: 0xffffffff
    a7ec:	ffff ffff 			; <UNDEFINED> instruction: 0xffffffff
    a7f0:	ffff ffff 			; <UNDEFINED> instruction: 0xffffffff
    a7f4:	ffff ffff 			; <UNDEFINED> instruction: 0xffffffff
    a7f8:	ffff ffff 			; <UNDEFINED> instruction: 0xffffffff
    a7fc:	ffff ffff 			; <UNDEFINED> instruction: 0xffffffff
    a800:	ffff ffff 			; <UNDEFINED> instruction: 0xffffffff
    a804:	ffff ffff 			; <UNDEFINED> instruction: 0xffffffff
    a808:	ffff ffff 			; <UNDEFINED> instruction: 0xffffffff
    a80c:	ffff ffff 			; <UNDEFINED> instruction: 0xffffffff
    a810:	ffff ffff 			; <UNDEFINED> instruction: 0xffffffff
    a814:	ffff ffff 			; <UNDEFINED> instruction: 0xffffffff
    a818:	ffff ffff 			; <UNDEFINED> instruction: 0xffffffff
    a81c:	ffff ffff 			; <UNDEFINED> instruction: 0xffffffff
    a820:	ffff ffff 			; <UNDEFINED> instruction: 0xffffffff
    a824:	ffff ffff 			; <UNDEFINED> instruction: 0xffffffff
    a828:	ffff ffff 			; <UNDEFINED> instruction: 0xffffffff
    a82c:	ffff ffff 			; <UNDEFINED> instruction: 0xffffffff
    a830:	ffff ffff 			; <UNDEFINED> instruction: 0xffffffff
    a834:	ffff ffff 			; <UNDEFINED> instruction: 0xffffffff
    a838:	ffff ffff 			; <UNDEFINED> instruction: 0xffffffff
    a83c:	ffff ffff 			; <UNDEFINED> instruction: 0xffffffff
    a840:	ffff ffff 			; <UNDEFINED> instruction: 0xffffffff
    a844:	ffff ffff 			; <UNDEFINED> instruction: 0xffffffff
    a848:	ffff ffff 			; <UNDEFINED> instruction: 0xffffffff
    a84c:	ffff ffff 			; <UNDEFINED> instruction: 0xffffffff
    a850:	ffff ffff 			; <UNDEFINED> instruction: 0xffffffff
    a854:	ffff ffff 			; <UNDEFINED> instruction: 0xffffffff
    a858:	ffff ffff 			; <UNDEFINED> instruction: 0xffffffff
    a85c:	ffff ffff 			; <UNDEFINED> instruction: 0xffffffff
    a860:	ffff ffff 			; <UNDEFINED> instruction: 0xffffffff
    a864:	ffff ffff 			; <UNDEFINED> instruction: 0xffffffff
    a868:	ffff ffff 			; <UNDEFINED> instruction: 0xffffffff
    a86c:	ffff ffff 			; <UNDEFINED> instruction: 0xffffffff
    a870:	ffff ffff 			; <UNDEFINED> instruction: 0xffffffff
    a874:	ffff ffff 			; <UNDEFINED> instruction: 0xffffffff
    a878:	ffff ffff 			; <UNDEFINED> instruction: 0xffffffff
    a87c:	ffff ffff 			; <UNDEFINED> instruction: 0xffffffff
    a880:	ffff ffff 			; <UNDEFINED> instruction: 0xffffffff
    a884:	ffff ffff 			; <UNDEFINED> instruction: 0xffffffff
    a888:	ffff ffff 			; <UNDEFINED> instruction: 0xffffffff
    a88c:	ffff ffff 			; <UNDEFINED> instruction: 0xffffffff
    a890:	ffff ffff 			; <UNDEFINED> instruction: 0xffffffff
    a894:	ffff ffff 			; <UNDEFINED> instruction: 0xffffffff
    a898:	ffff ffff 			; <UNDEFINED> instruction: 0xffffffff
    a89c:	ffff ffff 			; <UNDEFINED> instruction: 0xffffffff
    a8a0:	ffff ffff 			; <UNDEFINED> instruction: 0xffffffff
    a8a4:	ffff ffff 			; <UNDEFINED> instruction: 0xffffffff
    a8a8:	ffff ffff 			; <UNDEFINED> instruction: 0xffffffff
    a8ac:	ffff ffff 			; <UNDEFINED> instruction: 0xffffffff
    a8b0:	ffff ffff 			; <UNDEFINED> instruction: 0xffffffff
    a8b4:	ffff ffff 			; <UNDEFINED> instruction: 0xffffffff
    a8b8:	ffff ffff 			; <UNDEFINED> instruction: 0xffffffff
    a8bc:	ffff ffff 			; <UNDEFINED> instruction: 0xffffffff
    a8c0:	ffff ffff 			; <UNDEFINED> instruction: 0xffffffff
    a8c4:	ffff ffff 			; <UNDEFINED> instruction: 0xffffffff
    a8c8:	ffff ffff 			; <UNDEFINED> instruction: 0xffffffff
    a8cc:	ffff ffff 			; <UNDEFINED> instruction: 0xffffffff
    a8d0:	ffff ffff 			; <UNDEFINED> instruction: 0xffffffff
    a8d4:	ffff ffff 			; <UNDEFINED> instruction: 0xffffffff
    a8d8:	ffff ffff 			; <UNDEFINED> instruction: 0xffffffff
    a8dc:	ffff ffff 			; <UNDEFINED> instruction: 0xffffffff
    a8e0:	ffff ffff 			; <UNDEFINED> instruction: 0xffffffff
    a8e4:	ffff ffff 			; <UNDEFINED> instruction: 0xffffffff
    a8e8:	ffff ffff 			; <UNDEFINED> instruction: 0xffffffff
    a8ec:	ffff ffff 			; <UNDEFINED> instruction: 0xffffffff
    a8f0:	ffff ffff 			; <UNDEFINED> instruction: 0xffffffff
    a8f4:	ffff ffff 			; <UNDEFINED> instruction: 0xffffffff
    a8f8:	ffff ffff 			; <UNDEFINED> instruction: 0xffffffff
    a8fc:	ffff ffff 			; <UNDEFINED> instruction: 0xffffffff
    a900:	ffff ffff 			; <UNDEFINED> instruction: 0xffffffff
    a904:	ffff ffff 			; <UNDEFINED> instruction: 0xffffffff
    a908:	ffff ffff 			; <UNDEFINED> instruction: 0xffffffff
    a90c:	ffff ffff 			; <UNDEFINED> instruction: 0xffffffff
    a910:	ffff ffff 			; <UNDEFINED> instruction: 0xffffffff
    a914:	ffff ffff 			; <UNDEFINED> instruction: 0xffffffff
    a918:	ffff ffff 			; <UNDEFINED> instruction: 0xffffffff
    a91c:	ffff ffff 			; <UNDEFINED> instruction: 0xffffffff
    a920:	ffff ffff 			; <UNDEFINED> instruction: 0xffffffff
    a924:	ffff ffff 			; <UNDEFINED> instruction: 0xffffffff
    a928:	ffff ffff 			; <UNDEFINED> instruction: 0xffffffff
    a92c:	ffff ffff 			; <UNDEFINED> instruction: 0xffffffff
    a930:	ffff ffff 			; <UNDEFINED> instruction: 0xffffffff
    a934:	ffff ffff 			; <UNDEFINED> instruction: 0xffffffff
    a938:	ffff ffff 			; <UNDEFINED> instruction: 0xffffffff
    a93c:	ffff ffff 			; <UNDEFINED> instruction: 0xffffffff
    a940:	ffff ffff 			; <UNDEFINED> instruction: 0xffffffff
    a944:	ffff ffff 			; <UNDEFINED> instruction: 0xffffffff
    a948:	ffff ffff 			; <UNDEFINED> instruction: 0xffffffff
    a94c:	ffff ffff 			; <UNDEFINED> instruction: 0xffffffff
    a950:	ffff ffff 			; <UNDEFINED> instruction: 0xffffffff
    a954:	ffff ffff 			; <UNDEFINED> instruction: 0xffffffff
    a958:	ffff ffff 			; <UNDEFINED> instruction: 0xffffffff
    a95c:	ffff ffff 			; <UNDEFINED> instruction: 0xffffffff
    a960:	ffff ffff 			; <UNDEFINED> instruction: 0xffffffff
    a964:	ffff ffff 			; <UNDEFINED> instruction: 0xffffffff
    a968:	ffff ffff 			; <UNDEFINED> instruction: 0xffffffff
    a96c:	ffff ffff 			; <UNDEFINED> instruction: 0xffffffff
    a970:	ffff ffff 			; <UNDEFINED> instruction: 0xffffffff
    a974:	ffff ffff 			; <UNDEFINED> instruction: 0xffffffff
    a978:	ffff ffff 			; <UNDEFINED> instruction: 0xffffffff
    a97c:	ffff ffff 			; <UNDEFINED> instruction: 0xffffffff
    a980:	ffff ffff 			; <UNDEFINED> instruction: 0xffffffff
    a984:	ffff ffff 			; <UNDEFINED> instruction: 0xffffffff
    a988:	ffff ffff 			; <UNDEFINED> instruction: 0xffffffff
    a98c:	ffff ffff 			; <UNDEFINED> instruction: 0xffffffff
    a990:	ffff ffff 			; <UNDEFINED> instruction: 0xffffffff
    a994:	ffff ffff 			; <UNDEFINED> instruction: 0xffffffff
    a998:	ffff ffff 			; <UNDEFINED> instruction: 0xffffffff
    a99c:	ffff ffff 			; <UNDEFINED> instruction: 0xffffffff
    a9a0:	ffff ffff 			; <UNDEFINED> instruction: 0xffffffff
    a9a4:	ffff ffff 			; <UNDEFINED> instruction: 0xffffffff
    a9a8:	ffff ffff 			; <UNDEFINED> instruction: 0xffffffff
    a9ac:	ffff ffff 			; <UNDEFINED> instruction: 0xffffffff
    a9b0:	ffff ffff 			; <UNDEFINED> instruction: 0xffffffff
    a9b4:	ffff ffff 			; <UNDEFINED> instruction: 0xffffffff
    a9b8:	ffff ffff 			; <UNDEFINED> instruction: 0xffffffff
    a9bc:	ffff ffff 			; <UNDEFINED> instruction: 0xffffffff
    a9c0:	ffff ffff 			; <UNDEFINED> instruction: 0xffffffff
    a9c4:	ffff ffff 			; <UNDEFINED> instruction: 0xffffffff
    a9c8:	ffff ffff 			; <UNDEFINED> instruction: 0xffffffff
    a9cc:	ffff ffff 			; <UNDEFINED> instruction: 0xffffffff
    a9d0:	ffff ffff 			; <UNDEFINED> instruction: 0xffffffff
    a9d4:	ffff ffff 			; <UNDEFINED> instruction: 0xffffffff
    a9d8:	ffff ffff 			; <UNDEFINED> instruction: 0xffffffff
    a9dc:	ffff ffff 			; <UNDEFINED> instruction: 0xffffffff
    a9e0:	ffff ffff 			; <UNDEFINED> instruction: 0xffffffff
    a9e4:	ffff ffff 			; <UNDEFINED> instruction: 0xffffffff
    a9e8:	ffff ffff 			; <UNDEFINED> instruction: 0xffffffff
    a9ec:	ffff ffff 			; <UNDEFINED> instruction: 0xffffffff
    a9f0:	ffff ffff 			; <UNDEFINED> instruction: 0xffffffff
    a9f4:	ffff ffff 			; <UNDEFINED> instruction: 0xffffffff
    a9f8:	ffff ffff 			; <UNDEFINED> instruction: 0xffffffff
    a9fc:	ffff ffff 			; <UNDEFINED> instruction: 0xffffffff
    aa00:	ffff ffff 			; <UNDEFINED> instruction: 0xffffffff
    aa04:	ffff ffff 			; <UNDEFINED> instruction: 0xffffffff
    aa08:	ffff ffff 			; <UNDEFINED> instruction: 0xffffffff
    aa0c:	ffff ffff 			; <UNDEFINED> instruction: 0xffffffff
    aa10:	ffff ffff 			; <UNDEFINED> instruction: 0xffffffff
    aa14:	ffff ffff 			; <UNDEFINED> instruction: 0xffffffff
    aa18:	ffff ffff 			; <UNDEFINED> instruction: 0xffffffff
    aa1c:	ffff ffff 			; <UNDEFINED> instruction: 0xffffffff
    aa20:	ffff ffff 			; <UNDEFINED> instruction: 0xffffffff
    aa24:	ffff ffff 			; <UNDEFINED> instruction: 0xffffffff
    aa28:	ffff ffff 			; <UNDEFINED> instruction: 0xffffffff
    aa2c:	ffff ffff 			; <UNDEFINED> instruction: 0xffffffff
    aa30:	ffff ffff 			; <UNDEFINED> instruction: 0xffffffff
    aa34:	ffff ffff 			; <UNDEFINED> instruction: 0xffffffff
    aa38:	ffff ffff 			; <UNDEFINED> instruction: 0xffffffff
    aa3c:	ffff ffff 			; <UNDEFINED> instruction: 0xffffffff
    aa40:	ffff ffff 			; <UNDEFINED> instruction: 0xffffffff
    aa44:	ffff ffff 			; <UNDEFINED> instruction: 0xffffffff
    aa48:	ffff ffff 			; <UNDEFINED> instruction: 0xffffffff
    aa4c:	ffff ffff 			; <UNDEFINED> instruction: 0xffffffff
    aa50:	ffff ffff 			; <UNDEFINED> instruction: 0xffffffff
    aa54:	ffff ffff 			; <UNDEFINED> instruction: 0xffffffff
    aa58:	ffff ffff 			; <UNDEFINED> instruction: 0xffffffff
    aa5c:	ffff ffff 			; <UNDEFINED> instruction: 0xffffffff
    aa60:	ffff ffff 			; <UNDEFINED> instruction: 0xffffffff
    aa64:	ffff ffff 			; <UNDEFINED> instruction: 0xffffffff
    aa68:	ffff ffff 			; <UNDEFINED> instruction: 0xffffffff
    aa6c:	ffff ffff 			; <UNDEFINED> instruction: 0xffffffff
    aa70:	ffff ffff 			; <UNDEFINED> instruction: 0xffffffff
    aa74:	ffff ffff 			; <UNDEFINED> instruction: 0xffffffff
    aa78:	ffff ffff 			; <UNDEFINED> instruction: 0xffffffff
    aa7c:	ffff ffff 			; <UNDEFINED> instruction: 0xffffffff
    aa80:	ffff ffff 			; <UNDEFINED> instruction: 0xffffffff
    aa84:	ffff ffff 			; <UNDEFINED> instruction: 0xffffffff
    aa88:	ffff ffff 			; <UNDEFINED> instruction: 0xffffffff
    aa8c:	ffff ffff 			; <UNDEFINED> instruction: 0xffffffff
    aa90:	ffff ffff 			; <UNDEFINED> instruction: 0xffffffff
    aa94:	ffff ffff 			; <UNDEFINED> instruction: 0xffffffff
    aa98:	ffff ffff 			; <UNDEFINED> instruction: 0xffffffff
    aa9c:	ffff ffff 			; <UNDEFINED> instruction: 0xffffffff
    aaa0:	ffff ffff 			; <UNDEFINED> instruction: 0xffffffff
    aaa4:	ffff ffff 			; <UNDEFINED> instruction: 0xffffffff
    aaa8:	ffff ffff 			; <UNDEFINED> instruction: 0xffffffff
    aaac:	ffff ffff 			; <UNDEFINED> instruction: 0xffffffff
    aab0:	ffff ffff 			; <UNDEFINED> instruction: 0xffffffff
    aab4:	ffff ffff 			; <UNDEFINED> instruction: 0xffffffff
    aab8:	ffff ffff 			; <UNDEFINED> instruction: 0xffffffff
    aabc:	ffff ffff 			; <UNDEFINED> instruction: 0xffffffff
    aac0:	ffff ffff 			; <UNDEFINED> instruction: 0xffffffff
    aac4:	ffff ffff 			; <UNDEFINED> instruction: 0xffffffff
    aac8:	ffff ffff 			; <UNDEFINED> instruction: 0xffffffff
    aacc:	ffff ffff 			; <UNDEFINED> instruction: 0xffffffff
    aad0:	ffff ffff 			; <UNDEFINED> instruction: 0xffffffff
    aad4:	ffff ffff 			; <UNDEFINED> instruction: 0xffffffff
    aad8:	ffff ffff 			; <UNDEFINED> instruction: 0xffffffff
    aadc:	ffff ffff 			; <UNDEFINED> instruction: 0xffffffff
    aae0:	ffff ffff 			; <UNDEFINED> instruction: 0xffffffff
    aae4:	ffff ffff 			; <UNDEFINED> instruction: 0xffffffff
    aae8:	ffff ffff 			; <UNDEFINED> instruction: 0xffffffff
    aaec:	ffff ffff 			; <UNDEFINED> instruction: 0xffffffff
    aaf0:	ffff ffff 			; <UNDEFINED> instruction: 0xffffffff
    aaf4:	ffff ffff 			; <UNDEFINED> instruction: 0xffffffff
    aaf8:	ffff ffff 			; <UNDEFINED> instruction: 0xffffffff
    aafc:	ffff ffff 			; <UNDEFINED> instruction: 0xffffffff
    ab00:	ffff ffff 			; <UNDEFINED> instruction: 0xffffffff
    ab04:	ffff ffff 			; <UNDEFINED> instruction: 0xffffffff
    ab08:	ffff ffff 			; <UNDEFINED> instruction: 0xffffffff
    ab0c:	ffff ffff 			; <UNDEFINED> instruction: 0xffffffff
    ab10:	ffff ffff 			; <UNDEFINED> instruction: 0xffffffff
    ab14:	ffff ffff 			; <UNDEFINED> instruction: 0xffffffff
    ab18:	ffff ffff 			; <UNDEFINED> instruction: 0xffffffff
    ab1c:	ffff ffff 			; <UNDEFINED> instruction: 0xffffffff
    ab20:	ffff ffff 			; <UNDEFINED> instruction: 0xffffffff
    ab24:	ffff ffff 			; <UNDEFINED> instruction: 0xffffffff
    ab28:	ffff ffff 			; <UNDEFINED> instruction: 0xffffffff
    ab2c:	ffff ffff 			; <UNDEFINED> instruction: 0xffffffff
    ab30:	ffff ffff 			; <UNDEFINED> instruction: 0xffffffff
    ab34:	ffff ffff 			; <UNDEFINED> instruction: 0xffffffff
    ab38:	ffff ffff 			; <UNDEFINED> instruction: 0xffffffff
    ab3c:	ffff ffff 			; <UNDEFINED> instruction: 0xffffffff
    ab40:	ffff ffff 			; <UNDEFINED> instruction: 0xffffffff
    ab44:	ffff ffff 			; <UNDEFINED> instruction: 0xffffffff
    ab48:	ffff ffff 			; <UNDEFINED> instruction: 0xffffffff
    ab4c:	ffff ffff 			; <UNDEFINED> instruction: 0xffffffff
    ab50:	ffff ffff 			; <UNDEFINED> instruction: 0xffffffff
    ab54:	ffff ffff 			; <UNDEFINED> instruction: 0xffffffff
    ab58:	ffff ffff 			; <UNDEFINED> instruction: 0xffffffff
    ab5c:	ffff ffff 			; <UNDEFINED> instruction: 0xffffffff
    ab60:	ffff ffff 			; <UNDEFINED> instruction: 0xffffffff
    ab64:	ffff ffff 			; <UNDEFINED> instruction: 0xffffffff
    ab68:	ffff ffff 			; <UNDEFINED> instruction: 0xffffffff
    ab6c:	ffff ffff 			; <UNDEFINED> instruction: 0xffffffff
    ab70:	ffff ffff 			; <UNDEFINED> instruction: 0xffffffff
    ab74:	ffff ffff 			; <UNDEFINED> instruction: 0xffffffff
    ab78:	ffff ffff 			; <UNDEFINED> instruction: 0xffffffff
    ab7c:	ffff ffff 			; <UNDEFINED> instruction: 0xffffffff
    ab80:	ffff ffff 			; <UNDEFINED> instruction: 0xffffffff
    ab84:	ffff ffff 			; <UNDEFINED> instruction: 0xffffffff
    ab88:	ffff ffff 			; <UNDEFINED> instruction: 0xffffffff
    ab8c:	ffff ffff 			; <UNDEFINED> instruction: 0xffffffff
    ab90:	ffff ffff 			; <UNDEFINED> instruction: 0xffffffff
    ab94:	ffff ffff 			; <UNDEFINED> instruction: 0xffffffff
    ab98:	ffff ffff 			; <UNDEFINED> instruction: 0xffffffff
    ab9c:	ffff ffff 			; <UNDEFINED> instruction: 0xffffffff
    aba0:	ffff ffff 			; <UNDEFINED> instruction: 0xffffffff
    aba4:	ffff ffff 			; <UNDEFINED> instruction: 0xffffffff
    aba8:	ffff ffff 			; <UNDEFINED> instruction: 0xffffffff
    abac:	ffff ffff 			; <UNDEFINED> instruction: 0xffffffff
    abb0:	ffff ffff 			; <UNDEFINED> instruction: 0xffffffff
    abb4:	ffff ffff 			; <UNDEFINED> instruction: 0xffffffff
    abb8:	ffff ffff 			; <UNDEFINED> instruction: 0xffffffff
    abbc:	ffff ffff 			; <UNDEFINED> instruction: 0xffffffff
    abc0:	ffff ffff 			; <UNDEFINED> instruction: 0xffffffff
    abc4:	ffff ffff 			; <UNDEFINED> instruction: 0xffffffff
    abc8:	ffff ffff 			; <UNDEFINED> instruction: 0xffffffff
    abcc:	ffff ffff 			; <UNDEFINED> instruction: 0xffffffff
    abd0:	ffff ffff 			; <UNDEFINED> instruction: 0xffffffff
    abd4:	ffff ffff 			; <UNDEFINED> instruction: 0xffffffff
    abd8:	ffff ffff 			; <UNDEFINED> instruction: 0xffffffff
    abdc:	ffff ffff 			; <UNDEFINED> instruction: 0xffffffff
    abe0:	ffff ffff 			; <UNDEFINED> instruction: 0xffffffff
    abe4:	ffff ffff 			; <UNDEFINED> instruction: 0xffffffff
    abe8:	ffff ffff 			; <UNDEFINED> instruction: 0xffffffff
    abec:	ffff ffff 			; <UNDEFINED> instruction: 0xffffffff
    abf0:	ffff ffff 			; <UNDEFINED> instruction: 0xffffffff
    abf4:	ffff ffff 			; <UNDEFINED> instruction: 0xffffffff
    abf8:	ffff ffff 			; <UNDEFINED> instruction: 0xffffffff
    abfc:	ffff ffff 			; <UNDEFINED> instruction: 0xffffffff
    ac00:	ffff ffff 			; <UNDEFINED> instruction: 0xffffffff
    ac04:	ffff ffff 			; <UNDEFINED> instruction: 0xffffffff
    ac08:	ffff ffff 			; <UNDEFINED> instruction: 0xffffffff
    ac0c:	ffff ffff 			; <UNDEFINED> instruction: 0xffffffff
    ac10:	ffff ffff 			; <UNDEFINED> instruction: 0xffffffff
    ac14:	ffff ffff 			; <UNDEFINED> instruction: 0xffffffff
    ac18:	ffff ffff 			; <UNDEFINED> instruction: 0xffffffff
    ac1c:	ffff ffff 			; <UNDEFINED> instruction: 0xffffffff
    ac20:	ffff ffff 			; <UNDEFINED> instruction: 0xffffffff
    ac24:	ffff ffff 			; <UNDEFINED> instruction: 0xffffffff
    ac28:	ffff ffff 			; <UNDEFINED> instruction: 0xffffffff
    ac2c:	ffff ffff 			; <UNDEFINED> instruction: 0xffffffff
    ac30:	ffff ffff 			; <UNDEFINED> instruction: 0xffffffff
    ac34:	ffff ffff 			; <UNDEFINED> instruction: 0xffffffff
    ac38:	ffff ffff 			; <UNDEFINED> instruction: 0xffffffff
    ac3c:	ffff ffff 			; <UNDEFINED> instruction: 0xffffffff
    ac40:	ffff ffff 			; <UNDEFINED> instruction: 0xffffffff
    ac44:	ffff ffff 			; <UNDEFINED> instruction: 0xffffffff
    ac48:	ffff ffff 			; <UNDEFINED> instruction: 0xffffffff
    ac4c:	ffff ffff 			; <UNDEFINED> instruction: 0xffffffff
    ac50:	ffff ffff 			; <UNDEFINED> instruction: 0xffffffff
    ac54:	ffff ffff 			; <UNDEFINED> instruction: 0xffffffff
    ac58:	ffff ffff 			; <UNDEFINED> instruction: 0xffffffff
    ac5c:	ffff ffff 			; <UNDEFINED> instruction: 0xffffffff
    ac60:	ffff ffff 			; <UNDEFINED> instruction: 0xffffffff
    ac64:	ffff ffff 			; <UNDEFINED> instruction: 0xffffffff
    ac68:	ffff ffff 			; <UNDEFINED> instruction: 0xffffffff
    ac6c:	ffff ffff 			; <UNDEFINED> instruction: 0xffffffff
    ac70:	ffff ffff 			; <UNDEFINED> instruction: 0xffffffff
    ac74:	ffff ffff 			; <UNDEFINED> instruction: 0xffffffff
    ac78:	ffff ffff 			; <UNDEFINED> instruction: 0xffffffff
    ac7c:	ffff ffff 			; <UNDEFINED> instruction: 0xffffffff
    ac80:	ffff ffff 			; <UNDEFINED> instruction: 0xffffffff
    ac84:	ffff ffff 			; <UNDEFINED> instruction: 0xffffffff
    ac88:	ffff ffff 			; <UNDEFINED> instruction: 0xffffffff
    ac8c:	ffff ffff 			; <UNDEFINED> instruction: 0xffffffff
    ac90:	ffff ffff 			; <UNDEFINED> instruction: 0xffffffff
    ac94:	ffff ffff 			; <UNDEFINED> instruction: 0xffffffff
    ac98:	ffff ffff 			; <UNDEFINED> instruction: 0xffffffff
    ac9c:	ffff ffff 			; <UNDEFINED> instruction: 0xffffffff
    aca0:	ffff ffff 			; <UNDEFINED> instruction: 0xffffffff
    aca4:	ffff ffff 			; <UNDEFINED> instruction: 0xffffffff
    aca8:	ffff ffff 			; <UNDEFINED> instruction: 0xffffffff
    acac:	ffff ffff 			; <UNDEFINED> instruction: 0xffffffff
    acb0:	ffff ffff 			; <UNDEFINED> instruction: 0xffffffff
    acb4:	ffff ffff 			; <UNDEFINED> instruction: 0xffffffff
    acb8:	ffff ffff 			; <UNDEFINED> instruction: 0xffffffff
    acbc:	ffff ffff 			; <UNDEFINED> instruction: 0xffffffff
    acc0:	ffff ffff 			; <UNDEFINED> instruction: 0xffffffff
    acc4:	ffff ffff 			; <UNDEFINED> instruction: 0xffffffff
    acc8:	ffff ffff 			; <UNDEFINED> instruction: 0xffffffff
    accc:	ffff ffff 			; <UNDEFINED> instruction: 0xffffffff
    acd0:	ffff ffff 			; <UNDEFINED> instruction: 0xffffffff
    acd4:	ffff ffff 			; <UNDEFINED> instruction: 0xffffffff
    acd8:	ffff ffff 			; <UNDEFINED> instruction: 0xffffffff
    acdc:	ffff ffff 			; <UNDEFINED> instruction: 0xffffffff
    ace0:	ffff ffff 			; <UNDEFINED> instruction: 0xffffffff
    ace4:	ffff ffff 			; <UNDEFINED> instruction: 0xffffffff
    ace8:	ffff ffff 			; <UNDEFINED> instruction: 0xffffffff
    acec:	ffff ffff 			; <UNDEFINED> instruction: 0xffffffff
    acf0:	ffff ffff 			; <UNDEFINED> instruction: 0xffffffff
    acf4:	ffff ffff 			; <UNDEFINED> instruction: 0xffffffff
    acf8:	ffff ffff 			; <UNDEFINED> instruction: 0xffffffff
    acfc:	ffff ffff 			; <UNDEFINED> instruction: 0xffffffff
    ad00:	ffff ffff 			; <UNDEFINED> instruction: 0xffffffff
    ad04:	ffff ffff 			; <UNDEFINED> instruction: 0xffffffff
    ad08:	ffff ffff 			; <UNDEFINED> instruction: 0xffffffff
    ad0c:	ffff ffff 			; <UNDEFINED> instruction: 0xffffffff
    ad10:	ffff ffff 			; <UNDEFINED> instruction: 0xffffffff
    ad14:	ffff ffff 			; <UNDEFINED> instruction: 0xffffffff
    ad18:	ffff ffff 			; <UNDEFINED> instruction: 0xffffffff
    ad1c:	ffff ffff 			; <UNDEFINED> instruction: 0xffffffff
    ad20:	ffff ffff 			; <UNDEFINED> instruction: 0xffffffff
    ad24:	ffff ffff 			; <UNDEFINED> instruction: 0xffffffff
    ad28:	ffff ffff 			; <UNDEFINED> instruction: 0xffffffff
    ad2c:	ffff ffff 			; <UNDEFINED> instruction: 0xffffffff
    ad30:	ffff ffff 			; <UNDEFINED> instruction: 0xffffffff
    ad34:	ffff ffff 			; <UNDEFINED> instruction: 0xffffffff
    ad38:	ffff ffff 			; <UNDEFINED> instruction: 0xffffffff
    ad3c:	ffff ffff 			; <UNDEFINED> instruction: 0xffffffff
    ad40:	ffff ffff 			; <UNDEFINED> instruction: 0xffffffff
    ad44:	ffff ffff 			; <UNDEFINED> instruction: 0xffffffff
    ad48:	ffff ffff 			; <UNDEFINED> instruction: 0xffffffff
    ad4c:	ffff ffff 			; <UNDEFINED> instruction: 0xffffffff
    ad50:	ffff ffff 			; <UNDEFINED> instruction: 0xffffffff
    ad54:	ffff ffff 			; <UNDEFINED> instruction: 0xffffffff
    ad58:	ffff ffff 			; <UNDEFINED> instruction: 0xffffffff
    ad5c:	ffff ffff 			; <UNDEFINED> instruction: 0xffffffff
    ad60:	ffff ffff 			; <UNDEFINED> instruction: 0xffffffff
    ad64:	ffff ffff 			; <UNDEFINED> instruction: 0xffffffff
    ad68:	ffff ffff 			; <UNDEFINED> instruction: 0xffffffff
    ad6c:	ffff ffff 			; <UNDEFINED> instruction: 0xffffffff
    ad70:	ffff ffff 			; <UNDEFINED> instruction: 0xffffffff
    ad74:	ffff ffff 			; <UNDEFINED> instruction: 0xffffffff
    ad78:	ffff ffff 			; <UNDEFINED> instruction: 0xffffffff
    ad7c:	ffff ffff 			; <UNDEFINED> instruction: 0xffffffff
    ad80:	ffff ffff 			; <UNDEFINED> instruction: 0xffffffff
    ad84:	ffff ffff 			; <UNDEFINED> instruction: 0xffffffff
    ad88:	ffff ffff 			; <UNDEFINED> instruction: 0xffffffff
    ad8c:	ffff ffff 			; <UNDEFINED> instruction: 0xffffffff
    ad90:	ffff ffff 			; <UNDEFINED> instruction: 0xffffffff
    ad94:	ffff ffff 			; <UNDEFINED> instruction: 0xffffffff
    ad98:	ffff ffff 			; <UNDEFINED> instruction: 0xffffffff
    ad9c:	ffff ffff 			; <UNDEFINED> instruction: 0xffffffff
    ada0:	ffff ffff 			; <UNDEFINED> instruction: 0xffffffff
    ada4:	ffff ffff 			; <UNDEFINED> instruction: 0xffffffff
    ada8:	ffff ffff 			; <UNDEFINED> instruction: 0xffffffff
    adac:	ffff ffff 			; <UNDEFINED> instruction: 0xffffffff
    adb0:	ffff ffff 			; <UNDEFINED> instruction: 0xffffffff
    adb4:	ffff ffff 			; <UNDEFINED> instruction: 0xffffffff
    adb8:	ffff ffff 			; <UNDEFINED> instruction: 0xffffffff
    adbc:	ffff ffff 			; <UNDEFINED> instruction: 0xffffffff
    adc0:	ffff ffff 			; <UNDEFINED> instruction: 0xffffffff
    adc4:	ffff ffff 			; <UNDEFINED> instruction: 0xffffffff
    adc8:	ffff ffff 			; <UNDEFINED> instruction: 0xffffffff
    adcc:	ffff ffff 			; <UNDEFINED> instruction: 0xffffffff
    add0:	ffff ffff 			; <UNDEFINED> instruction: 0xffffffff
    add4:	ffff ffff 			; <UNDEFINED> instruction: 0xffffffff
    add8:	ffff ffff 			; <UNDEFINED> instruction: 0xffffffff
    addc:	ffff ffff 			; <UNDEFINED> instruction: 0xffffffff
    ade0:	ffff ffff 			; <UNDEFINED> instruction: 0xffffffff
    ade4:	ffff ffff 			; <UNDEFINED> instruction: 0xffffffff
    ade8:	ffff ffff 			; <UNDEFINED> instruction: 0xffffffff
    adec:	ffff ffff 			; <UNDEFINED> instruction: 0xffffffff
    adf0:	ffff ffff 			; <UNDEFINED> instruction: 0xffffffff
    adf4:	ffff ffff 			; <UNDEFINED> instruction: 0xffffffff
    adf8:	ffff ffff 			; <UNDEFINED> instruction: 0xffffffff
    adfc:	ffff ffff 			; <UNDEFINED> instruction: 0xffffffff
    ae00:	ffff ffff 			; <UNDEFINED> instruction: 0xffffffff
    ae04:	ffff ffff 			; <UNDEFINED> instruction: 0xffffffff
    ae08:	ffff ffff 			; <UNDEFINED> instruction: 0xffffffff
    ae0c:	ffff ffff 			; <UNDEFINED> instruction: 0xffffffff
    ae10:	ffff ffff 			; <UNDEFINED> instruction: 0xffffffff
    ae14:	ffff ffff 			; <UNDEFINED> instruction: 0xffffffff
    ae18:	ffff ffff 			; <UNDEFINED> instruction: 0xffffffff
    ae1c:	ffff ffff 			; <UNDEFINED> instruction: 0xffffffff
    ae20:	ffff ffff 			; <UNDEFINED> instruction: 0xffffffff
    ae24:	ffff ffff 			; <UNDEFINED> instruction: 0xffffffff
    ae28:	ffff ffff 			; <UNDEFINED> instruction: 0xffffffff
    ae2c:	ffff ffff 			; <UNDEFINED> instruction: 0xffffffff
    ae30:	ffff ffff 			; <UNDEFINED> instruction: 0xffffffff
    ae34:	ffff ffff 			; <UNDEFINED> instruction: 0xffffffff
    ae38:	ffff ffff 			; <UNDEFINED> instruction: 0xffffffff
    ae3c:	ffff ffff 			; <UNDEFINED> instruction: 0xffffffff
    ae40:	ffff ffff 			; <UNDEFINED> instruction: 0xffffffff
    ae44:	ffff ffff 			; <UNDEFINED> instruction: 0xffffffff
    ae48:	ffff ffff 			; <UNDEFINED> instruction: 0xffffffff
    ae4c:	ffff ffff 			; <UNDEFINED> instruction: 0xffffffff
    ae50:	ffff ffff 			; <UNDEFINED> instruction: 0xffffffff
    ae54:	ffff ffff 			; <UNDEFINED> instruction: 0xffffffff
    ae58:	ffff ffff 			; <UNDEFINED> instruction: 0xffffffff
    ae5c:	ffff ffff 			; <UNDEFINED> instruction: 0xffffffff
    ae60:	ffff ffff 			; <UNDEFINED> instruction: 0xffffffff
    ae64:	ffff ffff 			; <UNDEFINED> instruction: 0xffffffff
    ae68:	ffff ffff 			; <UNDEFINED> instruction: 0xffffffff
    ae6c:	ffff ffff 			; <UNDEFINED> instruction: 0xffffffff
    ae70:	ffff ffff 			; <UNDEFINED> instruction: 0xffffffff
    ae74:	ffff ffff 			; <UNDEFINED> instruction: 0xffffffff
    ae78:	ffff ffff 			; <UNDEFINED> instruction: 0xffffffff
    ae7c:	ffff ffff 			; <UNDEFINED> instruction: 0xffffffff
    ae80:	ffff ffff 			; <UNDEFINED> instruction: 0xffffffff
    ae84:	ffff ffff 			; <UNDEFINED> instruction: 0xffffffff
    ae88:	ffff ffff 			; <UNDEFINED> instruction: 0xffffffff
    ae8c:	ffff ffff 			; <UNDEFINED> instruction: 0xffffffff
    ae90:	ffff ffff 			; <UNDEFINED> instruction: 0xffffffff
    ae94:	ffff ffff 			; <UNDEFINED> instruction: 0xffffffff
    ae98:	ffff ffff 			; <UNDEFINED> instruction: 0xffffffff
    ae9c:	ffff ffff 			; <UNDEFINED> instruction: 0xffffffff
    aea0:	ffff ffff 			; <UNDEFINED> instruction: 0xffffffff
    aea4:	ffff ffff 			; <UNDEFINED> instruction: 0xffffffff
    aea8:	ffff ffff 			; <UNDEFINED> instruction: 0xffffffff
    aeac:	ffff ffff 			; <UNDEFINED> instruction: 0xffffffff
    aeb0:	ffff ffff 			; <UNDEFINED> instruction: 0xffffffff
    aeb4:	ffff ffff 			; <UNDEFINED> instruction: 0xffffffff
    aeb8:	ffff ffff 			; <UNDEFINED> instruction: 0xffffffff
    aebc:	ffff ffff 			; <UNDEFINED> instruction: 0xffffffff
    aec0:	ffff ffff 			; <UNDEFINED> instruction: 0xffffffff
    aec4:	ffff ffff 			; <UNDEFINED> instruction: 0xffffffff
    aec8:	ffff ffff 			; <UNDEFINED> instruction: 0xffffffff
    aecc:	ffff ffff 			; <UNDEFINED> instruction: 0xffffffff
    aed0:	ffff ffff 			; <UNDEFINED> instruction: 0xffffffff
    aed4:	ffff ffff 			; <UNDEFINED> instruction: 0xffffffff
    aed8:	ffff ffff 			; <UNDEFINED> instruction: 0xffffffff
    aedc:	ffff ffff 			; <UNDEFINED> instruction: 0xffffffff
    aee0:	ffff ffff 			; <UNDEFINED> instruction: 0xffffffff
    aee4:	ffff ffff 			; <UNDEFINED> instruction: 0xffffffff
    aee8:	ffff ffff 			; <UNDEFINED> instruction: 0xffffffff
    aeec:	ffff ffff 			; <UNDEFINED> instruction: 0xffffffff
    aef0:	ffff ffff 			; <UNDEFINED> instruction: 0xffffffff
    aef4:	ffff ffff 			; <UNDEFINED> instruction: 0xffffffff
    aef8:	ffff ffff 			; <UNDEFINED> instruction: 0xffffffff
    aefc:	ffff ffff 			; <UNDEFINED> instruction: 0xffffffff
    af00:	ffff ffff 			; <UNDEFINED> instruction: 0xffffffff
    af04:	ffff ffff 			; <UNDEFINED> instruction: 0xffffffff
    af08:	ffff ffff 			; <UNDEFINED> instruction: 0xffffffff
    af0c:	ffff ffff 			; <UNDEFINED> instruction: 0xffffffff
    af10:	ffff ffff 			; <UNDEFINED> instruction: 0xffffffff
    af14:	ffff ffff 			; <UNDEFINED> instruction: 0xffffffff
    af18:	ffff ffff 			; <UNDEFINED> instruction: 0xffffffff
    af1c:	ffff ffff 			; <UNDEFINED> instruction: 0xffffffff
    af20:	ffff ffff 			; <UNDEFINED> instruction: 0xffffffff
    af24:	ffff ffff 			; <UNDEFINED> instruction: 0xffffffff
    af28:	ffff ffff 			; <UNDEFINED> instruction: 0xffffffff
    af2c:	ffff ffff 			; <UNDEFINED> instruction: 0xffffffff
    af30:	ffff ffff 			; <UNDEFINED> instruction: 0xffffffff
    af34:	ffff ffff 			; <UNDEFINED> instruction: 0xffffffff
    af38:	ffff ffff 			; <UNDEFINED> instruction: 0xffffffff
    af3c:	ffff ffff 			; <UNDEFINED> instruction: 0xffffffff
    af40:	ffff ffff 			; <UNDEFINED> instruction: 0xffffffff
    af44:	ffff ffff 			; <UNDEFINED> instruction: 0xffffffff
    af48:	ffff ffff 			; <UNDEFINED> instruction: 0xffffffff
    af4c:	ffff ffff 			; <UNDEFINED> instruction: 0xffffffff
    af50:	ffff ffff 			; <UNDEFINED> instruction: 0xffffffff
    af54:	ffff ffff 			; <UNDEFINED> instruction: 0xffffffff
    af58:	ffff ffff 			; <UNDEFINED> instruction: 0xffffffff
    af5c:	ffff ffff 			; <UNDEFINED> instruction: 0xffffffff
    af60:	ffff ffff 			; <UNDEFINED> instruction: 0xffffffff
    af64:	ffff ffff 			; <UNDEFINED> instruction: 0xffffffff
    af68:	ffff ffff 			; <UNDEFINED> instruction: 0xffffffff
    af6c:	ffff ffff 			; <UNDEFINED> instruction: 0xffffffff
    af70:	ffff ffff 			; <UNDEFINED> instruction: 0xffffffff
    af74:	ffff ffff 			; <UNDEFINED> instruction: 0xffffffff
    af78:	ffff ffff 			; <UNDEFINED> instruction: 0xffffffff
    af7c:	ffff ffff 			; <UNDEFINED> instruction: 0xffffffff
    af80:	ffff ffff 			; <UNDEFINED> instruction: 0xffffffff
    af84:	ffff ffff 			; <UNDEFINED> instruction: 0xffffffff
    af88:	ffff ffff 			; <UNDEFINED> instruction: 0xffffffff
    af8c:	ffff ffff 			; <UNDEFINED> instruction: 0xffffffff
    af90:	ffff ffff 			; <UNDEFINED> instruction: 0xffffffff
    af94:	ffff ffff 			; <UNDEFINED> instruction: 0xffffffff
    af98:	ffff ffff 			; <UNDEFINED> instruction: 0xffffffff
    af9c:	ffff ffff 			; <UNDEFINED> instruction: 0xffffffff
    afa0:	ffff ffff 			; <UNDEFINED> instruction: 0xffffffff
    afa4:	ffff ffff 			; <UNDEFINED> instruction: 0xffffffff
    afa8:	ffff ffff 			; <UNDEFINED> instruction: 0xffffffff
    afac:	ffff ffff 			; <UNDEFINED> instruction: 0xffffffff
    afb0:	ffff ffff 			; <UNDEFINED> instruction: 0xffffffff
    afb4:	ffff ffff 			; <UNDEFINED> instruction: 0xffffffff
    afb8:	ffff ffff 			; <UNDEFINED> instruction: 0xffffffff
    afbc:	ffff ffff 			; <UNDEFINED> instruction: 0xffffffff
    afc0:	ffff ffff 			; <UNDEFINED> instruction: 0xffffffff
    afc4:	ffff ffff 			; <UNDEFINED> instruction: 0xffffffff
    afc8:	ffff ffff 			; <UNDEFINED> instruction: 0xffffffff
    afcc:	ffff ffff 			; <UNDEFINED> instruction: 0xffffffff
    afd0:	ffff ffff 			; <UNDEFINED> instruction: 0xffffffff
    afd4:	ffff ffff 			; <UNDEFINED> instruction: 0xffffffff
    afd8:	ffff ffff 			; <UNDEFINED> instruction: 0xffffffff
    afdc:	ffff ffff 			; <UNDEFINED> instruction: 0xffffffff
    afe0:	ffff ffff 			; <UNDEFINED> instruction: 0xffffffff
    afe4:	ffff ffff 			; <UNDEFINED> instruction: 0xffffffff
    afe8:	ffff ffff 			; <UNDEFINED> instruction: 0xffffffff
    afec:	ffff ffff 			; <UNDEFINED> instruction: 0xffffffff
    aff0:	ffff ffff 			; <UNDEFINED> instruction: 0xffffffff
    aff4:	ffff ffff 			; <UNDEFINED> instruction: 0xffffffff
    aff8:	ffff ffff 			; <UNDEFINED> instruction: 0xffffffff
    affc:	ffff ffff 			; <UNDEFINED> instruction: 0xffffffff
    b000:	ffff ffff 			; <UNDEFINED> instruction: 0xffffffff
    b004:	ffff ffff 			; <UNDEFINED> instruction: 0xffffffff
    b008:	ffff ffff 			; <UNDEFINED> instruction: 0xffffffff
    b00c:	ffff ffff 			; <UNDEFINED> instruction: 0xffffffff
    b010:	ffff ffff 			; <UNDEFINED> instruction: 0xffffffff
    b014:	ffff ffff 			; <UNDEFINED> instruction: 0xffffffff
    b018:	ffff ffff 			; <UNDEFINED> instruction: 0xffffffff
    b01c:	ffff ffff 			; <UNDEFINED> instruction: 0xffffffff
    b020:	ffff ffff 			; <UNDEFINED> instruction: 0xffffffff
    b024:	ffff ffff 			; <UNDEFINED> instruction: 0xffffffff
    b028:	ffff ffff 			; <UNDEFINED> instruction: 0xffffffff
    b02c:	ffff ffff 			; <UNDEFINED> instruction: 0xffffffff
    b030:	ffff ffff 			; <UNDEFINED> instruction: 0xffffffff
    b034:	ffff ffff 			; <UNDEFINED> instruction: 0xffffffff
    b038:	ffff ffff 			; <UNDEFINED> instruction: 0xffffffff
    b03c:	ffff ffff 			; <UNDEFINED> instruction: 0xffffffff
    b040:	ffff ffff 			; <UNDEFINED> instruction: 0xffffffff
    b044:	ffff ffff 			; <UNDEFINED> instruction: 0xffffffff
    b048:	ffff ffff 			; <UNDEFINED> instruction: 0xffffffff
    b04c:	ffff ffff 			; <UNDEFINED> instruction: 0xffffffff
    b050:	ffff ffff 			; <UNDEFINED> instruction: 0xffffffff
    b054:	ffff ffff 			; <UNDEFINED> instruction: 0xffffffff
    b058:	ffff ffff 			; <UNDEFINED> instruction: 0xffffffff
    b05c:	ffff ffff 			; <UNDEFINED> instruction: 0xffffffff
    b060:	ffff ffff 			; <UNDEFINED> instruction: 0xffffffff
    b064:	ffff ffff 			; <UNDEFINED> instruction: 0xffffffff
    b068:	ffff ffff 			; <UNDEFINED> instruction: 0xffffffff
    b06c:	ffff ffff 			; <UNDEFINED> instruction: 0xffffffff
    b070:	ffff ffff 			; <UNDEFINED> instruction: 0xffffffff
    b074:	ffff ffff 			; <UNDEFINED> instruction: 0xffffffff
    b078:	ffff ffff 			; <UNDEFINED> instruction: 0xffffffff
    b07c:	ffff ffff 			; <UNDEFINED> instruction: 0xffffffff
    b080:	ffff ffff 			; <UNDEFINED> instruction: 0xffffffff
    b084:	ffff ffff 			; <UNDEFINED> instruction: 0xffffffff
    b088:	ffff ffff 			; <UNDEFINED> instruction: 0xffffffff
    b08c:	ffff ffff 			; <UNDEFINED> instruction: 0xffffffff
    b090:	ffff ffff 			; <UNDEFINED> instruction: 0xffffffff
    b094:	ffff ffff 			; <UNDEFINED> instruction: 0xffffffff
    b098:	ffff ffff 			; <UNDEFINED> instruction: 0xffffffff
    b09c:	ffff ffff 			; <UNDEFINED> instruction: 0xffffffff
    b0a0:	ffff ffff 			; <UNDEFINED> instruction: 0xffffffff
    b0a4:	ffff ffff 			; <UNDEFINED> instruction: 0xffffffff
    b0a8:	ffff ffff 			; <UNDEFINED> instruction: 0xffffffff
    b0ac:	ffff ffff 			; <UNDEFINED> instruction: 0xffffffff
    b0b0:	ffff ffff 			; <UNDEFINED> instruction: 0xffffffff
    b0b4:	ffff ffff 			; <UNDEFINED> instruction: 0xffffffff
    b0b8:	ffff ffff 			; <UNDEFINED> instruction: 0xffffffff
    b0bc:	ffff ffff 			; <UNDEFINED> instruction: 0xffffffff
    b0c0:	ffff ffff 			; <UNDEFINED> instruction: 0xffffffff
    b0c4:	ffff ffff 			; <UNDEFINED> instruction: 0xffffffff
    b0c8:	ffff ffff 			; <UNDEFINED> instruction: 0xffffffff
    b0cc:	ffff ffff 			; <UNDEFINED> instruction: 0xffffffff
    b0d0:	ffff ffff 			; <UNDEFINED> instruction: 0xffffffff
    b0d4:	ffff ffff 			; <UNDEFINED> instruction: 0xffffffff
    b0d8:	ffff ffff 			; <UNDEFINED> instruction: 0xffffffff
    b0dc:	ffff ffff 			; <UNDEFINED> instruction: 0xffffffff
    b0e0:	ffff ffff 			; <UNDEFINED> instruction: 0xffffffff
    b0e4:	ffff ffff 			; <UNDEFINED> instruction: 0xffffffff
    b0e8:	ffff ffff 			; <UNDEFINED> instruction: 0xffffffff
    b0ec:	ffff ffff 			; <UNDEFINED> instruction: 0xffffffff
    b0f0:	ffff ffff 			; <UNDEFINED> instruction: 0xffffffff
    b0f4:	ffff ffff 			; <UNDEFINED> instruction: 0xffffffff
    b0f8:	ffff ffff 			; <UNDEFINED> instruction: 0xffffffff
    b0fc:	ffff ffff 			; <UNDEFINED> instruction: 0xffffffff
    b100:	ffff ffff 			; <UNDEFINED> instruction: 0xffffffff
    b104:	ffff ffff 			; <UNDEFINED> instruction: 0xffffffff
    b108:	ffff ffff 			; <UNDEFINED> instruction: 0xffffffff
    b10c:	ffff ffff 			; <UNDEFINED> instruction: 0xffffffff
    b110:	ffff ffff 			; <UNDEFINED> instruction: 0xffffffff
    b114:	ffff ffff 			; <UNDEFINED> instruction: 0xffffffff
    b118:	ffff ffff 			; <UNDEFINED> instruction: 0xffffffff
    b11c:	ffff ffff 			; <UNDEFINED> instruction: 0xffffffff
    b120:	ffff ffff 			; <UNDEFINED> instruction: 0xffffffff
    b124:	ffff ffff 			; <UNDEFINED> instruction: 0xffffffff
    b128:	ffff ffff 			; <UNDEFINED> instruction: 0xffffffff
    b12c:	ffff ffff 			; <UNDEFINED> instruction: 0xffffffff
    b130:	ffff ffff 			; <UNDEFINED> instruction: 0xffffffff
    b134:	ffff ffff 			; <UNDEFINED> instruction: 0xffffffff
    b138:	ffff ffff 			; <UNDEFINED> instruction: 0xffffffff
    b13c:	ffff ffff 			; <UNDEFINED> instruction: 0xffffffff
    b140:	ffff ffff 			; <UNDEFINED> instruction: 0xffffffff
    b144:	ffff ffff 			; <UNDEFINED> instruction: 0xffffffff
    b148:	ffff ffff 			; <UNDEFINED> instruction: 0xffffffff
    b14c:	ffff ffff 			; <UNDEFINED> instruction: 0xffffffff
    b150:	ffff ffff 			; <UNDEFINED> instruction: 0xffffffff
    b154:	ffff ffff 			; <UNDEFINED> instruction: 0xffffffff
    b158:	ffff ffff 			; <UNDEFINED> instruction: 0xffffffff
    b15c:	ffff ffff 			; <UNDEFINED> instruction: 0xffffffff
    b160:	ffff ffff 			; <UNDEFINED> instruction: 0xffffffff
    b164:	ffff ffff 			; <UNDEFINED> instruction: 0xffffffff
    b168:	ffff ffff 			; <UNDEFINED> instruction: 0xffffffff
    b16c:	ffff ffff 			; <UNDEFINED> instruction: 0xffffffff
    b170:	ffff ffff 			; <UNDEFINED> instruction: 0xffffffff
    b174:	ffff ffff 			; <UNDEFINED> instruction: 0xffffffff
    b178:	ffff ffff 			; <UNDEFINED> instruction: 0xffffffff
    b17c:	ffff ffff 			; <UNDEFINED> instruction: 0xffffffff
    b180:	ffff ffff 			; <UNDEFINED> instruction: 0xffffffff
    b184:	ffff ffff 			; <UNDEFINED> instruction: 0xffffffff
    b188:	ffff ffff 			; <UNDEFINED> instruction: 0xffffffff
    b18c:	ffff ffff 			; <UNDEFINED> instruction: 0xffffffff
    b190:	ffff ffff 			; <UNDEFINED> instruction: 0xffffffff
    b194:	ffff ffff 			; <UNDEFINED> instruction: 0xffffffff
    b198:	ffff ffff 			; <UNDEFINED> instruction: 0xffffffff
    b19c:	ffff ffff 			; <UNDEFINED> instruction: 0xffffffff
    b1a0:	ffff ffff 			; <UNDEFINED> instruction: 0xffffffff
    b1a4:	ffff ffff 			; <UNDEFINED> instruction: 0xffffffff
    b1a8:	ffff ffff 			; <UNDEFINED> instruction: 0xffffffff
    b1ac:	ffff ffff 			; <UNDEFINED> instruction: 0xffffffff
    b1b0:	ffff ffff 			; <UNDEFINED> instruction: 0xffffffff
    b1b4:	ffff ffff 			; <UNDEFINED> instruction: 0xffffffff
    b1b8:	ffff ffff 			; <UNDEFINED> instruction: 0xffffffff
    b1bc:	ffff ffff 			; <UNDEFINED> instruction: 0xffffffff
    b1c0:	ffff ffff 			; <UNDEFINED> instruction: 0xffffffff
    b1c4:	ffff ffff 			; <UNDEFINED> instruction: 0xffffffff
    b1c8:	ffff ffff 			; <UNDEFINED> instruction: 0xffffffff
    b1cc:	ffff ffff 			; <UNDEFINED> instruction: 0xffffffff
    b1d0:	ffff ffff 			; <UNDEFINED> instruction: 0xffffffff
    b1d4:	ffff ffff 			; <UNDEFINED> instruction: 0xffffffff
    b1d8:	ffff ffff 			; <UNDEFINED> instruction: 0xffffffff
    b1dc:	ffff ffff 			; <UNDEFINED> instruction: 0xffffffff
    b1e0:	ffff ffff 			; <UNDEFINED> instruction: 0xffffffff
    b1e4:	ffff ffff 			; <UNDEFINED> instruction: 0xffffffff
    b1e8:	ffff ffff 			; <UNDEFINED> instruction: 0xffffffff
    b1ec:	ffff ffff 			; <UNDEFINED> instruction: 0xffffffff
    b1f0:	ffff ffff 			; <UNDEFINED> instruction: 0xffffffff
    b1f4:	ffff ffff 			; <UNDEFINED> instruction: 0xffffffff
    b1f8:	ffff ffff 			; <UNDEFINED> instruction: 0xffffffff
    b1fc:	ffff ffff 			; <UNDEFINED> instruction: 0xffffffff
    b200:	ffff ffff 			; <UNDEFINED> instruction: 0xffffffff
    b204:	ffff ffff 			; <UNDEFINED> instruction: 0xffffffff
    b208:	ffff ffff 			; <UNDEFINED> instruction: 0xffffffff
    b20c:	ffff ffff 			; <UNDEFINED> instruction: 0xffffffff
    b210:	ffff ffff 			; <UNDEFINED> instruction: 0xffffffff
    b214:	ffff ffff 			; <UNDEFINED> instruction: 0xffffffff
    b218:	ffff ffff 			; <UNDEFINED> instruction: 0xffffffff
    b21c:	ffff ffff 			; <UNDEFINED> instruction: 0xffffffff
    b220:	ffff ffff 			; <UNDEFINED> instruction: 0xffffffff
    b224:	ffff ffff 			; <UNDEFINED> instruction: 0xffffffff
    b228:	ffff ffff 			; <UNDEFINED> instruction: 0xffffffff
    b22c:	ffff ffff 			; <UNDEFINED> instruction: 0xffffffff
    b230:	ffff ffff 			; <UNDEFINED> instruction: 0xffffffff
    b234:	ffff ffff 			; <UNDEFINED> instruction: 0xffffffff
    b238:	ffff ffff 			; <UNDEFINED> instruction: 0xffffffff
    b23c:	ffff ffff 			; <UNDEFINED> instruction: 0xffffffff
    b240:	ffff ffff 			; <UNDEFINED> instruction: 0xffffffff
    b244:	ffff ffff 			; <UNDEFINED> instruction: 0xffffffff
    b248:	ffff ffff 			; <UNDEFINED> instruction: 0xffffffff
    b24c:	ffff ffff 			; <UNDEFINED> instruction: 0xffffffff
    b250:	ffff ffff 			; <UNDEFINED> instruction: 0xffffffff
    b254:	ffff ffff 			; <UNDEFINED> instruction: 0xffffffff
    b258:	ffff ffff 			; <UNDEFINED> instruction: 0xffffffff
    b25c:	ffff ffff 			; <UNDEFINED> instruction: 0xffffffff
    b260:	ffff ffff 			; <UNDEFINED> instruction: 0xffffffff
    b264:	ffff ffff 			; <UNDEFINED> instruction: 0xffffffff
    b268:	ffff ffff 			; <UNDEFINED> instruction: 0xffffffff
    b26c:	ffff ffff 			; <UNDEFINED> instruction: 0xffffffff
    b270:	ffff ffff 			; <UNDEFINED> instruction: 0xffffffff
    b274:	ffff ffff 			; <UNDEFINED> instruction: 0xffffffff
    b278:	ffff ffff 			; <UNDEFINED> instruction: 0xffffffff
    b27c:	ffff ffff 			; <UNDEFINED> instruction: 0xffffffff
    b280:	ffff ffff 			; <UNDEFINED> instruction: 0xffffffff
    b284:	ffff ffff 			; <UNDEFINED> instruction: 0xffffffff
    b288:	ffff ffff 			; <UNDEFINED> instruction: 0xffffffff
    b28c:	ffff ffff 			; <UNDEFINED> instruction: 0xffffffff
    b290:	ffff ffff 			; <UNDEFINED> instruction: 0xffffffff
    b294:	ffff ffff 			; <UNDEFINED> instruction: 0xffffffff
    b298:	ffff ffff 			; <UNDEFINED> instruction: 0xffffffff
    b29c:	ffff ffff 			; <UNDEFINED> instruction: 0xffffffff
    b2a0:	ffff ffff 			; <UNDEFINED> instruction: 0xffffffff
    b2a4:	ffff ffff 			; <UNDEFINED> instruction: 0xffffffff
    b2a8:	ffff ffff 			; <UNDEFINED> instruction: 0xffffffff
    b2ac:	ffff ffff 			; <UNDEFINED> instruction: 0xffffffff
    b2b0:	ffff ffff 			; <UNDEFINED> instruction: 0xffffffff
    b2b4:	ffff ffff 			; <UNDEFINED> instruction: 0xffffffff
    b2b8:	ffff ffff 			; <UNDEFINED> instruction: 0xffffffff
    b2bc:	ffff ffff 			; <UNDEFINED> instruction: 0xffffffff
    b2c0:	ffff ffff 			; <UNDEFINED> instruction: 0xffffffff
    b2c4:	ffff ffff 			; <UNDEFINED> instruction: 0xffffffff
    b2c8:	ffff ffff 			; <UNDEFINED> instruction: 0xffffffff
    b2cc:	ffff ffff 			; <UNDEFINED> instruction: 0xffffffff
    b2d0:	ffff ffff 			; <UNDEFINED> instruction: 0xffffffff
    b2d4:	ffff ffff 			; <UNDEFINED> instruction: 0xffffffff
    b2d8:	ffff ffff 			; <UNDEFINED> instruction: 0xffffffff
    b2dc:	ffff ffff 			; <UNDEFINED> instruction: 0xffffffff
    b2e0:	ffff ffff 			; <UNDEFINED> instruction: 0xffffffff
    b2e4:	ffff ffff 			; <UNDEFINED> instruction: 0xffffffff
    b2e8:	ffff ffff 			; <UNDEFINED> instruction: 0xffffffff
    b2ec:	ffff ffff 			; <UNDEFINED> instruction: 0xffffffff
    b2f0:	ffff ffff 			; <UNDEFINED> instruction: 0xffffffff
    b2f4:	ffff ffff 			; <UNDEFINED> instruction: 0xffffffff
    b2f8:	ffff ffff 			; <UNDEFINED> instruction: 0xffffffff
    b2fc:	ffff ffff 			; <UNDEFINED> instruction: 0xffffffff
    b300:	ffff ffff 			; <UNDEFINED> instruction: 0xffffffff
    b304:	ffff ffff 			; <UNDEFINED> instruction: 0xffffffff
    b308:	ffff ffff 			; <UNDEFINED> instruction: 0xffffffff
    b30c:	ffff ffff 			; <UNDEFINED> instruction: 0xffffffff
    b310:	ffff ffff 			; <UNDEFINED> instruction: 0xffffffff
    b314:	ffff ffff 			; <UNDEFINED> instruction: 0xffffffff
    b318:	ffff ffff 			; <UNDEFINED> instruction: 0xffffffff
    b31c:	ffff ffff 			; <UNDEFINED> instruction: 0xffffffff
    b320:	ffff ffff 			; <UNDEFINED> instruction: 0xffffffff
    b324:	ffff ffff 			; <UNDEFINED> instruction: 0xffffffff
    b328:	ffff ffff 			; <UNDEFINED> instruction: 0xffffffff
    b32c:	ffff ffff 			; <UNDEFINED> instruction: 0xffffffff
    b330:	ffff ffff 			; <UNDEFINED> instruction: 0xffffffff
    b334:	ffff ffff 			; <UNDEFINED> instruction: 0xffffffff
    b338:	ffff ffff 			; <UNDEFINED> instruction: 0xffffffff
    b33c:	ffff ffff 			; <UNDEFINED> instruction: 0xffffffff
    b340:	ffff ffff 			; <UNDEFINED> instruction: 0xffffffff
    b344:	ffff ffff 			; <UNDEFINED> instruction: 0xffffffff
    b348:	ffff ffff 			; <UNDEFINED> instruction: 0xffffffff
    b34c:	ffff ffff 			; <UNDEFINED> instruction: 0xffffffff
    b350:	ffff ffff 			; <UNDEFINED> instruction: 0xffffffff
    b354:	ffff ffff 			; <UNDEFINED> instruction: 0xffffffff
    b358:	ffff ffff 			; <UNDEFINED> instruction: 0xffffffff
    b35c:	ffff ffff 			; <UNDEFINED> instruction: 0xffffffff
    b360:	ffff ffff 			; <UNDEFINED> instruction: 0xffffffff
    b364:	ffff ffff 			; <UNDEFINED> instruction: 0xffffffff
    b368:	ffff ffff 			; <UNDEFINED> instruction: 0xffffffff
    b36c:	ffff ffff 			; <UNDEFINED> instruction: 0xffffffff
    b370:	ffff ffff 			; <UNDEFINED> instruction: 0xffffffff
    b374:	ffff ffff 			; <UNDEFINED> instruction: 0xffffffff
    b378:	ffff ffff 			; <UNDEFINED> instruction: 0xffffffff
    b37c:	ffff ffff 			; <UNDEFINED> instruction: 0xffffffff
    b380:	ffff ffff 			; <UNDEFINED> instruction: 0xffffffff
    b384:	ffff ffff 			; <UNDEFINED> instruction: 0xffffffff
    b388:	ffff ffff 			; <UNDEFINED> instruction: 0xffffffff
    b38c:	ffff ffff 			; <UNDEFINED> instruction: 0xffffffff
    b390:	ffff ffff 			; <UNDEFINED> instruction: 0xffffffff
    b394:	ffff ffff 			; <UNDEFINED> instruction: 0xffffffff
    b398:	ffff ffff 			; <UNDEFINED> instruction: 0xffffffff
    b39c:	ffff ffff 			; <UNDEFINED> instruction: 0xffffffff
    b3a0:	ffff ffff 			; <UNDEFINED> instruction: 0xffffffff
    b3a4:	ffff ffff 			; <UNDEFINED> instruction: 0xffffffff
    b3a8:	ffff ffff 			; <UNDEFINED> instruction: 0xffffffff
    b3ac:	ffff ffff 			; <UNDEFINED> instruction: 0xffffffff
    b3b0:	ffff ffff 			; <UNDEFINED> instruction: 0xffffffff
    b3b4:	ffff ffff 			; <UNDEFINED> instruction: 0xffffffff
    b3b8:	ffff ffff 			; <UNDEFINED> instruction: 0xffffffff
    b3bc:	ffff ffff 			; <UNDEFINED> instruction: 0xffffffff
    b3c0:	ffff ffff 			; <UNDEFINED> instruction: 0xffffffff
    b3c4:	ffff ffff 			; <UNDEFINED> instruction: 0xffffffff
    b3c8:	ffff ffff 			; <UNDEFINED> instruction: 0xffffffff
    b3cc:	ffff ffff 			; <UNDEFINED> instruction: 0xffffffff
    b3d0:	ffff ffff 			; <UNDEFINED> instruction: 0xffffffff
    b3d4:	ffff ffff 			; <UNDEFINED> instruction: 0xffffffff
    b3d8:	ffff ffff 			; <UNDEFINED> instruction: 0xffffffff
    b3dc:	ffff ffff 			; <UNDEFINED> instruction: 0xffffffff
    b3e0:	ffff ffff 			; <UNDEFINED> instruction: 0xffffffff
    b3e4:	ffff ffff 			; <UNDEFINED> instruction: 0xffffffff
    b3e8:	ffff ffff 			; <UNDEFINED> instruction: 0xffffffff
    b3ec:	ffff ffff 			; <UNDEFINED> instruction: 0xffffffff
    b3f0:	ffff ffff 			; <UNDEFINED> instruction: 0xffffffff
    b3f4:	ffff ffff 			; <UNDEFINED> instruction: 0xffffffff
    b3f8:	ffff ffff 			; <UNDEFINED> instruction: 0xffffffff
    b3fc:	ffff ffff 			; <UNDEFINED> instruction: 0xffffffff
    b400:	ffff ffff 			; <UNDEFINED> instruction: 0xffffffff
    b404:	ffff ffff 			; <UNDEFINED> instruction: 0xffffffff
    b408:	ffff ffff 			; <UNDEFINED> instruction: 0xffffffff
    b40c:	ffff ffff 			; <UNDEFINED> instruction: 0xffffffff
    b410:	ffff ffff 			; <UNDEFINED> instruction: 0xffffffff
    b414:	ffff ffff 			; <UNDEFINED> instruction: 0xffffffff
    b418:	ffff ffff 			; <UNDEFINED> instruction: 0xffffffff
    b41c:	ffff ffff 			; <UNDEFINED> instruction: 0xffffffff
    b420:	ffff ffff 			; <UNDEFINED> instruction: 0xffffffff
    b424:	ffff ffff 			; <UNDEFINED> instruction: 0xffffffff
    b428:	ffff ffff 			; <UNDEFINED> instruction: 0xffffffff
    b42c:	ffff ffff 			; <UNDEFINED> instruction: 0xffffffff
    b430:	ffff ffff 			; <UNDEFINED> instruction: 0xffffffff
    b434:	ffff ffff 			; <UNDEFINED> instruction: 0xffffffff
    b438:	ffff ffff 			; <UNDEFINED> instruction: 0xffffffff
    b43c:	ffff ffff 			; <UNDEFINED> instruction: 0xffffffff
    b440:	ffff ffff 			; <UNDEFINED> instruction: 0xffffffff
    b444:	ffff ffff 			; <UNDEFINED> instruction: 0xffffffff
    b448:	ffff ffff 			; <UNDEFINED> instruction: 0xffffffff
    b44c:	ffff ffff 			; <UNDEFINED> instruction: 0xffffffff
    b450:	ffff ffff 			; <UNDEFINED> instruction: 0xffffffff
    b454:	ffff ffff 			; <UNDEFINED> instruction: 0xffffffff
    b458:	ffff ffff 			; <UNDEFINED> instruction: 0xffffffff
    b45c:	ffff ffff 			; <UNDEFINED> instruction: 0xffffffff
    b460:	ffff ffff 			; <UNDEFINED> instruction: 0xffffffff
    b464:	ffff ffff 			; <UNDEFINED> instruction: 0xffffffff
    b468:	ffff ffff 			; <UNDEFINED> instruction: 0xffffffff
    b46c:	ffff ffff 			; <UNDEFINED> instruction: 0xffffffff
    b470:	ffff ffff 			; <UNDEFINED> instruction: 0xffffffff
    b474:	ffff ffff 			; <UNDEFINED> instruction: 0xffffffff
    b478:	ffff ffff 			; <UNDEFINED> instruction: 0xffffffff
    b47c:	ffff ffff 			; <UNDEFINED> instruction: 0xffffffff
    b480:	ffff ffff 			; <UNDEFINED> instruction: 0xffffffff
    b484:	ffff ffff 			; <UNDEFINED> instruction: 0xffffffff
    b488:	ffff ffff 			; <UNDEFINED> instruction: 0xffffffff
    b48c:	ffff ffff 			; <UNDEFINED> instruction: 0xffffffff
    b490:	ffff ffff 			; <UNDEFINED> instruction: 0xffffffff
    b494:	ffff ffff 			; <UNDEFINED> instruction: 0xffffffff
    b498:	ffff ffff 			; <UNDEFINED> instruction: 0xffffffff
    b49c:	ffff ffff 			; <UNDEFINED> instruction: 0xffffffff
    b4a0:	ffff ffff 			; <UNDEFINED> instruction: 0xffffffff
    b4a4:	ffff ffff 			; <UNDEFINED> instruction: 0xffffffff
    b4a8:	ffff ffff 			; <UNDEFINED> instruction: 0xffffffff
    b4ac:	ffff ffff 			; <UNDEFINED> instruction: 0xffffffff
    b4b0:	ffff ffff 			; <UNDEFINED> instruction: 0xffffffff
    b4b4:	ffff ffff 			; <UNDEFINED> instruction: 0xffffffff
    b4b8:	ffff ffff 			; <UNDEFINED> instruction: 0xffffffff
    b4bc:	ffff ffff 			; <UNDEFINED> instruction: 0xffffffff
    b4c0:	ffff ffff 			; <UNDEFINED> instruction: 0xffffffff
    b4c4:	ffff ffff 			; <UNDEFINED> instruction: 0xffffffff
    b4c8:	ffff ffff 			; <UNDEFINED> instruction: 0xffffffff
    b4cc:	ffff ffff 			; <UNDEFINED> instruction: 0xffffffff
    b4d0:	ffff ffff 			; <UNDEFINED> instruction: 0xffffffff
    b4d4:	ffff ffff 			; <UNDEFINED> instruction: 0xffffffff
    b4d8:	ffff ffff 			; <UNDEFINED> instruction: 0xffffffff
    b4dc:	ffff ffff 			; <UNDEFINED> instruction: 0xffffffff
    b4e0:	ffff ffff 			; <UNDEFINED> instruction: 0xffffffff
    b4e4:	ffff ffff 			; <UNDEFINED> instruction: 0xffffffff
    b4e8:	ffff ffff 			; <UNDEFINED> instruction: 0xffffffff
    b4ec:	ffff ffff 			; <UNDEFINED> instruction: 0xffffffff
    b4f0:	ffff ffff 			; <UNDEFINED> instruction: 0xffffffff
    b4f4:	ffff ffff 			; <UNDEFINED> instruction: 0xffffffff
    b4f8:	ffff ffff 			; <UNDEFINED> instruction: 0xffffffff
    b4fc:	ffff ffff 			; <UNDEFINED> instruction: 0xffffffff
    b500:	ffff ffff 			; <UNDEFINED> instruction: 0xffffffff
    b504:	ffff ffff 			; <UNDEFINED> instruction: 0xffffffff
    b508:	ffff ffff 			; <UNDEFINED> instruction: 0xffffffff
    b50c:	ffff ffff 			; <UNDEFINED> instruction: 0xffffffff
    b510:	ffff ffff 			; <UNDEFINED> instruction: 0xffffffff
    b514:	ffff ffff 			; <UNDEFINED> instruction: 0xffffffff
    b518:	ffff ffff 			; <UNDEFINED> instruction: 0xffffffff
    b51c:	ffff ffff 			; <UNDEFINED> instruction: 0xffffffff
    b520:	ffff ffff 			; <UNDEFINED> instruction: 0xffffffff
    b524:	ffff ffff 			; <UNDEFINED> instruction: 0xffffffff
    b528:	ffff ffff 			; <UNDEFINED> instruction: 0xffffffff
    b52c:	ffff ffff 			; <UNDEFINED> instruction: 0xffffffff
    b530:	ffff ffff 			; <UNDEFINED> instruction: 0xffffffff
    b534:	ffff ffff 			; <UNDEFINED> instruction: 0xffffffff
    b538:	ffff ffff 			; <UNDEFINED> instruction: 0xffffffff
    b53c:	ffff ffff 			; <UNDEFINED> instruction: 0xffffffff
    b540:	ffff ffff 			; <UNDEFINED> instruction: 0xffffffff
    b544:	ffff ffff 			; <UNDEFINED> instruction: 0xffffffff
    b548:	ffff ffff 			; <UNDEFINED> instruction: 0xffffffff
    b54c:	ffff ffff 			; <UNDEFINED> instruction: 0xffffffff
    b550:	ffff ffff 			; <UNDEFINED> instruction: 0xffffffff
    b554:	ffff ffff 			; <UNDEFINED> instruction: 0xffffffff
    b558:	ffff ffff 			; <UNDEFINED> instruction: 0xffffffff
    b55c:	ffff ffff 			; <UNDEFINED> instruction: 0xffffffff
    b560:	ffff ffff 			; <UNDEFINED> instruction: 0xffffffff
    b564:	ffff ffff 			; <UNDEFINED> instruction: 0xffffffff
    b568:	ffff ffff 			; <UNDEFINED> instruction: 0xffffffff
    b56c:	ffff ffff 			; <UNDEFINED> instruction: 0xffffffff
    b570:	ffff ffff 			; <UNDEFINED> instruction: 0xffffffff
    b574:	ffff ffff 			; <UNDEFINED> instruction: 0xffffffff
    b578:	ffff ffff 			; <UNDEFINED> instruction: 0xffffffff
    b57c:	ffff ffff 			; <UNDEFINED> instruction: 0xffffffff
    b580:	ffff ffff 			; <UNDEFINED> instruction: 0xffffffff
    b584:	ffff ffff 			; <UNDEFINED> instruction: 0xffffffff
    b588:	ffff ffff 			; <UNDEFINED> instruction: 0xffffffff
    b58c:	ffff ffff 			; <UNDEFINED> instruction: 0xffffffff
    b590:	ffff ffff 			; <UNDEFINED> instruction: 0xffffffff
    b594:	ffff ffff 			; <UNDEFINED> instruction: 0xffffffff
    b598:	ffff ffff 			; <UNDEFINED> instruction: 0xffffffff
    b59c:	ffff ffff 			; <UNDEFINED> instruction: 0xffffffff
    b5a0:	ffff ffff 			; <UNDEFINED> instruction: 0xffffffff
    b5a4:	ffff ffff 			; <UNDEFINED> instruction: 0xffffffff
    b5a8:	ffff ffff 			; <UNDEFINED> instruction: 0xffffffff
    b5ac:	ffff ffff 			; <UNDEFINED> instruction: 0xffffffff
    b5b0:	ffff ffff 			; <UNDEFINED> instruction: 0xffffffff
    b5b4:	ffff ffff 			; <UNDEFINED> instruction: 0xffffffff
    b5b8:	ffff ffff 			; <UNDEFINED> instruction: 0xffffffff
    b5bc:	ffff ffff 			; <UNDEFINED> instruction: 0xffffffff
    b5c0:	ffff ffff 			; <UNDEFINED> instruction: 0xffffffff
    b5c4:	ffff ffff 			; <UNDEFINED> instruction: 0xffffffff
    b5c8:	ffff ffff 			; <UNDEFINED> instruction: 0xffffffff
    b5cc:	ffff ffff 			; <UNDEFINED> instruction: 0xffffffff
    b5d0:	ffff ffff 			; <UNDEFINED> instruction: 0xffffffff
    b5d4:	ffff ffff 			; <UNDEFINED> instruction: 0xffffffff
    b5d8:	ffff ffff 			; <UNDEFINED> instruction: 0xffffffff
    b5dc:	ffff ffff 			; <UNDEFINED> instruction: 0xffffffff
    b5e0:	ffff ffff 			; <UNDEFINED> instruction: 0xffffffff
    b5e4:	ffff ffff 			; <UNDEFINED> instruction: 0xffffffff
    b5e8:	ffff ffff 			; <UNDEFINED> instruction: 0xffffffff
    b5ec:	ffff ffff 			; <UNDEFINED> instruction: 0xffffffff
    b5f0:	ffff ffff 			; <UNDEFINED> instruction: 0xffffffff
    b5f4:	ffff ffff 			; <UNDEFINED> instruction: 0xffffffff
    b5f8:	ffff ffff 			; <UNDEFINED> instruction: 0xffffffff
    b5fc:	ffff ffff 			; <UNDEFINED> instruction: 0xffffffff
    b600:	ffff ffff 			; <UNDEFINED> instruction: 0xffffffff
    b604:	ffff ffff 			; <UNDEFINED> instruction: 0xffffffff
    b608:	ffff ffff 			; <UNDEFINED> instruction: 0xffffffff
    b60c:	ffff ffff 			; <UNDEFINED> instruction: 0xffffffff
    b610:	ffff ffff 			; <UNDEFINED> instruction: 0xffffffff
    b614:	ffff ffff 			; <UNDEFINED> instruction: 0xffffffff
    b618:	ffff ffff 			; <UNDEFINED> instruction: 0xffffffff
    b61c:	ffff ffff 			; <UNDEFINED> instruction: 0xffffffff
    b620:	ffff ffff 			; <UNDEFINED> instruction: 0xffffffff
    b624:	ffff ffff 			; <UNDEFINED> instruction: 0xffffffff
    b628:	ffff ffff 			; <UNDEFINED> instruction: 0xffffffff
    b62c:	ffff ffff 			; <UNDEFINED> instruction: 0xffffffff
    b630:	ffff ffff 			; <UNDEFINED> instruction: 0xffffffff
    b634:	ffff ffff 			; <UNDEFINED> instruction: 0xffffffff
    b638:	ffff ffff 			; <UNDEFINED> instruction: 0xffffffff
    b63c:	ffff ffff 			; <UNDEFINED> instruction: 0xffffffff
    b640:	ffff ffff 			; <UNDEFINED> instruction: 0xffffffff
    b644:	ffff ffff 			; <UNDEFINED> instruction: 0xffffffff
    b648:	ffff ffff 			; <UNDEFINED> instruction: 0xffffffff
    b64c:	ffff ffff 			; <UNDEFINED> instruction: 0xffffffff
    b650:	ffff ffff 			; <UNDEFINED> instruction: 0xffffffff
    b654:	ffff ffff 			; <UNDEFINED> instruction: 0xffffffff
    b658:	ffff ffff 			; <UNDEFINED> instruction: 0xffffffff
    b65c:	ffff ffff 			; <UNDEFINED> instruction: 0xffffffff
    b660:	ffff ffff 			; <UNDEFINED> instruction: 0xffffffff
    b664:	ffff ffff 			; <UNDEFINED> instruction: 0xffffffff
    b668:	ffff ffff 			; <UNDEFINED> instruction: 0xffffffff
    b66c:	ffff ffff 			; <UNDEFINED> instruction: 0xffffffff
    b670:	ffff ffff 			; <UNDEFINED> instruction: 0xffffffff
    b674:	ffff ffff 			; <UNDEFINED> instruction: 0xffffffff
    b678:	ffff ffff 			; <UNDEFINED> instruction: 0xffffffff
    b67c:	ffff ffff 			; <UNDEFINED> instruction: 0xffffffff
    b680:	ffff ffff 			; <UNDEFINED> instruction: 0xffffffff
    b684:	ffff ffff 			; <UNDEFINED> instruction: 0xffffffff
    b688:	ffff ffff 			; <UNDEFINED> instruction: 0xffffffff
    b68c:	ffff ffff 			; <UNDEFINED> instruction: 0xffffffff
    b690:	ffff ffff 			; <UNDEFINED> instruction: 0xffffffff
    b694:	ffff ffff 			; <UNDEFINED> instruction: 0xffffffff
    b698:	ffff ffff 			; <UNDEFINED> instruction: 0xffffffff
    b69c:	ffff ffff 			; <UNDEFINED> instruction: 0xffffffff
    b6a0:	ffff ffff 			; <UNDEFINED> instruction: 0xffffffff
    b6a4:	ffff ffff 			; <UNDEFINED> instruction: 0xffffffff
    b6a8:	ffff ffff 			; <UNDEFINED> instruction: 0xffffffff
    b6ac:	ffff ffff 			; <UNDEFINED> instruction: 0xffffffff
    b6b0:	ffff ffff 			; <UNDEFINED> instruction: 0xffffffff
    b6b4:	ffff ffff 			; <UNDEFINED> instruction: 0xffffffff
    b6b8:	ffff ffff 			; <UNDEFINED> instruction: 0xffffffff
    b6bc:	ffff ffff 			; <UNDEFINED> instruction: 0xffffffff
    b6c0:	ffff ffff 			; <UNDEFINED> instruction: 0xffffffff
    b6c4:	ffff ffff 			; <UNDEFINED> instruction: 0xffffffff
    b6c8:	ffff ffff 			; <UNDEFINED> instruction: 0xffffffff
    b6cc:	ffff ffff 			; <UNDEFINED> instruction: 0xffffffff
    b6d0:	ffff ffff 			; <UNDEFINED> instruction: 0xffffffff
    b6d4:	ffff ffff 			; <UNDEFINED> instruction: 0xffffffff
    b6d8:	ffff ffff 			; <UNDEFINED> instruction: 0xffffffff
    b6dc:	ffff ffff 			; <UNDEFINED> instruction: 0xffffffff
    b6e0:	ffff ffff 			; <UNDEFINED> instruction: 0xffffffff
    b6e4:	ffff ffff 			; <UNDEFINED> instruction: 0xffffffff
    b6e8:	ffff ffff 			; <UNDEFINED> instruction: 0xffffffff
    b6ec:	ffff ffff 			; <UNDEFINED> instruction: 0xffffffff
    b6f0:	ffff ffff 			; <UNDEFINED> instruction: 0xffffffff
    b6f4:	ffff ffff 			; <UNDEFINED> instruction: 0xffffffff
    b6f8:	ffff ffff 			; <UNDEFINED> instruction: 0xffffffff
    b6fc:	ffff ffff 			; <UNDEFINED> instruction: 0xffffffff
    b700:	ffff ffff 			; <UNDEFINED> instruction: 0xffffffff
    b704:	ffff ffff 			; <UNDEFINED> instruction: 0xffffffff
    b708:	ffff ffff 			; <UNDEFINED> instruction: 0xffffffff
    b70c:	ffff ffff 			; <UNDEFINED> instruction: 0xffffffff
    b710:	ffff ffff 			; <UNDEFINED> instruction: 0xffffffff
    b714:	ffff ffff 			; <UNDEFINED> instruction: 0xffffffff
    b718:	ffff ffff 			; <UNDEFINED> instruction: 0xffffffff
    b71c:	ffff ffff 			; <UNDEFINED> instruction: 0xffffffff
    b720:	ffff ffff 			; <UNDEFINED> instruction: 0xffffffff
    b724:	ffff ffff 			; <UNDEFINED> instruction: 0xffffffff
    b728:	ffff ffff 			; <UNDEFINED> instruction: 0xffffffff
    b72c:	ffff ffff 			; <UNDEFINED> instruction: 0xffffffff
    b730:	ffff ffff 			; <UNDEFINED> instruction: 0xffffffff
    b734:	ffff ffff 			; <UNDEFINED> instruction: 0xffffffff
    b738:	ffff ffff 			; <UNDEFINED> instruction: 0xffffffff
    b73c:	ffff ffff 			; <UNDEFINED> instruction: 0xffffffff
    b740:	ffff ffff 			; <UNDEFINED> instruction: 0xffffffff
    b744:	ffff ffff 			; <UNDEFINED> instruction: 0xffffffff
    b748:	ffff ffff 			; <UNDEFINED> instruction: 0xffffffff
    b74c:	ffff ffff 			; <UNDEFINED> instruction: 0xffffffff
    b750:	ffff ffff 			; <UNDEFINED> instruction: 0xffffffff
    b754:	ffff ffff 			; <UNDEFINED> instruction: 0xffffffff
    b758:	ffff ffff 			; <UNDEFINED> instruction: 0xffffffff
    b75c:	ffff ffff 			; <UNDEFINED> instruction: 0xffffffff
    b760:	ffff ffff 			; <UNDEFINED> instruction: 0xffffffff
    b764:	ffff ffff 			; <UNDEFINED> instruction: 0xffffffff
    b768:	ffff ffff 			; <UNDEFINED> instruction: 0xffffffff
    b76c:	ffff ffff 			; <UNDEFINED> instruction: 0xffffffff
    b770:	ffff ffff 			; <UNDEFINED> instruction: 0xffffffff
    b774:	ffff ffff 			; <UNDEFINED> instruction: 0xffffffff
    b778:	ffff ffff 			; <UNDEFINED> instruction: 0xffffffff
    b77c:	ffff ffff 			; <UNDEFINED> instruction: 0xffffffff
    b780:	ffff ffff 			; <UNDEFINED> instruction: 0xffffffff
    b784:	ffff ffff 			; <UNDEFINED> instruction: 0xffffffff
    b788:	ffff ffff 			; <UNDEFINED> instruction: 0xffffffff
    b78c:	ffff ffff 			; <UNDEFINED> instruction: 0xffffffff
    b790:	ffff ffff 			; <UNDEFINED> instruction: 0xffffffff
    b794:	ffff ffff 			; <UNDEFINED> instruction: 0xffffffff
    b798:	ffff ffff 			; <UNDEFINED> instruction: 0xffffffff
    b79c:	ffff ffff 			; <UNDEFINED> instruction: 0xffffffff
    b7a0:	ffff ffff 			; <UNDEFINED> instruction: 0xffffffff
    b7a4:	ffff ffff 			; <UNDEFINED> instruction: 0xffffffff
    b7a8:	ffff ffff 			; <UNDEFINED> instruction: 0xffffffff
    b7ac:	ffff ffff 			; <UNDEFINED> instruction: 0xffffffff
    b7b0:	ffff ffff 			; <UNDEFINED> instruction: 0xffffffff
    b7b4:	ffff ffff 			; <UNDEFINED> instruction: 0xffffffff
    b7b8:	ffff ffff 			; <UNDEFINED> instruction: 0xffffffff
    b7bc:	ffff ffff 			; <UNDEFINED> instruction: 0xffffffff
    b7c0:	ffff ffff 			; <UNDEFINED> instruction: 0xffffffff
    b7c4:	ffff ffff 			; <UNDEFINED> instruction: 0xffffffff
    b7c8:	ffff ffff 			; <UNDEFINED> instruction: 0xffffffff
    b7cc:	ffff ffff 			; <UNDEFINED> instruction: 0xffffffff
    b7d0:	ffff ffff 			; <UNDEFINED> instruction: 0xffffffff
    b7d4:	ffff ffff 			; <UNDEFINED> instruction: 0xffffffff
    b7d8:	ffff ffff 			; <UNDEFINED> instruction: 0xffffffff
    b7dc:	ffff ffff 			; <UNDEFINED> instruction: 0xffffffff
    b7e0:	ffff ffff 			; <UNDEFINED> instruction: 0xffffffff
    b7e4:	ffff ffff 			; <UNDEFINED> instruction: 0xffffffff
    b7e8:	ffff ffff 			; <UNDEFINED> instruction: 0xffffffff
    b7ec:	ffff ffff 			; <UNDEFINED> instruction: 0xffffffff
    b7f0:	ffff ffff 			; <UNDEFINED> instruction: 0xffffffff
    b7f4:	ffff ffff 			; <UNDEFINED> instruction: 0xffffffff
    b7f8:	ffff ffff 			; <UNDEFINED> instruction: 0xffffffff
    b7fc:	ffff ffff 			; <UNDEFINED> instruction: 0xffffffff
    b800:	ffff ffff 			; <UNDEFINED> instruction: 0xffffffff
    b804:	ffff ffff 			; <UNDEFINED> instruction: 0xffffffff
    b808:	ffff ffff 			; <UNDEFINED> instruction: 0xffffffff
    b80c:	ffff ffff 			; <UNDEFINED> instruction: 0xffffffff
    b810:	ffff ffff 			; <UNDEFINED> instruction: 0xffffffff
    b814:	ffff ffff 			; <UNDEFINED> instruction: 0xffffffff
    b818:	ffff ffff 			; <UNDEFINED> instruction: 0xffffffff
    b81c:	ffff ffff 			; <UNDEFINED> instruction: 0xffffffff
    b820:	ffff ffff 			; <UNDEFINED> instruction: 0xffffffff
    b824:	ffff ffff 			; <UNDEFINED> instruction: 0xffffffff
    b828:	ffff ffff 			; <UNDEFINED> instruction: 0xffffffff
    b82c:	ffff ffff 			; <UNDEFINED> instruction: 0xffffffff
    b830:	ffff ffff 			; <UNDEFINED> instruction: 0xffffffff
    b834:	ffff ffff 			; <UNDEFINED> instruction: 0xffffffff
    b838:	ffff ffff 			; <UNDEFINED> instruction: 0xffffffff
    b83c:	ffff ffff 			; <UNDEFINED> instruction: 0xffffffff
    b840:	ffff ffff 			; <UNDEFINED> instruction: 0xffffffff
    b844:	ffff ffff 			; <UNDEFINED> instruction: 0xffffffff
    b848:	ffff ffff 			; <UNDEFINED> instruction: 0xffffffff
    b84c:	ffff ffff 			; <UNDEFINED> instruction: 0xffffffff
    b850:	ffff ffff 			; <UNDEFINED> instruction: 0xffffffff
    b854:	ffff ffff 			; <UNDEFINED> instruction: 0xffffffff
    b858:	ffff ffff 			; <UNDEFINED> instruction: 0xffffffff
    b85c:	ffff ffff 			; <UNDEFINED> instruction: 0xffffffff
    b860:	ffff ffff 			; <UNDEFINED> instruction: 0xffffffff
    b864:	ffff ffff 			; <UNDEFINED> instruction: 0xffffffff
    b868:	ffff ffff 			; <UNDEFINED> instruction: 0xffffffff
    b86c:	ffff ffff 			; <UNDEFINED> instruction: 0xffffffff
    b870:	ffff ffff 			; <UNDEFINED> instruction: 0xffffffff
    b874:	ffff ffff 			; <UNDEFINED> instruction: 0xffffffff
    b878:	ffff ffff 			; <UNDEFINED> instruction: 0xffffffff
    b87c:	ffff ffff 			; <UNDEFINED> instruction: 0xffffffff
    b880:	ffff ffff 			; <UNDEFINED> instruction: 0xffffffff
    b884:	ffff ffff 			; <UNDEFINED> instruction: 0xffffffff
    b888:	ffff ffff 			; <UNDEFINED> instruction: 0xffffffff
    b88c:	ffff ffff 			; <UNDEFINED> instruction: 0xffffffff
    b890:	ffff ffff 			; <UNDEFINED> instruction: 0xffffffff
    b894:	ffff ffff 			; <UNDEFINED> instruction: 0xffffffff
    b898:	ffff ffff 			; <UNDEFINED> instruction: 0xffffffff
    b89c:	ffff ffff 			; <UNDEFINED> instruction: 0xffffffff
    b8a0:	ffff ffff 			; <UNDEFINED> instruction: 0xffffffff
    b8a4:	ffff ffff 			; <UNDEFINED> instruction: 0xffffffff
    b8a8:	ffff ffff 			; <UNDEFINED> instruction: 0xffffffff
    b8ac:	ffff ffff 			; <UNDEFINED> instruction: 0xffffffff
    b8b0:	ffff ffff 			; <UNDEFINED> instruction: 0xffffffff
    b8b4:	ffff ffff 			; <UNDEFINED> instruction: 0xffffffff
    b8b8:	ffff ffff 			; <UNDEFINED> instruction: 0xffffffff
    b8bc:	ffff ffff 			; <UNDEFINED> instruction: 0xffffffff
    b8c0:	ffff ffff 			; <UNDEFINED> instruction: 0xffffffff
    b8c4:	ffff ffff 			; <UNDEFINED> instruction: 0xffffffff
    b8c8:	ffff ffff 			; <UNDEFINED> instruction: 0xffffffff
    b8cc:	ffff ffff 			; <UNDEFINED> instruction: 0xffffffff
    b8d0:	ffff ffff 			; <UNDEFINED> instruction: 0xffffffff
    b8d4:	ffff ffff 			; <UNDEFINED> instruction: 0xffffffff
    b8d8:	ffff ffff 			; <UNDEFINED> instruction: 0xffffffff
    b8dc:	ffff ffff 			; <UNDEFINED> instruction: 0xffffffff
    b8e0:	ffff ffff 			; <UNDEFINED> instruction: 0xffffffff
    b8e4:	ffff ffff 			; <UNDEFINED> instruction: 0xffffffff
    b8e8:	ffff ffff 			; <UNDEFINED> instruction: 0xffffffff
    b8ec:	ffff ffff 			; <UNDEFINED> instruction: 0xffffffff
    b8f0:	ffff ffff 			; <UNDEFINED> instruction: 0xffffffff
    b8f4:	ffff ffff 			; <UNDEFINED> instruction: 0xffffffff
    b8f8:	ffff ffff 			; <UNDEFINED> instruction: 0xffffffff
    b8fc:	ffff ffff 			; <UNDEFINED> instruction: 0xffffffff
    b900:	ffff ffff 			; <UNDEFINED> instruction: 0xffffffff
    b904:	ffff ffff 			; <UNDEFINED> instruction: 0xffffffff
    b908:	ffff ffff 			; <UNDEFINED> instruction: 0xffffffff
    b90c:	ffff ffff 			; <UNDEFINED> instruction: 0xffffffff
    b910:	ffff ffff 			; <UNDEFINED> instruction: 0xffffffff
    b914:	ffff ffff 			; <UNDEFINED> instruction: 0xffffffff
    b918:	ffff ffff 			; <UNDEFINED> instruction: 0xffffffff
    b91c:	ffff ffff 			; <UNDEFINED> instruction: 0xffffffff
    b920:	ffff ffff 			; <UNDEFINED> instruction: 0xffffffff
    b924:	ffff ffff 			; <UNDEFINED> instruction: 0xffffffff
    b928:	ffff ffff 			; <UNDEFINED> instruction: 0xffffffff
    b92c:	ffff ffff 			; <UNDEFINED> instruction: 0xffffffff
    b930:	ffff ffff 			; <UNDEFINED> instruction: 0xffffffff
    b934:	ffff ffff 			; <UNDEFINED> instruction: 0xffffffff
    b938:	ffff ffff 			; <UNDEFINED> instruction: 0xffffffff
    b93c:	ffff ffff 			; <UNDEFINED> instruction: 0xffffffff
    b940:	ffff ffff 			; <UNDEFINED> instruction: 0xffffffff
    b944:	ffff ffff 			; <UNDEFINED> instruction: 0xffffffff
    b948:	ffff ffff 			; <UNDEFINED> instruction: 0xffffffff
    b94c:	ffff ffff 			; <UNDEFINED> instruction: 0xffffffff
    b950:	ffff ffff 			; <UNDEFINED> instruction: 0xffffffff
    b954:	ffff ffff 			; <UNDEFINED> instruction: 0xffffffff
    b958:	ffff ffff 			; <UNDEFINED> instruction: 0xffffffff
    b95c:	ffff ffff 			; <UNDEFINED> instruction: 0xffffffff
    b960:	ffff ffff 			; <UNDEFINED> instruction: 0xffffffff
    b964:	ffff ffff 			; <UNDEFINED> instruction: 0xffffffff
    b968:	ffff ffff 			; <UNDEFINED> instruction: 0xffffffff
    b96c:	ffff ffff 			; <UNDEFINED> instruction: 0xffffffff
    b970:	ffff ffff 			; <UNDEFINED> instruction: 0xffffffff
    b974:	ffff ffff 			; <UNDEFINED> instruction: 0xffffffff
    b978:	ffff ffff 			; <UNDEFINED> instruction: 0xffffffff
    b97c:	ffff ffff 			; <UNDEFINED> instruction: 0xffffffff
    b980:	ffff ffff 			; <UNDEFINED> instruction: 0xffffffff
    b984:	ffff ffff 			; <UNDEFINED> instruction: 0xffffffff
    b988:	ffff ffff 			; <UNDEFINED> instruction: 0xffffffff
    b98c:	ffff ffff 			; <UNDEFINED> instruction: 0xffffffff
    b990:	ffff ffff 			; <UNDEFINED> instruction: 0xffffffff
    b994:	ffff ffff 			; <UNDEFINED> instruction: 0xffffffff
    b998:	ffff ffff 			; <UNDEFINED> instruction: 0xffffffff
    b99c:	ffff ffff 			; <UNDEFINED> instruction: 0xffffffff
    b9a0:	ffff ffff 			; <UNDEFINED> instruction: 0xffffffff
    b9a4:	ffff ffff 			; <UNDEFINED> instruction: 0xffffffff
    b9a8:	ffff ffff 			; <UNDEFINED> instruction: 0xffffffff
    b9ac:	ffff ffff 			; <UNDEFINED> instruction: 0xffffffff
    b9b0:	ffff ffff 			; <UNDEFINED> instruction: 0xffffffff
    b9b4:	ffff ffff 			; <UNDEFINED> instruction: 0xffffffff
    b9b8:	ffff ffff 			; <UNDEFINED> instruction: 0xffffffff
    b9bc:	ffff ffff 			; <UNDEFINED> instruction: 0xffffffff
    b9c0:	ffff ffff 			; <UNDEFINED> instruction: 0xffffffff
    b9c4:	ffff ffff 			; <UNDEFINED> instruction: 0xffffffff
    b9c8:	ffff ffff 			; <UNDEFINED> instruction: 0xffffffff
    b9cc:	ffff ffff 			; <UNDEFINED> instruction: 0xffffffff
    b9d0:	ffff ffff 			; <UNDEFINED> instruction: 0xffffffff
    b9d4:	ffff ffff 			; <UNDEFINED> instruction: 0xffffffff
    b9d8:	ffff ffff 			; <UNDEFINED> instruction: 0xffffffff
    b9dc:	ffff ffff 			; <UNDEFINED> instruction: 0xffffffff
    b9e0:	ffff ffff 			; <UNDEFINED> instruction: 0xffffffff
    b9e4:	ffff ffff 			; <UNDEFINED> instruction: 0xffffffff
    b9e8:	ffff ffff 			; <UNDEFINED> instruction: 0xffffffff
    b9ec:	ffff ffff 			; <UNDEFINED> instruction: 0xffffffff
    b9f0:	ffff ffff 			; <UNDEFINED> instruction: 0xffffffff
    b9f4:	ffff ffff 			; <UNDEFINED> instruction: 0xffffffff
    b9f8:	ffff ffff 			; <UNDEFINED> instruction: 0xffffffff
    b9fc:	ffff ffff 			; <UNDEFINED> instruction: 0xffffffff
    ba00:	ffff ffff 			; <UNDEFINED> instruction: 0xffffffff
    ba04:	ffff ffff 			; <UNDEFINED> instruction: 0xffffffff
    ba08:	ffff ffff 			; <UNDEFINED> instruction: 0xffffffff
    ba0c:	ffff ffff 			; <UNDEFINED> instruction: 0xffffffff
    ba10:	ffff ffff 			; <UNDEFINED> instruction: 0xffffffff
    ba14:	ffff ffff 			; <UNDEFINED> instruction: 0xffffffff
    ba18:	ffff ffff 			; <UNDEFINED> instruction: 0xffffffff
    ba1c:	ffff ffff 			; <UNDEFINED> instruction: 0xffffffff
    ba20:	ffff ffff 			; <UNDEFINED> instruction: 0xffffffff
    ba24:	ffff ffff 			; <UNDEFINED> instruction: 0xffffffff
    ba28:	ffff ffff 			; <UNDEFINED> instruction: 0xffffffff
    ba2c:	ffff ffff 			; <UNDEFINED> instruction: 0xffffffff
    ba30:	ffff ffff 			; <UNDEFINED> instruction: 0xffffffff
    ba34:	ffff ffff 			; <UNDEFINED> instruction: 0xffffffff
    ba38:	ffff ffff 			; <UNDEFINED> instruction: 0xffffffff
    ba3c:	ffff ffff 			; <UNDEFINED> instruction: 0xffffffff
    ba40:	ffff ffff 			; <UNDEFINED> instruction: 0xffffffff
    ba44:	ffff ffff 			; <UNDEFINED> instruction: 0xffffffff
    ba48:	ffff ffff 			; <UNDEFINED> instruction: 0xffffffff
    ba4c:	ffff ffff 			; <UNDEFINED> instruction: 0xffffffff
    ba50:	ffff ffff 			; <UNDEFINED> instruction: 0xffffffff
    ba54:	ffff ffff 			; <UNDEFINED> instruction: 0xffffffff
    ba58:	ffff ffff 			; <UNDEFINED> instruction: 0xffffffff
    ba5c:	ffff ffff 			; <UNDEFINED> instruction: 0xffffffff
    ba60:	ffff ffff 			; <UNDEFINED> instruction: 0xffffffff
    ba64:	ffff ffff 			; <UNDEFINED> instruction: 0xffffffff
    ba68:	ffff ffff 			; <UNDEFINED> instruction: 0xffffffff
    ba6c:	ffff ffff 			; <UNDEFINED> instruction: 0xffffffff
    ba70:	ffff ffff 			; <UNDEFINED> instruction: 0xffffffff
    ba74:	ffff ffff 			; <UNDEFINED> instruction: 0xffffffff
    ba78:	ffff ffff 			; <UNDEFINED> instruction: 0xffffffff
    ba7c:	ffff ffff 			; <UNDEFINED> instruction: 0xffffffff
    ba80:	ffff ffff 			; <UNDEFINED> instruction: 0xffffffff
    ba84:	ffff ffff 			; <UNDEFINED> instruction: 0xffffffff
    ba88:	ffff ffff 			; <UNDEFINED> instruction: 0xffffffff
    ba8c:	ffff ffff 			; <UNDEFINED> instruction: 0xffffffff
    ba90:	ffff ffff 			; <UNDEFINED> instruction: 0xffffffff
    ba94:	ffff ffff 			; <UNDEFINED> instruction: 0xffffffff
    ba98:	ffff ffff 			; <UNDEFINED> instruction: 0xffffffff
    ba9c:	ffff ffff 			; <UNDEFINED> instruction: 0xffffffff
    baa0:	ffff ffff 			; <UNDEFINED> instruction: 0xffffffff
    baa4:	ffff ffff 			; <UNDEFINED> instruction: 0xffffffff
    baa8:	ffff ffff 			; <UNDEFINED> instruction: 0xffffffff
    baac:	ffff ffff 			; <UNDEFINED> instruction: 0xffffffff
    bab0:	ffff ffff 			; <UNDEFINED> instruction: 0xffffffff
    bab4:	ffff ffff 			; <UNDEFINED> instruction: 0xffffffff
    bab8:	ffff ffff 			; <UNDEFINED> instruction: 0xffffffff
    babc:	ffff ffff 			; <UNDEFINED> instruction: 0xffffffff
    bac0:	ffff ffff 			; <UNDEFINED> instruction: 0xffffffff
    bac4:	ffff ffff 			; <UNDEFINED> instruction: 0xffffffff
    bac8:	ffff ffff 			; <UNDEFINED> instruction: 0xffffffff
    bacc:	ffff ffff 			; <UNDEFINED> instruction: 0xffffffff
    bad0:	ffff ffff 			; <UNDEFINED> instruction: 0xffffffff
    bad4:	ffff ffff 			; <UNDEFINED> instruction: 0xffffffff
    bad8:	ffff ffff 			; <UNDEFINED> instruction: 0xffffffff
    badc:	ffff ffff 			; <UNDEFINED> instruction: 0xffffffff
    bae0:	ffff ffff 			; <UNDEFINED> instruction: 0xffffffff
    bae4:	ffff ffff 			; <UNDEFINED> instruction: 0xffffffff
    bae8:	ffff ffff 			; <UNDEFINED> instruction: 0xffffffff
    baec:	ffff ffff 			; <UNDEFINED> instruction: 0xffffffff
    baf0:	ffff ffff 			; <UNDEFINED> instruction: 0xffffffff
    baf4:	ffff ffff 			; <UNDEFINED> instruction: 0xffffffff
    baf8:	ffff ffff 			; <UNDEFINED> instruction: 0xffffffff
    bafc:	ffff ffff 			; <UNDEFINED> instruction: 0xffffffff
    bb00:	ffff ffff 			; <UNDEFINED> instruction: 0xffffffff
    bb04:	ffff ffff 			; <UNDEFINED> instruction: 0xffffffff
    bb08:	ffff ffff 			; <UNDEFINED> instruction: 0xffffffff
    bb0c:	ffff ffff 			; <UNDEFINED> instruction: 0xffffffff
    bb10:	ffff ffff 			; <UNDEFINED> instruction: 0xffffffff
    bb14:	ffff ffff 			; <UNDEFINED> instruction: 0xffffffff
    bb18:	ffff ffff 			; <UNDEFINED> instruction: 0xffffffff
    bb1c:	ffff ffff 			; <UNDEFINED> instruction: 0xffffffff
    bb20:	ffff ffff 			; <UNDEFINED> instruction: 0xffffffff
    bb24:	ffff ffff 			; <UNDEFINED> instruction: 0xffffffff
    bb28:	ffff ffff 			; <UNDEFINED> instruction: 0xffffffff
    bb2c:	ffff ffff 			; <UNDEFINED> instruction: 0xffffffff
    bb30:	ffff ffff 			; <UNDEFINED> instruction: 0xffffffff
    bb34:	ffff ffff 			; <UNDEFINED> instruction: 0xffffffff
    bb38:	ffff ffff 			; <UNDEFINED> instruction: 0xffffffff
    bb3c:	ffff ffff 			; <UNDEFINED> instruction: 0xffffffff
    bb40:	ffff ffff 			; <UNDEFINED> instruction: 0xffffffff
    bb44:	ffff ffff 			; <UNDEFINED> instruction: 0xffffffff
    bb48:	ffff ffff 			; <UNDEFINED> instruction: 0xffffffff
    bb4c:	ffff ffff 			; <UNDEFINED> instruction: 0xffffffff
    bb50:	ffff ffff 			; <UNDEFINED> instruction: 0xffffffff
    bb54:	ffff ffff 			; <UNDEFINED> instruction: 0xffffffff
    bb58:	ffff ffff 			; <UNDEFINED> instruction: 0xffffffff
    bb5c:	ffff ffff 			; <UNDEFINED> instruction: 0xffffffff
    bb60:	ffff ffff 			; <UNDEFINED> instruction: 0xffffffff
    bb64:	ffff ffff 			; <UNDEFINED> instruction: 0xffffffff
    bb68:	ffff ffff 			; <UNDEFINED> instruction: 0xffffffff
    bb6c:	ffff ffff 			; <UNDEFINED> instruction: 0xffffffff
    bb70:	ffff ffff 			; <UNDEFINED> instruction: 0xffffffff
    bb74:	ffff ffff 			; <UNDEFINED> instruction: 0xffffffff
    bb78:	ffff ffff 			; <UNDEFINED> instruction: 0xffffffff
    bb7c:	ffff ffff 			; <UNDEFINED> instruction: 0xffffffff
    bb80:	ffff ffff 			; <UNDEFINED> instruction: 0xffffffff
    bb84:	ffff ffff 			; <UNDEFINED> instruction: 0xffffffff
    bb88:	ffff ffff 			; <UNDEFINED> instruction: 0xffffffff
    bb8c:	ffff ffff 			; <UNDEFINED> instruction: 0xffffffff
    bb90:	ffff ffff 			; <UNDEFINED> instruction: 0xffffffff
    bb94:	ffff ffff 			; <UNDEFINED> instruction: 0xffffffff
    bb98:	ffff ffff 			; <UNDEFINED> instruction: 0xffffffff
    bb9c:	ffff ffff 			; <UNDEFINED> instruction: 0xffffffff
    bba0:	ffff ffff 			; <UNDEFINED> instruction: 0xffffffff
    bba4:	ffff ffff 			; <UNDEFINED> instruction: 0xffffffff
    bba8:	ffff ffff 			; <UNDEFINED> instruction: 0xffffffff
    bbac:	ffff ffff 			; <UNDEFINED> instruction: 0xffffffff
    bbb0:	ffff ffff 			; <UNDEFINED> instruction: 0xffffffff
    bbb4:	ffff ffff 			; <UNDEFINED> instruction: 0xffffffff
    bbb8:	ffff ffff 			; <UNDEFINED> instruction: 0xffffffff
    bbbc:	ffff ffff 			; <UNDEFINED> instruction: 0xffffffff
    bbc0:	ffff ffff 			; <UNDEFINED> instruction: 0xffffffff
    bbc4:	ffff ffff 			; <UNDEFINED> instruction: 0xffffffff
    bbc8:	ffff ffff 			; <UNDEFINED> instruction: 0xffffffff
    bbcc:	ffff ffff 			; <UNDEFINED> instruction: 0xffffffff
    bbd0:	ffff ffff 			; <UNDEFINED> instruction: 0xffffffff
    bbd4:	ffff ffff 			; <UNDEFINED> instruction: 0xffffffff
    bbd8:	ffff ffff 			; <UNDEFINED> instruction: 0xffffffff
    bbdc:	ffff ffff 			; <UNDEFINED> instruction: 0xffffffff
    bbe0:	ffff ffff 			; <UNDEFINED> instruction: 0xffffffff
    bbe4:	ffff ffff 			; <UNDEFINED> instruction: 0xffffffff
    bbe8:	ffff ffff 			; <UNDEFINED> instruction: 0xffffffff
    bbec:	ffff ffff 			; <UNDEFINED> instruction: 0xffffffff
    bbf0:	ffff ffff 			; <UNDEFINED> instruction: 0xffffffff
    bbf4:	ffff ffff 			; <UNDEFINED> instruction: 0xffffffff
    bbf8:	ffff ffff 			; <UNDEFINED> instruction: 0xffffffff
    bbfc:	ffff ffff 			; <UNDEFINED> instruction: 0xffffffff
    bc00:	ffff ffff 			; <UNDEFINED> instruction: 0xffffffff
    bc04:	ffff ffff 			; <UNDEFINED> instruction: 0xffffffff
    bc08:	ffff ffff 			; <UNDEFINED> instruction: 0xffffffff
    bc0c:	ffff ffff 			; <UNDEFINED> instruction: 0xffffffff
    bc10:	ffff ffff 			; <UNDEFINED> instruction: 0xffffffff
    bc14:	ffff ffff 			; <UNDEFINED> instruction: 0xffffffff
    bc18:	ffff ffff 			; <UNDEFINED> instruction: 0xffffffff
    bc1c:	ffff ffff 			; <UNDEFINED> instruction: 0xffffffff
    bc20:	ffff ffff 			; <UNDEFINED> instruction: 0xffffffff
    bc24:	ffff ffff 			; <UNDEFINED> instruction: 0xffffffff
    bc28:	ffff ffff 			; <UNDEFINED> instruction: 0xffffffff
    bc2c:	ffff ffff 			; <UNDEFINED> instruction: 0xffffffff
    bc30:	ffff ffff 			; <UNDEFINED> instruction: 0xffffffff
    bc34:	ffff ffff 			; <UNDEFINED> instruction: 0xffffffff
    bc38:	ffff ffff 			; <UNDEFINED> instruction: 0xffffffff
    bc3c:	ffff ffff 			; <UNDEFINED> instruction: 0xffffffff
    bc40:	ffff ffff 			; <UNDEFINED> instruction: 0xffffffff
    bc44:	ffff ffff 			; <UNDEFINED> instruction: 0xffffffff
    bc48:	ffff ffff 			; <UNDEFINED> instruction: 0xffffffff
    bc4c:	ffff ffff 			; <UNDEFINED> instruction: 0xffffffff
    bc50:	ffff ffff 			; <UNDEFINED> instruction: 0xffffffff
    bc54:	ffff ffff 			; <UNDEFINED> instruction: 0xffffffff
    bc58:	ffff ffff 			; <UNDEFINED> instruction: 0xffffffff
    bc5c:	ffff ffff 			; <UNDEFINED> instruction: 0xffffffff
    bc60:	ffff ffff 			; <UNDEFINED> instruction: 0xffffffff
    bc64:	ffff ffff 			; <UNDEFINED> instruction: 0xffffffff
    bc68:	ffff ffff 			; <UNDEFINED> instruction: 0xffffffff
    bc6c:	ffff ffff 			; <UNDEFINED> instruction: 0xffffffff
    bc70:	ffff ffff 			; <UNDEFINED> instruction: 0xffffffff
    bc74:	ffff ffff 			; <UNDEFINED> instruction: 0xffffffff
    bc78:	ffff ffff 			; <UNDEFINED> instruction: 0xffffffff
    bc7c:	ffff ffff 			; <UNDEFINED> instruction: 0xffffffff
    bc80:	ffff ffff 			; <UNDEFINED> instruction: 0xffffffff
    bc84:	ffff ffff 			; <UNDEFINED> instruction: 0xffffffff
    bc88:	ffff ffff 			; <UNDEFINED> instruction: 0xffffffff
    bc8c:	ffff ffff 			; <UNDEFINED> instruction: 0xffffffff
    bc90:	ffff ffff 			; <UNDEFINED> instruction: 0xffffffff
    bc94:	ffff ffff 			; <UNDEFINED> instruction: 0xffffffff
    bc98:	ffff ffff 			; <UNDEFINED> instruction: 0xffffffff
    bc9c:	ffff ffff 			; <UNDEFINED> instruction: 0xffffffff
    bca0:	ffff ffff 			; <UNDEFINED> instruction: 0xffffffff
    bca4:	ffff ffff 			; <UNDEFINED> instruction: 0xffffffff
    bca8:	ffff ffff 			; <UNDEFINED> instruction: 0xffffffff
    bcac:	ffff ffff 			; <UNDEFINED> instruction: 0xffffffff
    bcb0:	ffff ffff 			; <UNDEFINED> instruction: 0xffffffff
    bcb4:	ffff ffff 			; <UNDEFINED> instruction: 0xffffffff
    bcb8:	ffff ffff 			; <UNDEFINED> instruction: 0xffffffff
    bcbc:	ffff ffff 			; <UNDEFINED> instruction: 0xffffffff
    bcc0:	ffff ffff 			; <UNDEFINED> instruction: 0xffffffff
    bcc4:	ffff ffff 			; <UNDEFINED> instruction: 0xffffffff
    bcc8:	ffff ffff 			; <UNDEFINED> instruction: 0xffffffff
    bccc:	ffff ffff 			; <UNDEFINED> instruction: 0xffffffff
    bcd0:	ffff ffff 			; <UNDEFINED> instruction: 0xffffffff
    bcd4:	ffff ffff 			; <UNDEFINED> instruction: 0xffffffff
    bcd8:	ffff ffff 			; <UNDEFINED> instruction: 0xffffffff
    bcdc:	ffff ffff 			; <UNDEFINED> instruction: 0xffffffff
    bce0:	ffff ffff 			; <UNDEFINED> instruction: 0xffffffff
    bce4:	ffff ffff 			; <UNDEFINED> instruction: 0xffffffff
    bce8:	ffff ffff 			; <UNDEFINED> instruction: 0xffffffff
    bcec:	ffff ffff 			; <UNDEFINED> instruction: 0xffffffff
    bcf0:	ffff ffff 			; <UNDEFINED> instruction: 0xffffffff
    bcf4:	ffff ffff 			; <UNDEFINED> instruction: 0xffffffff
    bcf8:	ffff ffff 			; <UNDEFINED> instruction: 0xffffffff
    bcfc:	ffff ffff 			; <UNDEFINED> instruction: 0xffffffff
    bd00:	ffff ffff 			; <UNDEFINED> instruction: 0xffffffff
    bd04:	ffff ffff 			; <UNDEFINED> instruction: 0xffffffff
    bd08:	ffff ffff 			; <UNDEFINED> instruction: 0xffffffff
    bd0c:	ffff ffff 			; <UNDEFINED> instruction: 0xffffffff
    bd10:	ffff ffff 			; <UNDEFINED> instruction: 0xffffffff
    bd14:	ffff ffff 			; <UNDEFINED> instruction: 0xffffffff
    bd18:	ffff ffff 			; <UNDEFINED> instruction: 0xffffffff
    bd1c:	ffff ffff 			; <UNDEFINED> instruction: 0xffffffff
    bd20:	ffff ffff 			; <UNDEFINED> instruction: 0xffffffff
    bd24:	ffff ffff 			; <UNDEFINED> instruction: 0xffffffff
    bd28:	ffff ffff 			; <UNDEFINED> instruction: 0xffffffff
    bd2c:	ffff ffff 			; <UNDEFINED> instruction: 0xffffffff
    bd30:	ffff ffff 			; <UNDEFINED> instruction: 0xffffffff
    bd34:	ffff ffff 			; <UNDEFINED> instruction: 0xffffffff
    bd38:	ffff ffff 			; <UNDEFINED> instruction: 0xffffffff
    bd3c:	ffff ffff 			; <UNDEFINED> instruction: 0xffffffff
    bd40:	ffff ffff 			; <UNDEFINED> instruction: 0xffffffff
    bd44:	ffff ffff 			; <UNDEFINED> instruction: 0xffffffff
    bd48:	ffff ffff 			; <UNDEFINED> instruction: 0xffffffff
    bd4c:	ffff ffff 			; <UNDEFINED> instruction: 0xffffffff
    bd50:	ffff ffff 			; <UNDEFINED> instruction: 0xffffffff
    bd54:	ffff ffff 			; <UNDEFINED> instruction: 0xffffffff
    bd58:	ffff ffff 			; <UNDEFINED> instruction: 0xffffffff
    bd5c:	ffff ffff 			; <UNDEFINED> instruction: 0xffffffff
    bd60:	ffff ffff 			; <UNDEFINED> instruction: 0xffffffff
    bd64:	ffff ffff 			; <UNDEFINED> instruction: 0xffffffff
    bd68:	ffff ffff 			; <UNDEFINED> instruction: 0xffffffff
    bd6c:	ffff ffff 			; <UNDEFINED> instruction: 0xffffffff
    bd70:	ffff ffff 			; <UNDEFINED> instruction: 0xffffffff
    bd74:	ffff ffff 			; <UNDEFINED> instruction: 0xffffffff
    bd78:	ffff ffff 			; <UNDEFINED> instruction: 0xffffffff
    bd7c:	ffff ffff 			; <UNDEFINED> instruction: 0xffffffff
    bd80:	ffff ffff 			; <UNDEFINED> instruction: 0xffffffff
    bd84:	ffff ffff 			; <UNDEFINED> instruction: 0xffffffff
    bd88:	ffff ffff 			; <UNDEFINED> instruction: 0xffffffff
    bd8c:	ffff ffff 			; <UNDEFINED> instruction: 0xffffffff
    bd90:	ffff ffff 			; <UNDEFINED> instruction: 0xffffffff
    bd94:	ffff ffff 			; <UNDEFINED> instruction: 0xffffffff
    bd98:	ffff ffff 			; <UNDEFINED> instruction: 0xffffffff
    bd9c:	ffff ffff 			; <UNDEFINED> instruction: 0xffffffff
    bda0:	ffff ffff 			; <UNDEFINED> instruction: 0xffffffff
    bda4:	ffff ffff 			; <UNDEFINED> instruction: 0xffffffff
    bda8:	ffff ffff 			; <UNDEFINED> instruction: 0xffffffff
    bdac:	ffff ffff 			; <UNDEFINED> instruction: 0xffffffff
    bdb0:	ffff ffff 			; <UNDEFINED> instruction: 0xffffffff
    bdb4:	ffff ffff 			; <UNDEFINED> instruction: 0xffffffff
    bdb8:	ffff ffff 			; <UNDEFINED> instruction: 0xffffffff
    bdbc:	ffff ffff 			; <UNDEFINED> instruction: 0xffffffff
    bdc0:	ffff ffff 			; <UNDEFINED> instruction: 0xffffffff
    bdc4:	ffff ffff 			; <UNDEFINED> instruction: 0xffffffff
    bdc8:	ffff ffff 			; <UNDEFINED> instruction: 0xffffffff
    bdcc:	ffff ffff 			; <UNDEFINED> instruction: 0xffffffff
    bdd0:	ffff ffff 			; <UNDEFINED> instruction: 0xffffffff
    bdd4:	ffff ffff 			; <UNDEFINED> instruction: 0xffffffff
    bdd8:	ffff ffff 			; <UNDEFINED> instruction: 0xffffffff
    bddc:	ffff ffff 			; <UNDEFINED> instruction: 0xffffffff
    bde0:	ffff ffff 			; <UNDEFINED> instruction: 0xffffffff
    bde4:	ffff ffff 			; <UNDEFINED> instruction: 0xffffffff
    bde8:	ffff ffff 			; <UNDEFINED> instruction: 0xffffffff
    bdec:	ffff ffff 			; <UNDEFINED> instruction: 0xffffffff
    bdf0:	ffff ffff 			; <UNDEFINED> instruction: 0xffffffff
    bdf4:	ffff ffff 			; <UNDEFINED> instruction: 0xffffffff
    bdf8:	ffff ffff 			; <UNDEFINED> instruction: 0xffffffff
    bdfc:	ffff ffff 			; <UNDEFINED> instruction: 0xffffffff
    be00:	ffff ffff 			; <UNDEFINED> instruction: 0xffffffff
    be04:	ffff ffff 			; <UNDEFINED> instruction: 0xffffffff
    be08:	ffff ffff 			; <UNDEFINED> instruction: 0xffffffff
    be0c:	ffff ffff 			; <UNDEFINED> instruction: 0xffffffff
    be10:	ffff ffff 			; <UNDEFINED> instruction: 0xffffffff
    be14:	ffff ffff 			; <UNDEFINED> instruction: 0xffffffff
    be18:	ffff ffff 			; <UNDEFINED> instruction: 0xffffffff
    be1c:	ffff ffff 			; <UNDEFINED> instruction: 0xffffffff
    be20:	ffff ffff 			; <UNDEFINED> instruction: 0xffffffff
    be24:	ffff ffff 			; <UNDEFINED> instruction: 0xffffffff
    be28:	ffff ffff 			; <UNDEFINED> instruction: 0xffffffff
    be2c:	ffff ffff 			; <UNDEFINED> instruction: 0xffffffff
    be30:	ffff ffff 			; <UNDEFINED> instruction: 0xffffffff
    be34:	ffff ffff 			; <UNDEFINED> instruction: 0xffffffff
    be38:	ffff ffff 			; <UNDEFINED> instruction: 0xffffffff
    be3c:	ffff ffff 			; <UNDEFINED> instruction: 0xffffffff
    be40:	ffff ffff 			; <UNDEFINED> instruction: 0xffffffff
    be44:	ffff ffff 			; <UNDEFINED> instruction: 0xffffffff
    be48:	ffff ffff 			; <UNDEFINED> instruction: 0xffffffff
    be4c:	ffff ffff 			; <UNDEFINED> instruction: 0xffffffff
    be50:	ffff ffff 			; <UNDEFINED> instruction: 0xffffffff
    be54:	ffff ffff 			; <UNDEFINED> instruction: 0xffffffff
    be58:	ffff ffff 			; <UNDEFINED> instruction: 0xffffffff
    be5c:	ffff ffff 			; <UNDEFINED> instruction: 0xffffffff
    be60:	ffff ffff 			; <UNDEFINED> instruction: 0xffffffff
    be64:	ffff ffff 			; <UNDEFINED> instruction: 0xffffffff
    be68:	ffff ffff 			; <UNDEFINED> instruction: 0xffffffff
    be6c:	ffff ffff 			; <UNDEFINED> instruction: 0xffffffff
    be70:	ffff ffff 			; <UNDEFINED> instruction: 0xffffffff
    be74:	ffff ffff 			; <UNDEFINED> instruction: 0xffffffff
    be78:	ffff ffff 			; <UNDEFINED> instruction: 0xffffffff
    be7c:	ffff ffff 			; <UNDEFINED> instruction: 0xffffffff
    be80:	ffff ffff 			; <UNDEFINED> instruction: 0xffffffff
    be84:	ffff ffff 			; <UNDEFINED> instruction: 0xffffffff
    be88:	ffff ffff 			; <UNDEFINED> instruction: 0xffffffff
    be8c:	ffff ffff 			; <UNDEFINED> instruction: 0xffffffff
    be90:	ffff ffff 			; <UNDEFINED> instruction: 0xffffffff
    be94:	ffff ffff 			; <UNDEFINED> instruction: 0xffffffff
    be98:	ffff ffff 			; <UNDEFINED> instruction: 0xffffffff
    be9c:	ffff ffff 			; <UNDEFINED> instruction: 0xffffffff
    bea0:	ffff ffff 			; <UNDEFINED> instruction: 0xffffffff
    bea4:	ffff ffff 			; <UNDEFINED> instruction: 0xffffffff
    bea8:	ffff ffff 			; <UNDEFINED> instruction: 0xffffffff
    beac:	ffff ffff 			; <UNDEFINED> instruction: 0xffffffff
    beb0:	ffff ffff 			; <UNDEFINED> instruction: 0xffffffff
    beb4:	ffff ffff 			; <UNDEFINED> instruction: 0xffffffff
    beb8:	ffff ffff 			; <UNDEFINED> instruction: 0xffffffff
    bebc:	ffff ffff 			; <UNDEFINED> instruction: 0xffffffff
    bec0:	ffff ffff 			; <UNDEFINED> instruction: 0xffffffff
    bec4:	ffff ffff 			; <UNDEFINED> instruction: 0xffffffff
    bec8:	ffff ffff 			; <UNDEFINED> instruction: 0xffffffff
    becc:	ffff ffff 			; <UNDEFINED> instruction: 0xffffffff
    bed0:	ffff ffff 			; <UNDEFINED> instruction: 0xffffffff
    bed4:	ffff ffff 			; <UNDEFINED> instruction: 0xffffffff
    bed8:	ffff ffff 			; <UNDEFINED> instruction: 0xffffffff
    bedc:	ffff ffff 			; <UNDEFINED> instruction: 0xffffffff
    bee0:	ffff ffff 			; <UNDEFINED> instruction: 0xffffffff
    bee4:	ffff ffff 			; <UNDEFINED> instruction: 0xffffffff
    bee8:	ffff ffff 			; <UNDEFINED> instruction: 0xffffffff
    beec:	ffff ffff 			; <UNDEFINED> instruction: 0xffffffff
    bef0:	ffff ffff 			; <UNDEFINED> instruction: 0xffffffff
    bef4:	ffff ffff 			; <UNDEFINED> instruction: 0xffffffff
    bef8:	ffff ffff 			; <UNDEFINED> instruction: 0xffffffff
    befc:	ffff ffff 			; <UNDEFINED> instruction: 0xffffffff
    bf00:	ffff ffff 			; <UNDEFINED> instruction: 0xffffffff
    bf04:	ffff ffff 			; <UNDEFINED> instruction: 0xffffffff
    bf08:	ffff ffff 			; <UNDEFINED> instruction: 0xffffffff
    bf0c:	ffff ffff 			; <UNDEFINED> instruction: 0xffffffff
    bf10:	ffff ffff 			; <UNDEFINED> instruction: 0xffffffff
    bf14:	ffff ffff 			; <UNDEFINED> instruction: 0xffffffff
    bf18:	ffff ffff 			; <UNDEFINED> instruction: 0xffffffff
    bf1c:	ffff ffff 			; <UNDEFINED> instruction: 0xffffffff
    bf20:	ffff ffff 			; <UNDEFINED> instruction: 0xffffffff
    bf24:	ffff ffff 			; <UNDEFINED> instruction: 0xffffffff
    bf28:	ffff ffff 			; <UNDEFINED> instruction: 0xffffffff
    bf2c:	ffff ffff 			; <UNDEFINED> instruction: 0xffffffff
    bf30:	ffff ffff 			; <UNDEFINED> instruction: 0xffffffff
    bf34:	ffff ffff 			; <UNDEFINED> instruction: 0xffffffff
    bf38:	ffff ffff 			; <UNDEFINED> instruction: 0xffffffff
    bf3c:	ffff ffff 			; <UNDEFINED> instruction: 0xffffffff
    bf40:	ffff ffff 			; <UNDEFINED> instruction: 0xffffffff
    bf44:	ffff ffff 			; <UNDEFINED> instruction: 0xffffffff
    bf48:	ffff ffff 			; <UNDEFINED> instruction: 0xffffffff
    bf4c:	ffff ffff 			; <UNDEFINED> instruction: 0xffffffff
    bf50:	ffff ffff 			; <UNDEFINED> instruction: 0xffffffff
    bf54:	ffff ffff 			; <UNDEFINED> instruction: 0xffffffff
    bf58:	ffff ffff 			; <UNDEFINED> instruction: 0xffffffff
    bf5c:	ffff ffff 			; <UNDEFINED> instruction: 0xffffffff
    bf60:	ffff ffff 			; <UNDEFINED> instruction: 0xffffffff
    bf64:	ffff ffff 			; <UNDEFINED> instruction: 0xffffffff
    bf68:	ffff ffff 			; <UNDEFINED> instruction: 0xffffffff
    bf6c:	ffff ffff 			; <UNDEFINED> instruction: 0xffffffff
    bf70:	ffff ffff 			; <UNDEFINED> instruction: 0xffffffff
    bf74:	ffff ffff 			; <UNDEFINED> instruction: 0xffffffff
    bf78:	ffff ffff 			; <UNDEFINED> instruction: 0xffffffff
    bf7c:	ffff ffff 			; <UNDEFINED> instruction: 0xffffffff
    bf80:	ffff ffff 			; <UNDEFINED> instruction: 0xffffffff
    bf84:	ffff ffff 			; <UNDEFINED> instruction: 0xffffffff
    bf88:	ffff ffff 			; <UNDEFINED> instruction: 0xffffffff
    bf8c:	ffff ffff 			; <UNDEFINED> instruction: 0xffffffff
    bf90:	ffff ffff 			; <UNDEFINED> instruction: 0xffffffff
    bf94:	ffff ffff 			; <UNDEFINED> instruction: 0xffffffff
    bf98:	ffff ffff 			; <UNDEFINED> instruction: 0xffffffff
    bf9c:	ffff ffff 			; <UNDEFINED> instruction: 0xffffffff
    bfa0:	ffff ffff 			; <UNDEFINED> instruction: 0xffffffff
    bfa4:	ffff ffff 			; <UNDEFINED> instruction: 0xffffffff
    bfa8:	ffff ffff 			; <UNDEFINED> instruction: 0xffffffff
    bfac:	ffff ffff 			; <UNDEFINED> instruction: 0xffffffff
    bfb0:	ffff ffff 			; <UNDEFINED> instruction: 0xffffffff
    bfb4:	ffff ffff 			; <UNDEFINED> instruction: 0xffffffff
    bfb8:	ffff ffff 			; <UNDEFINED> instruction: 0xffffffff
    bfbc:	ffff ffff 			; <UNDEFINED> instruction: 0xffffffff
    bfc0:	ffff ffff 			; <UNDEFINED> instruction: 0xffffffff
    bfc4:	ffff ffff 			; <UNDEFINED> instruction: 0xffffffff
    bfc8:	ffff ffff 			; <UNDEFINED> instruction: 0xffffffff
    bfcc:	ffff ffff 			; <UNDEFINED> instruction: 0xffffffff
    bfd0:	ffff ffff 			; <UNDEFINED> instruction: 0xffffffff
    bfd4:	ffff ffff 			; <UNDEFINED> instruction: 0xffffffff
    bfd8:	ffff ffff 			; <UNDEFINED> instruction: 0xffffffff
    bfdc:	ffff ffff 			; <UNDEFINED> instruction: 0xffffffff
    bfe0:	ffff ffff 			; <UNDEFINED> instruction: 0xffffffff
    bfe4:	ffff ffff 			; <UNDEFINED> instruction: 0xffffffff
    bfe8:	ffff ffff 			; <UNDEFINED> instruction: 0xffffffff
    bfec:	ffff ffff 			; <UNDEFINED> instruction: 0xffffffff
    bff0:	ffff ffff 			; <UNDEFINED> instruction: 0xffffffff
    bff4:	ffff ffff 			; <UNDEFINED> instruction: 0xffffffff
    bff8:	ffff ffff 			; <UNDEFINED> instruction: 0xffffffff
    bffc:	ffff ffff 			; <UNDEFINED> instruction: 0xffffffff
    c000:	ffff ffff 			; <UNDEFINED> instruction: 0xffffffff
    c004:	ffff ffff 			; <UNDEFINED> instruction: 0xffffffff
    c008:	ffff ffff 			; <UNDEFINED> instruction: 0xffffffff
    c00c:	ffff ffff 			; <UNDEFINED> instruction: 0xffffffff
    c010:	ffff ffff 			; <UNDEFINED> instruction: 0xffffffff
    c014:	ffff ffff 			; <UNDEFINED> instruction: 0xffffffff
    c018:	ffff ffff 			; <UNDEFINED> instruction: 0xffffffff
    c01c:	ffff ffff 			; <UNDEFINED> instruction: 0xffffffff
    c020:	ffff ffff 			; <UNDEFINED> instruction: 0xffffffff
    c024:	ffff ffff 			; <UNDEFINED> instruction: 0xffffffff
    c028:	ffff ffff 			; <UNDEFINED> instruction: 0xffffffff
    c02c:	ffff ffff 			; <UNDEFINED> instruction: 0xffffffff
    c030:	ffff ffff 			; <UNDEFINED> instruction: 0xffffffff
    c034:	ffff ffff 			; <UNDEFINED> instruction: 0xffffffff
    c038:	ffff ffff 			; <UNDEFINED> instruction: 0xffffffff
    c03c:	ffff ffff 			; <UNDEFINED> instruction: 0xffffffff
    c040:	ffff ffff 			; <UNDEFINED> instruction: 0xffffffff
    c044:	ffff ffff 			; <UNDEFINED> instruction: 0xffffffff
    c048:	ffff ffff 			; <UNDEFINED> instruction: 0xffffffff
    c04c:	ffff ffff 			; <UNDEFINED> instruction: 0xffffffff
    c050:	ffff ffff 			; <UNDEFINED> instruction: 0xffffffff
    c054:	ffff ffff 			; <UNDEFINED> instruction: 0xffffffff
    c058:	ffff ffff 			; <UNDEFINED> instruction: 0xffffffff
    c05c:	ffff ffff 			; <UNDEFINED> instruction: 0xffffffff
    c060:	ffff ffff 			; <UNDEFINED> instruction: 0xffffffff
    c064:	ffff ffff 			; <UNDEFINED> instruction: 0xffffffff
    c068:	ffff ffff 			; <UNDEFINED> instruction: 0xffffffff
    c06c:	ffff ffff 			; <UNDEFINED> instruction: 0xffffffff
    c070:	ffff ffff 			; <UNDEFINED> instruction: 0xffffffff
    c074:	ffff ffff 			; <UNDEFINED> instruction: 0xffffffff
    c078:	ffff ffff 			; <UNDEFINED> instruction: 0xffffffff
    c07c:	ffff ffff 			; <UNDEFINED> instruction: 0xffffffff
    c080:	ffff ffff 			; <UNDEFINED> instruction: 0xffffffff
    c084:	ffff ffff 			; <UNDEFINED> instruction: 0xffffffff
    c088:	ffff ffff 			; <UNDEFINED> instruction: 0xffffffff
    c08c:	ffff ffff 			; <UNDEFINED> instruction: 0xffffffff
    c090:	ffff ffff 			; <UNDEFINED> instruction: 0xffffffff
    c094:	ffff ffff 			; <UNDEFINED> instruction: 0xffffffff
    c098:	ffff ffff 			; <UNDEFINED> instruction: 0xffffffff
    c09c:	ffff ffff 			; <UNDEFINED> instruction: 0xffffffff
    c0a0:	ffff ffff 			; <UNDEFINED> instruction: 0xffffffff
    c0a4:	ffff ffff 			; <UNDEFINED> instruction: 0xffffffff
    c0a8:	ffff ffff 			; <UNDEFINED> instruction: 0xffffffff
    c0ac:	ffff ffff 			; <UNDEFINED> instruction: 0xffffffff
    c0b0:	ffff ffff 			; <UNDEFINED> instruction: 0xffffffff
    c0b4:	ffff ffff 			; <UNDEFINED> instruction: 0xffffffff
    c0b8:	ffff ffff 			; <UNDEFINED> instruction: 0xffffffff
    c0bc:	ffff ffff 			; <UNDEFINED> instruction: 0xffffffff
    c0c0:	ffff ffff 			; <UNDEFINED> instruction: 0xffffffff
    c0c4:	ffff ffff 			; <UNDEFINED> instruction: 0xffffffff
    c0c8:	ffff ffff 			; <UNDEFINED> instruction: 0xffffffff
    c0cc:	ffff ffff 			; <UNDEFINED> instruction: 0xffffffff
    c0d0:	ffff ffff 			; <UNDEFINED> instruction: 0xffffffff
    c0d4:	ffff ffff 			; <UNDEFINED> instruction: 0xffffffff
    c0d8:	ffff ffff 			; <UNDEFINED> instruction: 0xffffffff
    c0dc:	ffff ffff 			; <UNDEFINED> instruction: 0xffffffff
    c0e0:	ffff ffff 			; <UNDEFINED> instruction: 0xffffffff
    c0e4:	ffff ffff 			; <UNDEFINED> instruction: 0xffffffff
    c0e8:	ffff ffff 			; <UNDEFINED> instruction: 0xffffffff
    c0ec:	ffff ffff 			; <UNDEFINED> instruction: 0xffffffff
    c0f0:	ffff ffff 			; <UNDEFINED> instruction: 0xffffffff
    c0f4:	ffff ffff 			; <UNDEFINED> instruction: 0xffffffff
    c0f8:	ffff ffff 			; <UNDEFINED> instruction: 0xffffffff
    c0fc:	ffff ffff 			; <UNDEFINED> instruction: 0xffffffff
    c100:	ffff ffff 			; <UNDEFINED> instruction: 0xffffffff
    c104:	ffff ffff 			; <UNDEFINED> instruction: 0xffffffff
    c108:	ffff ffff 			; <UNDEFINED> instruction: 0xffffffff
    c10c:	ffff ffff 			; <UNDEFINED> instruction: 0xffffffff
    c110:	ffff ffff 			; <UNDEFINED> instruction: 0xffffffff
    c114:	ffff ffff 			; <UNDEFINED> instruction: 0xffffffff
    c118:	ffff ffff 			; <UNDEFINED> instruction: 0xffffffff
    c11c:	ffff ffff 			; <UNDEFINED> instruction: 0xffffffff
    c120:	ffff ffff 			; <UNDEFINED> instruction: 0xffffffff
    c124:	ffff ffff 			; <UNDEFINED> instruction: 0xffffffff
    c128:	ffff ffff 			; <UNDEFINED> instruction: 0xffffffff
    c12c:	ffff ffff 			; <UNDEFINED> instruction: 0xffffffff
    c130:	ffff ffff 			; <UNDEFINED> instruction: 0xffffffff
    c134:	ffff ffff 			; <UNDEFINED> instruction: 0xffffffff
    c138:	ffff ffff 			; <UNDEFINED> instruction: 0xffffffff
    c13c:	ffff ffff 			; <UNDEFINED> instruction: 0xffffffff
    c140:	ffff ffff 			; <UNDEFINED> instruction: 0xffffffff
    c144:	ffff ffff 			; <UNDEFINED> instruction: 0xffffffff
    c148:	ffff ffff 			; <UNDEFINED> instruction: 0xffffffff
    c14c:	ffff ffff 			; <UNDEFINED> instruction: 0xffffffff
    c150:	ffff ffff 			; <UNDEFINED> instruction: 0xffffffff
    c154:	ffff ffff 			; <UNDEFINED> instruction: 0xffffffff
    c158:	ffff ffff 			; <UNDEFINED> instruction: 0xffffffff
    c15c:	ffff ffff 			; <UNDEFINED> instruction: 0xffffffff
    c160:	ffff ffff 			; <UNDEFINED> instruction: 0xffffffff
    c164:	ffff ffff 			; <UNDEFINED> instruction: 0xffffffff
    c168:	ffff ffff 			; <UNDEFINED> instruction: 0xffffffff
    c16c:	ffff ffff 			; <UNDEFINED> instruction: 0xffffffff
    c170:	ffff ffff 			; <UNDEFINED> instruction: 0xffffffff
    c174:	ffff ffff 			; <UNDEFINED> instruction: 0xffffffff
    c178:	ffff ffff 			; <UNDEFINED> instruction: 0xffffffff
    c17c:	ffff ffff 			; <UNDEFINED> instruction: 0xffffffff
    c180:	ffff ffff 			; <UNDEFINED> instruction: 0xffffffff
    c184:	ffff ffff 			; <UNDEFINED> instruction: 0xffffffff
    c188:	ffff ffff 			; <UNDEFINED> instruction: 0xffffffff
    c18c:	ffff ffff 			; <UNDEFINED> instruction: 0xffffffff
    c190:	ffff ffff 			; <UNDEFINED> instruction: 0xffffffff
    c194:	ffff ffff 			; <UNDEFINED> instruction: 0xffffffff
    c198:	ffff ffff 			; <UNDEFINED> instruction: 0xffffffff
    c19c:	ffff ffff 			; <UNDEFINED> instruction: 0xffffffff
    c1a0:	ffff ffff 			; <UNDEFINED> instruction: 0xffffffff
    c1a4:	ffff ffff 			; <UNDEFINED> instruction: 0xffffffff
    c1a8:	ffff ffff 			; <UNDEFINED> instruction: 0xffffffff
    c1ac:	ffff ffff 			; <UNDEFINED> instruction: 0xffffffff
    c1b0:	ffff ffff 			; <UNDEFINED> instruction: 0xffffffff
    c1b4:	ffff ffff 			; <UNDEFINED> instruction: 0xffffffff
    c1b8:	ffff ffff 			; <UNDEFINED> instruction: 0xffffffff
    c1bc:	ffff ffff 			; <UNDEFINED> instruction: 0xffffffff
    c1c0:	ffff ffff 			; <UNDEFINED> instruction: 0xffffffff
    c1c4:	ffff ffff 			; <UNDEFINED> instruction: 0xffffffff
    c1c8:	ffff ffff 			; <UNDEFINED> instruction: 0xffffffff
    c1cc:	ffff ffff 			; <UNDEFINED> instruction: 0xffffffff
    c1d0:	ffff ffff 			; <UNDEFINED> instruction: 0xffffffff
    c1d4:	ffff ffff 			; <UNDEFINED> instruction: 0xffffffff
    c1d8:	ffff ffff 			; <UNDEFINED> instruction: 0xffffffff
    c1dc:	ffff ffff 			; <UNDEFINED> instruction: 0xffffffff
    c1e0:	ffff ffff 			; <UNDEFINED> instruction: 0xffffffff
    c1e4:	ffff ffff 			; <UNDEFINED> instruction: 0xffffffff
    c1e8:	ffff ffff 			; <UNDEFINED> instruction: 0xffffffff
    c1ec:	ffff ffff 			; <UNDEFINED> instruction: 0xffffffff
    c1f0:	ffff ffff 			; <UNDEFINED> instruction: 0xffffffff
    c1f4:	ffff ffff 			; <UNDEFINED> instruction: 0xffffffff
    c1f8:	ffff ffff 			; <UNDEFINED> instruction: 0xffffffff
    c1fc:	ffff ffff 			; <UNDEFINED> instruction: 0xffffffff
    c200:	ffff ffff 			; <UNDEFINED> instruction: 0xffffffff
    c204:	ffff ffff 			; <UNDEFINED> instruction: 0xffffffff
    c208:	ffff ffff 			; <UNDEFINED> instruction: 0xffffffff
    c20c:	ffff ffff 			; <UNDEFINED> instruction: 0xffffffff
    c210:	ffff ffff 			; <UNDEFINED> instruction: 0xffffffff
    c214:	ffff ffff 			; <UNDEFINED> instruction: 0xffffffff
    c218:	ffff ffff 			; <UNDEFINED> instruction: 0xffffffff
    c21c:	ffff ffff 			; <UNDEFINED> instruction: 0xffffffff
    c220:	ffff ffff 			; <UNDEFINED> instruction: 0xffffffff
    c224:	ffff ffff 			; <UNDEFINED> instruction: 0xffffffff
    c228:	ffff ffff 			; <UNDEFINED> instruction: 0xffffffff
    c22c:	ffff ffff 			; <UNDEFINED> instruction: 0xffffffff
    c230:	ffff ffff 			; <UNDEFINED> instruction: 0xffffffff
    c234:	ffff ffff 			; <UNDEFINED> instruction: 0xffffffff
    c238:	ffff ffff 			; <UNDEFINED> instruction: 0xffffffff
    c23c:	ffff ffff 			; <UNDEFINED> instruction: 0xffffffff
    c240:	ffff ffff 			; <UNDEFINED> instruction: 0xffffffff
    c244:	ffff ffff 			; <UNDEFINED> instruction: 0xffffffff
    c248:	ffff ffff 			; <UNDEFINED> instruction: 0xffffffff
    c24c:	ffff ffff 			; <UNDEFINED> instruction: 0xffffffff
    c250:	ffff ffff 			; <UNDEFINED> instruction: 0xffffffff
    c254:	ffff ffff 			; <UNDEFINED> instruction: 0xffffffff
    c258:	ffff ffff 			; <UNDEFINED> instruction: 0xffffffff
    c25c:	ffff ffff 			; <UNDEFINED> instruction: 0xffffffff
    c260:	ffff ffff 			; <UNDEFINED> instruction: 0xffffffff
    c264:	ffff ffff 			; <UNDEFINED> instruction: 0xffffffff
    c268:	ffff ffff 			; <UNDEFINED> instruction: 0xffffffff
    c26c:	ffff ffff 			; <UNDEFINED> instruction: 0xffffffff
    c270:	ffff ffff 			; <UNDEFINED> instruction: 0xffffffff
    c274:	ffff ffff 			; <UNDEFINED> instruction: 0xffffffff
    c278:	ffff ffff 			; <UNDEFINED> instruction: 0xffffffff
    c27c:	ffff ffff 			; <UNDEFINED> instruction: 0xffffffff
    c280:	ffff ffff 			; <UNDEFINED> instruction: 0xffffffff
    c284:	ffff ffff 			; <UNDEFINED> instruction: 0xffffffff
    c288:	ffff ffff 			; <UNDEFINED> instruction: 0xffffffff
    c28c:	ffff ffff 			; <UNDEFINED> instruction: 0xffffffff
    c290:	ffff ffff 			; <UNDEFINED> instruction: 0xffffffff
    c294:	ffff ffff 			; <UNDEFINED> instruction: 0xffffffff
    c298:	ffff ffff 			; <UNDEFINED> instruction: 0xffffffff
    c29c:	ffff ffff 			; <UNDEFINED> instruction: 0xffffffff
    c2a0:	ffff ffff 			; <UNDEFINED> instruction: 0xffffffff
    c2a4:	ffff ffff 			; <UNDEFINED> instruction: 0xffffffff
    c2a8:	ffff ffff 			; <UNDEFINED> instruction: 0xffffffff
    c2ac:	ffff ffff 			; <UNDEFINED> instruction: 0xffffffff
    c2b0:	ffff ffff 			; <UNDEFINED> instruction: 0xffffffff
    c2b4:	ffff ffff 			; <UNDEFINED> instruction: 0xffffffff
    c2b8:	ffff ffff 			; <UNDEFINED> instruction: 0xffffffff
    c2bc:	ffff ffff 			; <UNDEFINED> instruction: 0xffffffff
    c2c0:	ffff ffff 			; <UNDEFINED> instruction: 0xffffffff
    c2c4:	ffff ffff 			; <UNDEFINED> instruction: 0xffffffff
    c2c8:	ffff ffff 			; <UNDEFINED> instruction: 0xffffffff
    c2cc:	ffff ffff 			; <UNDEFINED> instruction: 0xffffffff
    c2d0:	ffff ffff 			; <UNDEFINED> instruction: 0xffffffff
    c2d4:	ffff ffff 			; <UNDEFINED> instruction: 0xffffffff
    c2d8:	ffff ffff 			; <UNDEFINED> instruction: 0xffffffff
    c2dc:	ffff ffff 			; <UNDEFINED> instruction: 0xffffffff
    c2e0:	ffff ffff 			; <UNDEFINED> instruction: 0xffffffff
    c2e4:	ffff ffff 			; <UNDEFINED> instruction: 0xffffffff
    c2e8:	ffff ffff 			; <UNDEFINED> instruction: 0xffffffff
    c2ec:	ffff ffff 			; <UNDEFINED> instruction: 0xffffffff
    c2f0:	ffff ffff 			; <UNDEFINED> instruction: 0xffffffff
    c2f4:	ffff ffff 			; <UNDEFINED> instruction: 0xffffffff
    c2f8:	ffff ffff 			; <UNDEFINED> instruction: 0xffffffff
    c2fc:	ffff ffff 			; <UNDEFINED> instruction: 0xffffffff
    c300:	ffff ffff 			; <UNDEFINED> instruction: 0xffffffff
    c304:	ffff ffff 			; <UNDEFINED> instruction: 0xffffffff
    c308:	ffff ffff 			; <UNDEFINED> instruction: 0xffffffff
    c30c:	ffff ffff 			; <UNDEFINED> instruction: 0xffffffff
    c310:	ffff ffff 			; <UNDEFINED> instruction: 0xffffffff
    c314:	ffff ffff 			; <UNDEFINED> instruction: 0xffffffff
    c318:	ffff ffff 			; <UNDEFINED> instruction: 0xffffffff
    c31c:	ffff ffff 			; <UNDEFINED> instruction: 0xffffffff
    c320:	ffff ffff 			; <UNDEFINED> instruction: 0xffffffff
    c324:	ffff ffff 			; <UNDEFINED> instruction: 0xffffffff
    c328:	ffff ffff 			; <UNDEFINED> instruction: 0xffffffff
    c32c:	ffff ffff 			; <UNDEFINED> instruction: 0xffffffff
    c330:	ffff ffff 			; <UNDEFINED> instruction: 0xffffffff
    c334:	ffff ffff 			; <UNDEFINED> instruction: 0xffffffff
    c338:	ffff ffff 			; <UNDEFINED> instruction: 0xffffffff
    c33c:	ffff ffff 			; <UNDEFINED> instruction: 0xffffffff
    c340:	ffff ffff 			; <UNDEFINED> instruction: 0xffffffff
    c344:	ffff ffff 			; <UNDEFINED> instruction: 0xffffffff
    c348:	ffff ffff 			; <UNDEFINED> instruction: 0xffffffff
    c34c:	ffff ffff 			; <UNDEFINED> instruction: 0xffffffff
    c350:	ffff ffff 			; <UNDEFINED> instruction: 0xffffffff
    c354:	ffff ffff 			; <UNDEFINED> instruction: 0xffffffff
    c358:	ffff ffff 			; <UNDEFINED> instruction: 0xffffffff
    c35c:	ffff ffff 			; <UNDEFINED> instruction: 0xffffffff
    c360:	ffff ffff 			; <UNDEFINED> instruction: 0xffffffff
    c364:	ffff ffff 			; <UNDEFINED> instruction: 0xffffffff
    c368:	ffff ffff 			; <UNDEFINED> instruction: 0xffffffff
    c36c:	ffff ffff 			; <UNDEFINED> instruction: 0xffffffff
    c370:	ffff ffff 			; <UNDEFINED> instruction: 0xffffffff
    c374:	ffff ffff 			; <UNDEFINED> instruction: 0xffffffff
    c378:	ffff ffff 			; <UNDEFINED> instruction: 0xffffffff
    c37c:	ffff ffff 			; <UNDEFINED> instruction: 0xffffffff
    c380:	ffff ffff 			; <UNDEFINED> instruction: 0xffffffff
    c384:	ffff ffff 			; <UNDEFINED> instruction: 0xffffffff
    c388:	ffff ffff 			; <UNDEFINED> instruction: 0xffffffff
    c38c:	ffff ffff 			; <UNDEFINED> instruction: 0xffffffff
    c390:	ffff ffff 			; <UNDEFINED> instruction: 0xffffffff
    c394:	ffff ffff 			; <UNDEFINED> instruction: 0xffffffff
    c398:	ffff ffff 			; <UNDEFINED> instruction: 0xffffffff
    c39c:	ffff ffff 			; <UNDEFINED> instruction: 0xffffffff
    c3a0:	ffff ffff 			; <UNDEFINED> instruction: 0xffffffff
    c3a4:	ffff ffff 			; <UNDEFINED> instruction: 0xffffffff
    c3a8:	ffff ffff 			; <UNDEFINED> instruction: 0xffffffff
    c3ac:	ffff ffff 			; <UNDEFINED> instruction: 0xffffffff
    c3b0:	ffff ffff 			; <UNDEFINED> instruction: 0xffffffff
    c3b4:	ffff ffff 			; <UNDEFINED> instruction: 0xffffffff
    c3b8:	ffff ffff 			; <UNDEFINED> instruction: 0xffffffff
    c3bc:	ffff ffff 			; <UNDEFINED> instruction: 0xffffffff
    c3c0:	ffff ffff 			; <UNDEFINED> instruction: 0xffffffff
    c3c4:	ffff ffff 			; <UNDEFINED> instruction: 0xffffffff
    c3c8:	ffff ffff 			; <UNDEFINED> instruction: 0xffffffff
    c3cc:	ffff ffff 			; <UNDEFINED> instruction: 0xffffffff
    c3d0:	ffff ffff 			; <UNDEFINED> instruction: 0xffffffff
    c3d4:	ffff ffff 			; <UNDEFINED> instruction: 0xffffffff
    c3d8:	ffff ffff 			; <UNDEFINED> instruction: 0xffffffff
    c3dc:	ffff ffff 			; <UNDEFINED> instruction: 0xffffffff
    c3e0:	ffff ffff 			; <UNDEFINED> instruction: 0xffffffff
    c3e4:	ffff ffff 			; <UNDEFINED> instruction: 0xffffffff
    c3e8:	ffff ffff 			; <UNDEFINED> instruction: 0xffffffff
    c3ec:	ffff ffff 			; <UNDEFINED> instruction: 0xffffffff
    c3f0:	ffff ffff 			; <UNDEFINED> instruction: 0xffffffff
    c3f4:	ffff ffff 			; <UNDEFINED> instruction: 0xffffffff
    c3f8:	ffff ffff 			; <UNDEFINED> instruction: 0xffffffff
    c3fc:	ffff ffff 			; <UNDEFINED> instruction: 0xffffffff
    c400:	ffff ffff 			; <UNDEFINED> instruction: 0xffffffff
    c404:	ffff ffff 			; <UNDEFINED> instruction: 0xffffffff
    c408:	ffff ffff 			; <UNDEFINED> instruction: 0xffffffff
    c40c:	ffff ffff 			; <UNDEFINED> instruction: 0xffffffff
    c410:	ffff ffff 			; <UNDEFINED> instruction: 0xffffffff
    c414:	ffff ffff 			; <UNDEFINED> instruction: 0xffffffff
    c418:	ffff ffff 			; <UNDEFINED> instruction: 0xffffffff
    c41c:	ffff ffff 			; <UNDEFINED> instruction: 0xffffffff
    c420:	ffff ffff 			; <UNDEFINED> instruction: 0xffffffff
    c424:	ffff ffff 			; <UNDEFINED> instruction: 0xffffffff
    c428:	ffff ffff 			; <UNDEFINED> instruction: 0xffffffff
    c42c:	ffff ffff 			; <UNDEFINED> instruction: 0xffffffff
    c430:	ffff ffff 			; <UNDEFINED> instruction: 0xffffffff
    c434:	ffff ffff 			; <UNDEFINED> instruction: 0xffffffff
    c438:	ffff ffff 			; <UNDEFINED> instruction: 0xffffffff
    c43c:	ffff ffff 			; <UNDEFINED> instruction: 0xffffffff
    c440:	ffff ffff 			; <UNDEFINED> instruction: 0xffffffff
    c444:	ffff ffff 			; <UNDEFINED> instruction: 0xffffffff
    c448:	ffff ffff 			; <UNDEFINED> instruction: 0xffffffff
    c44c:	ffff ffff 			; <UNDEFINED> instruction: 0xffffffff
    c450:	ffff ffff 			; <UNDEFINED> instruction: 0xffffffff
    c454:	ffff ffff 			; <UNDEFINED> instruction: 0xffffffff
    c458:	ffff ffff 			; <UNDEFINED> instruction: 0xffffffff
    c45c:	ffff ffff 			; <UNDEFINED> instruction: 0xffffffff
    c460:	ffff ffff 			; <UNDEFINED> instruction: 0xffffffff
    c464:	ffff ffff 			; <UNDEFINED> instruction: 0xffffffff
    c468:	ffff ffff 			; <UNDEFINED> instruction: 0xffffffff
    c46c:	ffff ffff 			; <UNDEFINED> instruction: 0xffffffff
    c470:	ffff ffff 			; <UNDEFINED> instruction: 0xffffffff
    c474:	ffff ffff 			; <UNDEFINED> instruction: 0xffffffff
    c478:	ffff ffff 			; <UNDEFINED> instruction: 0xffffffff
    c47c:	ffff ffff 			; <UNDEFINED> instruction: 0xffffffff
    c480:	ffff ffff 			; <UNDEFINED> instruction: 0xffffffff
    c484:	ffff ffff 			; <UNDEFINED> instruction: 0xffffffff
    c488:	ffff ffff 			; <UNDEFINED> instruction: 0xffffffff
    c48c:	ffff ffff 			; <UNDEFINED> instruction: 0xffffffff
    c490:	ffff ffff 			; <UNDEFINED> instruction: 0xffffffff
    c494:	ffff ffff 			; <UNDEFINED> instruction: 0xffffffff
    c498:	ffff ffff 			; <UNDEFINED> instruction: 0xffffffff
    c49c:	ffff ffff 			; <UNDEFINED> instruction: 0xffffffff
    c4a0:	ffff ffff 			; <UNDEFINED> instruction: 0xffffffff
    c4a4:	ffff ffff 			; <UNDEFINED> instruction: 0xffffffff
    c4a8:	ffff ffff 			; <UNDEFINED> instruction: 0xffffffff
    c4ac:	ffff ffff 			; <UNDEFINED> instruction: 0xffffffff
    c4b0:	ffff ffff 			; <UNDEFINED> instruction: 0xffffffff
    c4b4:	ffff ffff 			; <UNDEFINED> instruction: 0xffffffff
    c4b8:	ffff ffff 			; <UNDEFINED> instruction: 0xffffffff
    c4bc:	ffff ffff 			; <UNDEFINED> instruction: 0xffffffff
    c4c0:	ffff ffff 			; <UNDEFINED> instruction: 0xffffffff
    c4c4:	ffff ffff 			; <UNDEFINED> instruction: 0xffffffff
    c4c8:	ffff ffff 			; <UNDEFINED> instruction: 0xffffffff
    c4cc:	ffff ffff 			; <UNDEFINED> instruction: 0xffffffff
    c4d0:	ffff ffff 			; <UNDEFINED> instruction: 0xffffffff
    c4d4:	ffff ffff 			; <UNDEFINED> instruction: 0xffffffff
    c4d8:	ffff ffff 			; <UNDEFINED> instruction: 0xffffffff
    c4dc:	ffff ffff 			; <UNDEFINED> instruction: 0xffffffff
    c4e0:	ffff ffff 			; <UNDEFINED> instruction: 0xffffffff
    c4e4:	ffff ffff 			; <UNDEFINED> instruction: 0xffffffff
    c4e8:	ffff ffff 			; <UNDEFINED> instruction: 0xffffffff
    c4ec:	ffff ffff 			; <UNDEFINED> instruction: 0xffffffff
    c4f0:	ffff ffff 			; <UNDEFINED> instruction: 0xffffffff
    c4f4:	ffff ffff 			; <UNDEFINED> instruction: 0xffffffff
    c4f8:	ffff ffff 			; <UNDEFINED> instruction: 0xffffffff
    c4fc:	ffff ffff 			; <UNDEFINED> instruction: 0xffffffff
    c500:	ffff ffff 			; <UNDEFINED> instruction: 0xffffffff
    c504:	ffff ffff 			; <UNDEFINED> instruction: 0xffffffff
    c508:	ffff ffff 			; <UNDEFINED> instruction: 0xffffffff
    c50c:	ffff ffff 			; <UNDEFINED> instruction: 0xffffffff
    c510:	ffff ffff 			; <UNDEFINED> instruction: 0xffffffff
    c514:	ffff ffff 			; <UNDEFINED> instruction: 0xffffffff
    c518:	ffff ffff 			; <UNDEFINED> instruction: 0xffffffff
    c51c:	ffff ffff 			; <UNDEFINED> instruction: 0xffffffff
    c520:	ffff ffff 			; <UNDEFINED> instruction: 0xffffffff
    c524:	ffff ffff 			; <UNDEFINED> instruction: 0xffffffff
    c528:	ffff ffff 			; <UNDEFINED> instruction: 0xffffffff
    c52c:	ffff ffff 			; <UNDEFINED> instruction: 0xffffffff
    c530:	ffff ffff 			; <UNDEFINED> instruction: 0xffffffff
    c534:	ffff ffff 			; <UNDEFINED> instruction: 0xffffffff
    c538:	ffff ffff 			; <UNDEFINED> instruction: 0xffffffff
    c53c:	ffff ffff 			; <UNDEFINED> instruction: 0xffffffff
    c540:	ffff ffff 			; <UNDEFINED> instruction: 0xffffffff
    c544:	ffff ffff 			; <UNDEFINED> instruction: 0xffffffff
    c548:	ffff ffff 			; <UNDEFINED> instruction: 0xffffffff
    c54c:	ffff ffff 			; <UNDEFINED> instruction: 0xffffffff
    c550:	ffff ffff 			; <UNDEFINED> instruction: 0xffffffff
    c554:	ffff ffff 			; <UNDEFINED> instruction: 0xffffffff
    c558:	ffff ffff 			; <UNDEFINED> instruction: 0xffffffff
    c55c:	ffff ffff 			; <UNDEFINED> instruction: 0xffffffff
    c560:	ffff ffff 			; <UNDEFINED> instruction: 0xffffffff
    c564:	ffff ffff 			; <UNDEFINED> instruction: 0xffffffff
    c568:	ffff ffff 			; <UNDEFINED> instruction: 0xffffffff
    c56c:	ffff ffff 			; <UNDEFINED> instruction: 0xffffffff
    c570:	ffff ffff 			; <UNDEFINED> instruction: 0xffffffff
    c574:	ffff ffff 			; <UNDEFINED> instruction: 0xffffffff
    c578:	ffff ffff 			; <UNDEFINED> instruction: 0xffffffff
    c57c:	ffff ffff 			; <UNDEFINED> instruction: 0xffffffff
    c580:	ffff ffff 			; <UNDEFINED> instruction: 0xffffffff
    c584:	ffff ffff 			; <UNDEFINED> instruction: 0xffffffff
    c588:	ffff ffff 			; <UNDEFINED> instruction: 0xffffffff
    c58c:	ffff ffff 			; <UNDEFINED> instruction: 0xffffffff
    c590:	ffff ffff 			; <UNDEFINED> instruction: 0xffffffff
    c594:	ffff ffff 			; <UNDEFINED> instruction: 0xffffffff
    c598:	ffff ffff 			; <UNDEFINED> instruction: 0xffffffff
    c59c:	ffff ffff 			; <UNDEFINED> instruction: 0xffffffff
    c5a0:	ffff ffff 			; <UNDEFINED> instruction: 0xffffffff
    c5a4:	ffff ffff 			; <UNDEFINED> instruction: 0xffffffff
    c5a8:	ffff ffff 			; <UNDEFINED> instruction: 0xffffffff
    c5ac:	ffff ffff 			; <UNDEFINED> instruction: 0xffffffff
    c5b0:	ffff ffff 			; <UNDEFINED> instruction: 0xffffffff
    c5b4:	ffff ffff 			; <UNDEFINED> instruction: 0xffffffff
    c5b8:	ffff ffff 			; <UNDEFINED> instruction: 0xffffffff
    c5bc:	ffff ffff 			; <UNDEFINED> instruction: 0xffffffff
    c5c0:	ffff ffff 			; <UNDEFINED> instruction: 0xffffffff
    c5c4:	ffff ffff 			; <UNDEFINED> instruction: 0xffffffff
    c5c8:	ffff ffff 			; <UNDEFINED> instruction: 0xffffffff
    c5cc:	ffff ffff 			; <UNDEFINED> instruction: 0xffffffff
    c5d0:	ffff ffff 			; <UNDEFINED> instruction: 0xffffffff
    c5d4:	ffff ffff 			; <UNDEFINED> instruction: 0xffffffff
    c5d8:	ffff ffff 			; <UNDEFINED> instruction: 0xffffffff
    c5dc:	ffff ffff 			; <UNDEFINED> instruction: 0xffffffff
    c5e0:	ffff ffff 			; <UNDEFINED> instruction: 0xffffffff
    c5e4:	ffff ffff 			; <UNDEFINED> instruction: 0xffffffff
    c5e8:	ffff ffff 			; <UNDEFINED> instruction: 0xffffffff
    c5ec:	ffff ffff 			; <UNDEFINED> instruction: 0xffffffff
    c5f0:	ffff ffff 			; <UNDEFINED> instruction: 0xffffffff
    c5f4:	ffff ffff 			; <UNDEFINED> instruction: 0xffffffff
    c5f8:	ffff ffff 			; <UNDEFINED> instruction: 0xffffffff
    c5fc:	ffff ffff 			; <UNDEFINED> instruction: 0xffffffff
    c600:	ffff ffff 			; <UNDEFINED> instruction: 0xffffffff
    c604:	ffff ffff 			; <UNDEFINED> instruction: 0xffffffff
    c608:	ffff ffff 			; <UNDEFINED> instruction: 0xffffffff
    c60c:	ffff ffff 			; <UNDEFINED> instruction: 0xffffffff
    c610:	ffff ffff 			; <UNDEFINED> instruction: 0xffffffff
    c614:	ffff ffff 			; <UNDEFINED> instruction: 0xffffffff
    c618:	ffff ffff 			; <UNDEFINED> instruction: 0xffffffff
    c61c:	ffff ffff 			; <UNDEFINED> instruction: 0xffffffff
    c620:	ffff ffff 			; <UNDEFINED> instruction: 0xffffffff
    c624:	ffff ffff 			; <UNDEFINED> instruction: 0xffffffff
    c628:	ffff ffff 			; <UNDEFINED> instruction: 0xffffffff
    c62c:	ffff ffff 			; <UNDEFINED> instruction: 0xffffffff
    c630:	ffff ffff 			; <UNDEFINED> instruction: 0xffffffff
    c634:	ffff ffff 			; <UNDEFINED> instruction: 0xffffffff
    c638:	ffff ffff 			; <UNDEFINED> instruction: 0xffffffff
    c63c:	ffff ffff 			; <UNDEFINED> instruction: 0xffffffff
    c640:	ffff ffff 			; <UNDEFINED> instruction: 0xffffffff
    c644:	ffff ffff 			; <UNDEFINED> instruction: 0xffffffff
    c648:	ffff ffff 			; <UNDEFINED> instruction: 0xffffffff
    c64c:	ffff ffff 			; <UNDEFINED> instruction: 0xffffffff
    c650:	ffff ffff 			; <UNDEFINED> instruction: 0xffffffff
    c654:	ffff ffff 			; <UNDEFINED> instruction: 0xffffffff
    c658:	ffff ffff 			; <UNDEFINED> instruction: 0xffffffff
    c65c:	ffff ffff 			; <UNDEFINED> instruction: 0xffffffff
    c660:	ffff ffff 			; <UNDEFINED> instruction: 0xffffffff
    c664:	ffff ffff 			; <UNDEFINED> instruction: 0xffffffff
    c668:	ffff ffff 			; <UNDEFINED> instruction: 0xffffffff
    c66c:	ffff ffff 			; <UNDEFINED> instruction: 0xffffffff
    c670:	ffff ffff 			; <UNDEFINED> instruction: 0xffffffff
    c674:	ffff ffff 			; <UNDEFINED> instruction: 0xffffffff
    c678:	ffff ffff 			; <UNDEFINED> instruction: 0xffffffff
    c67c:	ffff ffff 			; <UNDEFINED> instruction: 0xffffffff
    c680:	ffff ffff 			; <UNDEFINED> instruction: 0xffffffff
    c684:	ffff ffff 			; <UNDEFINED> instruction: 0xffffffff
    c688:	ffff ffff 			; <UNDEFINED> instruction: 0xffffffff
    c68c:	ffff ffff 			; <UNDEFINED> instruction: 0xffffffff
    c690:	ffff ffff 			; <UNDEFINED> instruction: 0xffffffff
    c694:	ffff ffff 			; <UNDEFINED> instruction: 0xffffffff
    c698:	ffff ffff 			; <UNDEFINED> instruction: 0xffffffff
    c69c:	ffff ffff 			; <UNDEFINED> instruction: 0xffffffff
    c6a0:	ffff ffff 			; <UNDEFINED> instruction: 0xffffffff
    c6a4:	ffff ffff 			; <UNDEFINED> instruction: 0xffffffff
    c6a8:	ffff ffff 			; <UNDEFINED> instruction: 0xffffffff
    c6ac:	ffff ffff 			; <UNDEFINED> instruction: 0xffffffff
    c6b0:	ffff ffff 			; <UNDEFINED> instruction: 0xffffffff
    c6b4:	ffff ffff 			; <UNDEFINED> instruction: 0xffffffff
    c6b8:	ffff ffff 			; <UNDEFINED> instruction: 0xffffffff
    c6bc:	ffff ffff 			; <UNDEFINED> instruction: 0xffffffff
    c6c0:	ffff ffff 			; <UNDEFINED> instruction: 0xffffffff
    c6c4:	ffff ffff 			; <UNDEFINED> instruction: 0xffffffff
    c6c8:	ffff ffff 			; <UNDEFINED> instruction: 0xffffffff
    c6cc:	ffff ffff 			; <UNDEFINED> instruction: 0xffffffff
    c6d0:	ffff ffff 			; <UNDEFINED> instruction: 0xffffffff
    c6d4:	ffff ffff 			; <UNDEFINED> instruction: 0xffffffff
    c6d8:	ffff ffff 			; <UNDEFINED> instruction: 0xffffffff
    c6dc:	ffff ffff 			; <UNDEFINED> instruction: 0xffffffff
    c6e0:	ffff ffff 			; <UNDEFINED> instruction: 0xffffffff
    c6e4:	ffff ffff 			; <UNDEFINED> instruction: 0xffffffff
    c6e8:	ffff ffff 			; <UNDEFINED> instruction: 0xffffffff
    c6ec:	ffff ffff 			; <UNDEFINED> instruction: 0xffffffff
    c6f0:	ffff ffff 			; <UNDEFINED> instruction: 0xffffffff
    c6f4:	ffff ffff 			; <UNDEFINED> instruction: 0xffffffff
    c6f8:	ffff ffff 			; <UNDEFINED> instruction: 0xffffffff
    c6fc:	ffff ffff 			; <UNDEFINED> instruction: 0xffffffff
    c700:	ffff ffff 			; <UNDEFINED> instruction: 0xffffffff
    c704:	ffff ffff 			; <UNDEFINED> instruction: 0xffffffff
    c708:	ffff ffff 			; <UNDEFINED> instruction: 0xffffffff
    c70c:	ffff ffff 			; <UNDEFINED> instruction: 0xffffffff
    c710:	ffff ffff 			; <UNDEFINED> instruction: 0xffffffff
    c714:	ffff ffff 			; <UNDEFINED> instruction: 0xffffffff
    c718:	ffff ffff 			; <UNDEFINED> instruction: 0xffffffff
    c71c:	ffff ffff 			; <UNDEFINED> instruction: 0xffffffff
    c720:	ffff ffff 			; <UNDEFINED> instruction: 0xffffffff
    c724:	ffff ffff 			; <UNDEFINED> instruction: 0xffffffff
    c728:	ffff ffff 			; <UNDEFINED> instruction: 0xffffffff
    c72c:	ffff ffff 			; <UNDEFINED> instruction: 0xffffffff
    c730:	ffff ffff 			; <UNDEFINED> instruction: 0xffffffff
    c734:	ffff ffff 			; <UNDEFINED> instruction: 0xffffffff
    c738:	ffff ffff 			; <UNDEFINED> instruction: 0xffffffff
    c73c:	ffff ffff 			; <UNDEFINED> instruction: 0xffffffff
    c740:	ffff ffff 			; <UNDEFINED> instruction: 0xffffffff
    c744:	ffff ffff 			; <UNDEFINED> instruction: 0xffffffff
    c748:	ffff ffff 			; <UNDEFINED> instruction: 0xffffffff
    c74c:	ffff ffff 			; <UNDEFINED> instruction: 0xffffffff
    c750:	ffff ffff 			; <UNDEFINED> instruction: 0xffffffff
    c754:	ffff ffff 			; <UNDEFINED> instruction: 0xffffffff
    c758:	ffff ffff 			; <UNDEFINED> instruction: 0xffffffff
    c75c:	ffff ffff 			; <UNDEFINED> instruction: 0xffffffff
    c760:	ffff ffff 			; <UNDEFINED> instruction: 0xffffffff
    c764:	ffff ffff 			; <UNDEFINED> instruction: 0xffffffff
    c768:	ffff ffff 			; <UNDEFINED> instruction: 0xffffffff
    c76c:	ffff ffff 			; <UNDEFINED> instruction: 0xffffffff
    c770:	ffff ffff 			; <UNDEFINED> instruction: 0xffffffff
    c774:	ffff ffff 			; <UNDEFINED> instruction: 0xffffffff
    c778:	ffff ffff 			; <UNDEFINED> instruction: 0xffffffff
    c77c:	ffff ffff 			; <UNDEFINED> instruction: 0xffffffff
    c780:	ffff ffff 			; <UNDEFINED> instruction: 0xffffffff
    c784:	ffff ffff 			; <UNDEFINED> instruction: 0xffffffff
    c788:	ffff ffff 			; <UNDEFINED> instruction: 0xffffffff
    c78c:	ffff ffff 			; <UNDEFINED> instruction: 0xffffffff
    c790:	ffff ffff 			; <UNDEFINED> instruction: 0xffffffff
    c794:	ffff ffff 			; <UNDEFINED> instruction: 0xffffffff
    c798:	ffff ffff 			; <UNDEFINED> instruction: 0xffffffff
    c79c:	ffff ffff 			; <UNDEFINED> instruction: 0xffffffff
    c7a0:	ffff ffff 			; <UNDEFINED> instruction: 0xffffffff
    c7a4:	ffff ffff 			; <UNDEFINED> instruction: 0xffffffff
    c7a8:	ffff ffff 			; <UNDEFINED> instruction: 0xffffffff
    c7ac:	ffff ffff 			; <UNDEFINED> instruction: 0xffffffff
    c7b0:	ffff ffff 			; <UNDEFINED> instruction: 0xffffffff
    c7b4:	ffff ffff 			; <UNDEFINED> instruction: 0xffffffff
    c7b8:	ffff ffff 			; <UNDEFINED> instruction: 0xffffffff
    c7bc:	ffff ffff 			; <UNDEFINED> instruction: 0xffffffff
    c7c0:	ffff ffff 			; <UNDEFINED> instruction: 0xffffffff
    c7c4:	ffff ffff 			; <UNDEFINED> instruction: 0xffffffff
    c7c8:	ffff ffff 			; <UNDEFINED> instruction: 0xffffffff
    c7cc:	ffff ffff 			; <UNDEFINED> instruction: 0xffffffff
    c7d0:	ffff ffff 			; <UNDEFINED> instruction: 0xffffffff
    c7d4:	ffff ffff 			; <UNDEFINED> instruction: 0xffffffff
    c7d8:	ffff ffff 			; <UNDEFINED> instruction: 0xffffffff
    c7dc:	ffff ffff 			; <UNDEFINED> instruction: 0xffffffff
    c7e0:	ffff ffff 			; <UNDEFINED> instruction: 0xffffffff
    c7e4:	ffff ffff 			; <UNDEFINED> instruction: 0xffffffff
    c7e8:	ffff ffff 			; <UNDEFINED> instruction: 0xffffffff
    c7ec:	ffff ffff 			; <UNDEFINED> instruction: 0xffffffff
    c7f0:	ffff ffff 			; <UNDEFINED> instruction: 0xffffffff
    c7f4:	ffff ffff 			; <UNDEFINED> instruction: 0xffffffff
    c7f8:	ffff ffff 			; <UNDEFINED> instruction: 0xffffffff
    c7fc:	ffff ffff 			; <UNDEFINED> instruction: 0xffffffff
    c800:	ffff ffff 			; <UNDEFINED> instruction: 0xffffffff
    c804:	ffff ffff 			; <UNDEFINED> instruction: 0xffffffff
    c808:	ffff ffff 			; <UNDEFINED> instruction: 0xffffffff
    c80c:	ffff ffff 			; <UNDEFINED> instruction: 0xffffffff
    c810:	ffff ffff 			; <UNDEFINED> instruction: 0xffffffff
    c814:	ffff ffff 			; <UNDEFINED> instruction: 0xffffffff
    c818:	ffff ffff 			; <UNDEFINED> instruction: 0xffffffff
    c81c:	ffff ffff 			; <UNDEFINED> instruction: 0xffffffff
    c820:	ffff ffff 			; <UNDEFINED> instruction: 0xffffffff
    c824:	ffff ffff 			; <UNDEFINED> instruction: 0xffffffff
    c828:	ffff ffff 			; <UNDEFINED> instruction: 0xffffffff
    c82c:	ffff ffff 			; <UNDEFINED> instruction: 0xffffffff
    c830:	ffff ffff 			; <UNDEFINED> instruction: 0xffffffff
    c834:	ffff ffff 			; <UNDEFINED> instruction: 0xffffffff
    c838:	ffff ffff 			; <UNDEFINED> instruction: 0xffffffff
    c83c:	ffff ffff 			; <UNDEFINED> instruction: 0xffffffff
    c840:	ffff ffff 			; <UNDEFINED> instruction: 0xffffffff
    c844:	ffff ffff 			; <UNDEFINED> instruction: 0xffffffff
    c848:	ffff ffff 			; <UNDEFINED> instruction: 0xffffffff
    c84c:	ffff ffff 			; <UNDEFINED> instruction: 0xffffffff
    c850:	ffff ffff 			; <UNDEFINED> instruction: 0xffffffff
    c854:	ffff ffff 			; <UNDEFINED> instruction: 0xffffffff
    c858:	ffff ffff 			; <UNDEFINED> instruction: 0xffffffff
    c85c:	ffff ffff 			; <UNDEFINED> instruction: 0xffffffff
    c860:	ffff ffff 			; <UNDEFINED> instruction: 0xffffffff
    c864:	ffff ffff 			; <UNDEFINED> instruction: 0xffffffff
    c868:	ffff ffff 			; <UNDEFINED> instruction: 0xffffffff
    c86c:	ffff ffff 			; <UNDEFINED> instruction: 0xffffffff
    c870:	ffff ffff 			; <UNDEFINED> instruction: 0xffffffff
    c874:	ffff ffff 			; <UNDEFINED> instruction: 0xffffffff
    c878:	ffff ffff 			; <UNDEFINED> instruction: 0xffffffff
    c87c:	ffff ffff 			; <UNDEFINED> instruction: 0xffffffff
    c880:	ffff ffff 			; <UNDEFINED> instruction: 0xffffffff
    c884:	ffff ffff 			; <UNDEFINED> instruction: 0xffffffff
    c888:	ffff ffff 			; <UNDEFINED> instruction: 0xffffffff
    c88c:	ffff ffff 			; <UNDEFINED> instruction: 0xffffffff
    c890:	ffff ffff 			; <UNDEFINED> instruction: 0xffffffff
    c894:	ffff ffff 			; <UNDEFINED> instruction: 0xffffffff
    c898:	ffff ffff 			; <UNDEFINED> instruction: 0xffffffff
    c89c:	ffff ffff 			; <UNDEFINED> instruction: 0xffffffff
    c8a0:	ffff ffff 			; <UNDEFINED> instruction: 0xffffffff
    c8a4:	ffff ffff 			; <UNDEFINED> instruction: 0xffffffff
    c8a8:	ffff ffff 			; <UNDEFINED> instruction: 0xffffffff
    c8ac:	ffff ffff 			; <UNDEFINED> instruction: 0xffffffff
    c8b0:	ffff ffff 			; <UNDEFINED> instruction: 0xffffffff
    c8b4:	ffff ffff 			; <UNDEFINED> instruction: 0xffffffff
    c8b8:	ffff ffff 			; <UNDEFINED> instruction: 0xffffffff
    c8bc:	ffff ffff 			; <UNDEFINED> instruction: 0xffffffff
    c8c0:	ffff ffff 			; <UNDEFINED> instruction: 0xffffffff
    c8c4:	ffff ffff 			; <UNDEFINED> instruction: 0xffffffff
    c8c8:	ffff ffff 			; <UNDEFINED> instruction: 0xffffffff
    c8cc:	ffff ffff 			; <UNDEFINED> instruction: 0xffffffff
    c8d0:	ffff ffff 			; <UNDEFINED> instruction: 0xffffffff
    c8d4:	ffff ffff 			; <UNDEFINED> instruction: 0xffffffff
    c8d8:	ffff ffff 			; <UNDEFINED> instruction: 0xffffffff
    c8dc:	ffff ffff 			; <UNDEFINED> instruction: 0xffffffff
    c8e0:	ffff ffff 			; <UNDEFINED> instruction: 0xffffffff
    c8e4:	ffff ffff 			; <UNDEFINED> instruction: 0xffffffff
    c8e8:	ffff ffff 			; <UNDEFINED> instruction: 0xffffffff
    c8ec:	ffff ffff 			; <UNDEFINED> instruction: 0xffffffff
    c8f0:	ffff ffff 			; <UNDEFINED> instruction: 0xffffffff
    c8f4:	ffff ffff 			; <UNDEFINED> instruction: 0xffffffff
    c8f8:	ffff ffff 			; <UNDEFINED> instruction: 0xffffffff
    c8fc:	ffff ffff 			; <UNDEFINED> instruction: 0xffffffff
    c900:	ffff ffff 			; <UNDEFINED> instruction: 0xffffffff
    c904:	ffff ffff 			; <UNDEFINED> instruction: 0xffffffff
    c908:	ffff ffff 			; <UNDEFINED> instruction: 0xffffffff
    c90c:	ffff ffff 			; <UNDEFINED> instruction: 0xffffffff
    c910:	ffff ffff 			; <UNDEFINED> instruction: 0xffffffff
    c914:	ffff ffff 			; <UNDEFINED> instruction: 0xffffffff
    c918:	ffff ffff 			; <UNDEFINED> instruction: 0xffffffff
    c91c:	ffff ffff 			; <UNDEFINED> instruction: 0xffffffff
    c920:	ffff ffff 			; <UNDEFINED> instruction: 0xffffffff
    c924:	ffff ffff 			; <UNDEFINED> instruction: 0xffffffff
    c928:	ffff ffff 			; <UNDEFINED> instruction: 0xffffffff
    c92c:	ffff ffff 			; <UNDEFINED> instruction: 0xffffffff
    c930:	ffff ffff 			; <UNDEFINED> instruction: 0xffffffff
    c934:	ffff ffff 			; <UNDEFINED> instruction: 0xffffffff
    c938:	ffff ffff 			; <UNDEFINED> instruction: 0xffffffff
    c93c:	ffff ffff 			; <UNDEFINED> instruction: 0xffffffff
    c940:	ffff ffff 			; <UNDEFINED> instruction: 0xffffffff
    c944:	ffff ffff 			; <UNDEFINED> instruction: 0xffffffff
    c948:	ffff ffff 			; <UNDEFINED> instruction: 0xffffffff
    c94c:	ffff ffff 			; <UNDEFINED> instruction: 0xffffffff
    c950:	ffff ffff 			; <UNDEFINED> instruction: 0xffffffff
    c954:	ffff ffff 			; <UNDEFINED> instruction: 0xffffffff
    c958:	ffff ffff 			; <UNDEFINED> instruction: 0xffffffff
    c95c:	ffff ffff 			; <UNDEFINED> instruction: 0xffffffff
    c960:	ffff ffff 			; <UNDEFINED> instruction: 0xffffffff
    c964:	ffff ffff 			; <UNDEFINED> instruction: 0xffffffff
    c968:	ffff ffff 			; <UNDEFINED> instruction: 0xffffffff
    c96c:	ffff ffff 			; <UNDEFINED> instruction: 0xffffffff
    c970:	ffff ffff 			; <UNDEFINED> instruction: 0xffffffff
    c974:	ffff ffff 			; <UNDEFINED> instruction: 0xffffffff
    c978:	ffff ffff 			; <UNDEFINED> instruction: 0xffffffff
    c97c:	ffff ffff 			; <UNDEFINED> instruction: 0xffffffff
    c980:	ffff ffff 			; <UNDEFINED> instruction: 0xffffffff
    c984:	ffff ffff 			; <UNDEFINED> instruction: 0xffffffff
    c988:	ffff ffff 			; <UNDEFINED> instruction: 0xffffffff
    c98c:	ffff ffff 			; <UNDEFINED> instruction: 0xffffffff
    c990:	ffff ffff 			; <UNDEFINED> instruction: 0xffffffff
    c994:	ffff ffff 			; <UNDEFINED> instruction: 0xffffffff
    c998:	ffff ffff 			; <UNDEFINED> instruction: 0xffffffff
    c99c:	ffff ffff 			; <UNDEFINED> instruction: 0xffffffff
    c9a0:	ffff ffff 			; <UNDEFINED> instruction: 0xffffffff
    c9a4:	ffff ffff 			; <UNDEFINED> instruction: 0xffffffff
    c9a8:	ffff ffff 			; <UNDEFINED> instruction: 0xffffffff
    c9ac:	ffff ffff 			; <UNDEFINED> instruction: 0xffffffff
    c9b0:	ffff ffff 			; <UNDEFINED> instruction: 0xffffffff
    c9b4:	ffff ffff 			; <UNDEFINED> instruction: 0xffffffff
    c9b8:	ffff ffff 			; <UNDEFINED> instruction: 0xffffffff
    c9bc:	ffff ffff 			; <UNDEFINED> instruction: 0xffffffff
    c9c0:	ffff ffff 			; <UNDEFINED> instruction: 0xffffffff
    c9c4:	ffff ffff 			; <UNDEFINED> instruction: 0xffffffff
    c9c8:	ffff ffff 			; <UNDEFINED> instruction: 0xffffffff
    c9cc:	ffff ffff 			; <UNDEFINED> instruction: 0xffffffff
    c9d0:	ffff ffff 			; <UNDEFINED> instruction: 0xffffffff
    c9d4:	ffff ffff 			; <UNDEFINED> instruction: 0xffffffff
    c9d8:	ffff ffff 			; <UNDEFINED> instruction: 0xffffffff
    c9dc:	ffff ffff 			; <UNDEFINED> instruction: 0xffffffff
    c9e0:	ffff ffff 			; <UNDEFINED> instruction: 0xffffffff
    c9e4:	ffff ffff 			; <UNDEFINED> instruction: 0xffffffff
    c9e8:	ffff ffff 			; <UNDEFINED> instruction: 0xffffffff
    c9ec:	ffff ffff 			; <UNDEFINED> instruction: 0xffffffff
    c9f0:	ffff ffff 			; <UNDEFINED> instruction: 0xffffffff
    c9f4:	ffff ffff 			; <UNDEFINED> instruction: 0xffffffff
    c9f8:	ffff ffff 			; <UNDEFINED> instruction: 0xffffffff
    c9fc:	ffff ffff 			; <UNDEFINED> instruction: 0xffffffff
    ca00:	ffff ffff 			; <UNDEFINED> instruction: 0xffffffff
    ca04:	ffff ffff 			; <UNDEFINED> instruction: 0xffffffff
    ca08:	ffff ffff 			; <UNDEFINED> instruction: 0xffffffff
    ca0c:	ffff ffff 			; <UNDEFINED> instruction: 0xffffffff
    ca10:	ffff ffff 			; <UNDEFINED> instruction: 0xffffffff
    ca14:	ffff ffff 			; <UNDEFINED> instruction: 0xffffffff
    ca18:	ffff ffff 			; <UNDEFINED> instruction: 0xffffffff
    ca1c:	ffff ffff 			; <UNDEFINED> instruction: 0xffffffff
    ca20:	ffff ffff 			; <UNDEFINED> instruction: 0xffffffff
    ca24:	ffff ffff 			; <UNDEFINED> instruction: 0xffffffff
    ca28:	ffff ffff 			; <UNDEFINED> instruction: 0xffffffff
    ca2c:	ffff ffff 			; <UNDEFINED> instruction: 0xffffffff
    ca30:	ffff ffff 			; <UNDEFINED> instruction: 0xffffffff
    ca34:	ffff ffff 			; <UNDEFINED> instruction: 0xffffffff
    ca38:	ffff ffff 			; <UNDEFINED> instruction: 0xffffffff
    ca3c:	ffff ffff 			; <UNDEFINED> instruction: 0xffffffff
    ca40:	ffff ffff 			; <UNDEFINED> instruction: 0xffffffff
    ca44:	ffff ffff 			; <UNDEFINED> instruction: 0xffffffff
    ca48:	ffff ffff 			; <UNDEFINED> instruction: 0xffffffff
    ca4c:	ffff ffff 			; <UNDEFINED> instruction: 0xffffffff
    ca50:	ffff ffff 			; <UNDEFINED> instruction: 0xffffffff
    ca54:	ffff ffff 			; <UNDEFINED> instruction: 0xffffffff
    ca58:	ffff ffff 			; <UNDEFINED> instruction: 0xffffffff
    ca5c:	ffff ffff 			; <UNDEFINED> instruction: 0xffffffff
    ca60:	ffff ffff 			; <UNDEFINED> instruction: 0xffffffff
    ca64:	ffff ffff 			; <UNDEFINED> instruction: 0xffffffff
    ca68:	ffff ffff 			; <UNDEFINED> instruction: 0xffffffff
    ca6c:	ffff ffff 			; <UNDEFINED> instruction: 0xffffffff
    ca70:	ffff ffff 			; <UNDEFINED> instruction: 0xffffffff
    ca74:	ffff ffff 			; <UNDEFINED> instruction: 0xffffffff
    ca78:	ffff ffff 			; <UNDEFINED> instruction: 0xffffffff
    ca7c:	ffff ffff 			; <UNDEFINED> instruction: 0xffffffff
    ca80:	ffff ffff 			; <UNDEFINED> instruction: 0xffffffff
    ca84:	ffff ffff 			; <UNDEFINED> instruction: 0xffffffff
    ca88:	ffff ffff 			; <UNDEFINED> instruction: 0xffffffff
    ca8c:	ffff ffff 			; <UNDEFINED> instruction: 0xffffffff
    ca90:	ffff ffff 			; <UNDEFINED> instruction: 0xffffffff
    ca94:	ffff ffff 			; <UNDEFINED> instruction: 0xffffffff
    ca98:	ffff ffff 			; <UNDEFINED> instruction: 0xffffffff
    ca9c:	ffff ffff 			; <UNDEFINED> instruction: 0xffffffff
    caa0:	ffff ffff 			; <UNDEFINED> instruction: 0xffffffff
    caa4:	ffff ffff 			; <UNDEFINED> instruction: 0xffffffff
    caa8:	ffff ffff 			; <UNDEFINED> instruction: 0xffffffff
    caac:	ffff ffff 			; <UNDEFINED> instruction: 0xffffffff
    cab0:	ffff ffff 			; <UNDEFINED> instruction: 0xffffffff
    cab4:	ffff ffff 			; <UNDEFINED> instruction: 0xffffffff
    cab8:	ffff ffff 			; <UNDEFINED> instruction: 0xffffffff
    cabc:	ffff ffff 			; <UNDEFINED> instruction: 0xffffffff
    cac0:	ffff ffff 			; <UNDEFINED> instruction: 0xffffffff
    cac4:	ffff ffff 			; <UNDEFINED> instruction: 0xffffffff
    cac8:	ffff ffff 			; <UNDEFINED> instruction: 0xffffffff
    cacc:	ffff ffff 			; <UNDEFINED> instruction: 0xffffffff
    cad0:	ffff ffff 			; <UNDEFINED> instruction: 0xffffffff
    cad4:	ffff ffff 			; <UNDEFINED> instruction: 0xffffffff
    cad8:	ffff ffff 			; <UNDEFINED> instruction: 0xffffffff
    cadc:	ffff ffff 			; <UNDEFINED> instruction: 0xffffffff
    cae0:	ffff ffff 			; <UNDEFINED> instruction: 0xffffffff
    cae4:	ffff ffff 			; <UNDEFINED> instruction: 0xffffffff
    cae8:	ffff ffff 			; <UNDEFINED> instruction: 0xffffffff
    caec:	ffff ffff 			; <UNDEFINED> instruction: 0xffffffff
    caf0:	ffff ffff 			; <UNDEFINED> instruction: 0xffffffff
    caf4:	ffff ffff 			; <UNDEFINED> instruction: 0xffffffff
    caf8:	ffff ffff 			; <UNDEFINED> instruction: 0xffffffff
    cafc:	ffff ffff 			; <UNDEFINED> instruction: 0xffffffff
    cb00:	ffff ffff 			; <UNDEFINED> instruction: 0xffffffff
    cb04:	ffff ffff 			; <UNDEFINED> instruction: 0xffffffff
    cb08:	ffff ffff 			; <UNDEFINED> instruction: 0xffffffff
    cb0c:	ffff ffff 			; <UNDEFINED> instruction: 0xffffffff
    cb10:	ffff ffff 			; <UNDEFINED> instruction: 0xffffffff
    cb14:	ffff ffff 			; <UNDEFINED> instruction: 0xffffffff
    cb18:	ffff ffff 			; <UNDEFINED> instruction: 0xffffffff
    cb1c:	ffff ffff 			; <UNDEFINED> instruction: 0xffffffff
    cb20:	ffff ffff 			; <UNDEFINED> instruction: 0xffffffff
    cb24:	ffff ffff 			; <UNDEFINED> instruction: 0xffffffff
    cb28:	ffff ffff 			; <UNDEFINED> instruction: 0xffffffff
    cb2c:	ffff ffff 			; <UNDEFINED> instruction: 0xffffffff
    cb30:	ffff ffff 			; <UNDEFINED> instruction: 0xffffffff
    cb34:	ffff ffff 			; <UNDEFINED> instruction: 0xffffffff
    cb38:	ffff ffff 			; <UNDEFINED> instruction: 0xffffffff
    cb3c:	ffff ffff 			; <UNDEFINED> instruction: 0xffffffff
    cb40:	ffff ffff 			; <UNDEFINED> instruction: 0xffffffff
    cb44:	ffff ffff 			; <UNDEFINED> instruction: 0xffffffff
    cb48:	ffff ffff 			; <UNDEFINED> instruction: 0xffffffff
    cb4c:	ffff ffff 			; <UNDEFINED> instruction: 0xffffffff
    cb50:	ffff ffff 			; <UNDEFINED> instruction: 0xffffffff
    cb54:	ffff ffff 			; <UNDEFINED> instruction: 0xffffffff
    cb58:	ffff ffff 			; <UNDEFINED> instruction: 0xffffffff
    cb5c:	ffff ffff 			; <UNDEFINED> instruction: 0xffffffff
    cb60:	ffff ffff 			; <UNDEFINED> instruction: 0xffffffff
    cb64:	ffff ffff 			; <UNDEFINED> instruction: 0xffffffff
    cb68:	ffff ffff 			; <UNDEFINED> instruction: 0xffffffff
    cb6c:	ffff ffff 			; <UNDEFINED> instruction: 0xffffffff
    cb70:	ffff ffff 			; <UNDEFINED> instruction: 0xffffffff
    cb74:	ffff ffff 			; <UNDEFINED> instruction: 0xffffffff
    cb78:	ffff ffff 			; <UNDEFINED> instruction: 0xffffffff
    cb7c:	ffff ffff 			; <UNDEFINED> instruction: 0xffffffff
    cb80:	ffff ffff 			; <UNDEFINED> instruction: 0xffffffff
    cb84:	ffff ffff 			; <UNDEFINED> instruction: 0xffffffff
    cb88:	ffff ffff 			; <UNDEFINED> instruction: 0xffffffff
    cb8c:	ffff ffff 			; <UNDEFINED> instruction: 0xffffffff
    cb90:	ffff ffff 			; <UNDEFINED> instruction: 0xffffffff
    cb94:	ffff ffff 			; <UNDEFINED> instruction: 0xffffffff
    cb98:	ffff ffff 			; <UNDEFINED> instruction: 0xffffffff
    cb9c:	ffff ffff 			; <UNDEFINED> instruction: 0xffffffff
    cba0:	ffff ffff 			; <UNDEFINED> instruction: 0xffffffff
    cba4:	ffff ffff 			; <UNDEFINED> instruction: 0xffffffff
    cba8:	ffff ffff 			; <UNDEFINED> instruction: 0xffffffff
    cbac:	ffff ffff 			; <UNDEFINED> instruction: 0xffffffff
    cbb0:	ffff ffff 			; <UNDEFINED> instruction: 0xffffffff
    cbb4:	ffff ffff 			; <UNDEFINED> instruction: 0xffffffff
    cbb8:	ffff ffff 			; <UNDEFINED> instruction: 0xffffffff
    cbbc:	ffff ffff 			; <UNDEFINED> instruction: 0xffffffff
    cbc0:	ffff ffff 			; <UNDEFINED> instruction: 0xffffffff
    cbc4:	ffff ffff 			; <UNDEFINED> instruction: 0xffffffff
    cbc8:	ffff ffff 			; <UNDEFINED> instruction: 0xffffffff
    cbcc:	ffff ffff 			; <UNDEFINED> instruction: 0xffffffff
    cbd0:	ffff ffff 			; <UNDEFINED> instruction: 0xffffffff
    cbd4:	ffff ffff 			; <UNDEFINED> instruction: 0xffffffff
    cbd8:	ffff ffff 			; <UNDEFINED> instruction: 0xffffffff
    cbdc:	ffff ffff 			; <UNDEFINED> instruction: 0xffffffff
    cbe0:	ffff ffff 			; <UNDEFINED> instruction: 0xffffffff
    cbe4:	ffff ffff 			; <UNDEFINED> instruction: 0xffffffff
    cbe8:	ffff ffff 			; <UNDEFINED> instruction: 0xffffffff
    cbec:	ffff ffff 			; <UNDEFINED> instruction: 0xffffffff
    cbf0:	ffff ffff 			; <UNDEFINED> instruction: 0xffffffff
    cbf4:	ffff ffff 			; <UNDEFINED> instruction: 0xffffffff
    cbf8:	ffff ffff 			; <UNDEFINED> instruction: 0xffffffff
    cbfc:	ffff ffff 			; <UNDEFINED> instruction: 0xffffffff
    cc00:	ffff ffff 			; <UNDEFINED> instruction: 0xffffffff
    cc04:	ffff ffff 			; <UNDEFINED> instruction: 0xffffffff
    cc08:	ffff ffff 			; <UNDEFINED> instruction: 0xffffffff
    cc0c:	ffff ffff 			; <UNDEFINED> instruction: 0xffffffff
    cc10:	ffff ffff 			; <UNDEFINED> instruction: 0xffffffff
    cc14:	ffff ffff 			; <UNDEFINED> instruction: 0xffffffff
    cc18:	ffff ffff 			; <UNDEFINED> instruction: 0xffffffff
    cc1c:	ffff ffff 			; <UNDEFINED> instruction: 0xffffffff
    cc20:	ffff ffff 			; <UNDEFINED> instruction: 0xffffffff
    cc24:	ffff ffff 			; <UNDEFINED> instruction: 0xffffffff
    cc28:	ffff ffff 			; <UNDEFINED> instruction: 0xffffffff
    cc2c:	ffff ffff 			; <UNDEFINED> instruction: 0xffffffff
    cc30:	ffff ffff 			; <UNDEFINED> instruction: 0xffffffff
    cc34:	ffff ffff 			; <UNDEFINED> instruction: 0xffffffff
    cc38:	ffff ffff 			; <UNDEFINED> instruction: 0xffffffff
    cc3c:	ffff ffff 			; <UNDEFINED> instruction: 0xffffffff
    cc40:	ffff ffff 			; <UNDEFINED> instruction: 0xffffffff
    cc44:	ffff ffff 			; <UNDEFINED> instruction: 0xffffffff
    cc48:	ffff ffff 			; <UNDEFINED> instruction: 0xffffffff
    cc4c:	ffff ffff 			; <UNDEFINED> instruction: 0xffffffff
    cc50:	ffff ffff 			; <UNDEFINED> instruction: 0xffffffff
    cc54:	ffff ffff 			; <UNDEFINED> instruction: 0xffffffff
    cc58:	ffff ffff 			; <UNDEFINED> instruction: 0xffffffff
    cc5c:	ffff ffff 			; <UNDEFINED> instruction: 0xffffffff
    cc60:	ffff ffff 			; <UNDEFINED> instruction: 0xffffffff
    cc64:	ffff ffff 			; <UNDEFINED> instruction: 0xffffffff
    cc68:	ffff ffff 			; <UNDEFINED> instruction: 0xffffffff
    cc6c:	ffff ffff 			; <UNDEFINED> instruction: 0xffffffff
    cc70:	ffff ffff 			; <UNDEFINED> instruction: 0xffffffff
    cc74:	ffff ffff 			; <UNDEFINED> instruction: 0xffffffff
    cc78:	ffff ffff 			; <UNDEFINED> instruction: 0xffffffff
    cc7c:	ffff ffff 			; <UNDEFINED> instruction: 0xffffffff
    cc80:	ffff ffff 			; <UNDEFINED> instruction: 0xffffffff
    cc84:	ffff ffff 			; <UNDEFINED> instruction: 0xffffffff
    cc88:	ffff ffff 			; <UNDEFINED> instruction: 0xffffffff
    cc8c:	ffff ffff 			; <UNDEFINED> instruction: 0xffffffff
    cc90:	ffff ffff 			; <UNDEFINED> instruction: 0xffffffff
    cc94:	ffff ffff 			; <UNDEFINED> instruction: 0xffffffff
    cc98:	ffff ffff 			; <UNDEFINED> instruction: 0xffffffff
    cc9c:	ffff ffff 			; <UNDEFINED> instruction: 0xffffffff
    cca0:	ffff ffff 			; <UNDEFINED> instruction: 0xffffffff
    cca4:	ffff ffff 			; <UNDEFINED> instruction: 0xffffffff
    cca8:	ffff ffff 			; <UNDEFINED> instruction: 0xffffffff
    ccac:	ffff ffff 			; <UNDEFINED> instruction: 0xffffffff
    ccb0:	ffff ffff 			; <UNDEFINED> instruction: 0xffffffff
    ccb4:	ffff ffff 			; <UNDEFINED> instruction: 0xffffffff
    ccb8:	ffff ffff 			; <UNDEFINED> instruction: 0xffffffff
    ccbc:	ffff ffff 			; <UNDEFINED> instruction: 0xffffffff
    ccc0:	ffff ffff 			; <UNDEFINED> instruction: 0xffffffff
    ccc4:	ffff ffff 			; <UNDEFINED> instruction: 0xffffffff
    ccc8:	ffff ffff 			; <UNDEFINED> instruction: 0xffffffff
    cccc:	ffff ffff 			; <UNDEFINED> instruction: 0xffffffff
    ccd0:	ffff ffff 			; <UNDEFINED> instruction: 0xffffffff
    ccd4:	ffff ffff 			; <UNDEFINED> instruction: 0xffffffff
    ccd8:	ffff ffff 			; <UNDEFINED> instruction: 0xffffffff
    ccdc:	ffff ffff 			; <UNDEFINED> instruction: 0xffffffff
    cce0:	ffff ffff 			; <UNDEFINED> instruction: 0xffffffff
    cce4:	ffff ffff 			; <UNDEFINED> instruction: 0xffffffff
    cce8:	ffff ffff 			; <UNDEFINED> instruction: 0xffffffff
    ccec:	ffff ffff 			; <UNDEFINED> instruction: 0xffffffff
    ccf0:	ffff ffff 			; <UNDEFINED> instruction: 0xffffffff
    ccf4:	ffff ffff 			; <UNDEFINED> instruction: 0xffffffff
    ccf8:	ffff ffff 			; <UNDEFINED> instruction: 0xffffffff
    ccfc:	ffff ffff 			; <UNDEFINED> instruction: 0xffffffff
    cd00:	ffff ffff 			; <UNDEFINED> instruction: 0xffffffff
    cd04:	ffff ffff 			; <UNDEFINED> instruction: 0xffffffff
    cd08:	ffff ffff 			; <UNDEFINED> instruction: 0xffffffff
    cd0c:	ffff ffff 			; <UNDEFINED> instruction: 0xffffffff
    cd10:	ffff ffff 			; <UNDEFINED> instruction: 0xffffffff
    cd14:	ffff ffff 			; <UNDEFINED> instruction: 0xffffffff
    cd18:	ffff ffff 			; <UNDEFINED> instruction: 0xffffffff
    cd1c:	ffff ffff 			; <UNDEFINED> instruction: 0xffffffff
    cd20:	ffff ffff 			; <UNDEFINED> instruction: 0xffffffff
    cd24:	ffff ffff 			; <UNDEFINED> instruction: 0xffffffff
    cd28:	ffff ffff 			; <UNDEFINED> instruction: 0xffffffff
    cd2c:	ffff ffff 			; <UNDEFINED> instruction: 0xffffffff
    cd30:	ffff ffff 			; <UNDEFINED> instruction: 0xffffffff
    cd34:	ffff ffff 			; <UNDEFINED> instruction: 0xffffffff
    cd38:	ffff ffff 			; <UNDEFINED> instruction: 0xffffffff
    cd3c:	ffff ffff 			; <UNDEFINED> instruction: 0xffffffff
    cd40:	ffff ffff 			; <UNDEFINED> instruction: 0xffffffff
    cd44:	ffff ffff 			; <UNDEFINED> instruction: 0xffffffff
    cd48:	ffff ffff 			; <UNDEFINED> instruction: 0xffffffff
    cd4c:	ffff ffff 			; <UNDEFINED> instruction: 0xffffffff
    cd50:	ffff ffff 			; <UNDEFINED> instruction: 0xffffffff
    cd54:	ffff ffff 			; <UNDEFINED> instruction: 0xffffffff
    cd58:	ffff ffff 			; <UNDEFINED> instruction: 0xffffffff
    cd5c:	ffff ffff 			; <UNDEFINED> instruction: 0xffffffff
    cd60:	ffff ffff 			; <UNDEFINED> instruction: 0xffffffff
    cd64:	ffff ffff 			; <UNDEFINED> instruction: 0xffffffff
    cd68:	ffff ffff 			; <UNDEFINED> instruction: 0xffffffff
    cd6c:	ffff ffff 			; <UNDEFINED> instruction: 0xffffffff
    cd70:	ffff ffff 			; <UNDEFINED> instruction: 0xffffffff
    cd74:	ffff ffff 			; <UNDEFINED> instruction: 0xffffffff
    cd78:	ffff ffff 			; <UNDEFINED> instruction: 0xffffffff
    cd7c:	ffff ffff 			; <UNDEFINED> instruction: 0xffffffff
    cd80:	ffff ffff 			; <UNDEFINED> instruction: 0xffffffff
    cd84:	ffff ffff 			; <UNDEFINED> instruction: 0xffffffff
    cd88:	ffff ffff 			; <UNDEFINED> instruction: 0xffffffff
    cd8c:	ffff ffff 			; <UNDEFINED> instruction: 0xffffffff
    cd90:	ffff ffff 			; <UNDEFINED> instruction: 0xffffffff
    cd94:	ffff ffff 			; <UNDEFINED> instruction: 0xffffffff
    cd98:	ffff ffff 			; <UNDEFINED> instruction: 0xffffffff
    cd9c:	ffff ffff 			; <UNDEFINED> instruction: 0xffffffff
    cda0:	ffff ffff 			; <UNDEFINED> instruction: 0xffffffff
    cda4:	ffff ffff 			; <UNDEFINED> instruction: 0xffffffff
    cda8:	ffff ffff 			; <UNDEFINED> instruction: 0xffffffff
    cdac:	ffff ffff 			; <UNDEFINED> instruction: 0xffffffff
    cdb0:	ffff ffff 			; <UNDEFINED> instruction: 0xffffffff
    cdb4:	ffff ffff 			; <UNDEFINED> instruction: 0xffffffff
    cdb8:	ffff ffff 			; <UNDEFINED> instruction: 0xffffffff
    cdbc:	ffff ffff 			; <UNDEFINED> instruction: 0xffffffff
    cdc0:	ffff ffff 			; <UNDEFINED> instruction: 0xffffffff
    cdc4:	ffff ffff 			; <UNDEFINED> instruction: 0xffffffff
    cdc8:	ffff ffff 			; <UNDEFINED> instruction: 0xffffffff
    cdcc:	ffff ffff 			; <UNDEFINED> instruction: 0xffffffff
    cdd0:	ffff ffff 			; <UNDEFINED> instruction: 0xffffffff
    cdd4:	ffff ffff 			; <UNDEFINED> instruction: 0xffffffff
    cdd8:	ffff ffff 			; <UNDEFINED> instruction: 0xffffffff
    cddc:	ffff ffff 			; <UNDEFINED> instruction: 0xffffffff
    cde0:	ffff ffff 			; <UNDEFINED> instruction: 0xffffffff
    cde4:	ffff ffff 			; <UNDEFINED> instruction: 0xffffffff
    cde8:	ffff ffff 			; <UNDEFINED> instruction: 0xffffffff
    cdec:	ffff ffff 			; <UNDEFINED> instruction: 0xffffffff
    cdf0:	ffff ffff 			; <UNDEFINED> instruction: 0xffffffff
    cdf4:	ffff ffff 			; <UNDEFINED> instruction: 0xffffffff
    cdf8:	ffff ffff 			; <UNDEFINED> instruction: 0xffffffff
    cdfc:	ffff ffff 			; <UNDEFINED> instruction: 0xffffffff
    ce00:	ffff ffff 			; <UNDEFINED> instruction: 0xffffffff
    ce04:	ffff ffff 			; <UNDEFINED> instruction: 0xffffffff
    ce08:	ffff ffff 			; <UNDEFINED> instruction: 0xffffffff
    ce0c:	ffff ffff 			; <UNDEFINED> instruction: 0xffffffff
    ce10:	ffff ffff 			; <UNDEFINED> instruction: 0xffffffff
    ce14:	ffff ffff 			; <UNDEFINED> instruction: 0xffffffff
    ce18:	ffff ffff 			; <UNDEFINED> instruction: 0xffffffff
    ce1c:	ffff ffff 			; <UNDEFINED> instruction: 0xffffffff
    ce20:	ffff ffff 			; <UNDEFINED> instruction: 0xffffffff
    ce24:	ffff ffff 			; <UNDEFINED> instruction: 0xffffffff
    ce28:	ffff ffff 			; <UNDEFINED> instruction: 0xffffffff
    ce2c:	ffff ffff 			; <UNDEFINED> instruction: 0xffffffff
    ce30:	ffff ffff 			; <UNDEFINED> instruction: 0xffffffff
    ce34:	ffff ffff 			; <UNDEFINED> instruction: 0xffffffff
    ce38:	ffff ffff 			; <UNDEFINED> instruction: 0xffffffff
    ce3c:	ffff ffff 			; <UNDEFINED> instruction: 0xffffffff
    ce40:	ffff ffff 			; <UNDEFINED> instruction: 0xffffffff
    ce44:	ffff ffff 			; <UNDEFINED> instruction: 0xffffffff
    ce48:	ffff ffff 			; <UNDEFINED> instruction: 0xffffffff
    ce4c:	ffff ffff 			; <UNDEFINED> instruction: 0xffffffff
    ce50:	ffff ffff 			; <UNDEFINED> instruction: 0xffffffff
    ce54:	ffff ffff 			; <UNDEFINED> instruction: 0xffffffff
    ce58:	ffff ffff 			; <UNDEFINED> instruction: 0xffffffff
    ce5c:	ffff ffff 			; <UNDEFINED> instruction: 0xffffffff
    ce60:	ffff ffff 			; <UNDEFINED> instruction: 0xffffffff
    ce64:	ffff ffff 			; <UNDEFINED> instruction: 0xffffffff
    ce68:	ffff ffff 			; <UNDEFINED> instruction: 0xffffffff
    ce6c:	ffff ffff 			; <UNDEFINED> instruction: 0xffffffff
    ce70:	ffff ffff 			; <UNDEFINED> instruction: 0xffffffff
    ce74:	ffff ffff 			; <UNDEFINED> instruction: 0xffffffff
    ce78:	ffff ffff 			; <UNDEFINED> instruction: 0xffffffff
    ce7c:	ffff ffff 			; <UNDEFINED> instruction: 0xffffffff
    ce80:	ffff ffff 			; <UNDEFINED> instruction: 0xffffffff
    ce84:	ffff ffff 			; <UNDEFINED> instruction: 0xffffffff
    ce88:	ffff ffff 			; <UNDEFINED> instruction: 0xffffffff
    ce8c:	ffff ffff 			; <UNDEFINED> instruction: 0xffffffff
    ce90:	ffff ffff 			; <UNDEFINED> instruction: 0xffffffff
    ce94:	ffff ffff 			; <UNDEFINED> instruction: 0xffffffff
    ce98:	ffff ffff 			; <UNDEFINED> instruction: 0xffffffff
    ce9c:	ffff ffff 			; <UNDEFINED> instruction: 0xffffffff
    cea0:	ffff ffff 			; <UNDEFINED> instruction: 0xffffffff
    cea4:	ffff ffff 			; <UNDEFINED> instruction: 0xffffffff
    cea8:	ffff ffff 			; <UNDEFINED> instruction: 0xffffffff
    ceac:	ffff ffff 			; <UNDEFINED> instruction: 0xffffffff
    ceb0:	ffff ffff 			; <UNDEFINED> instruction: 0xffffffff
    ceb4:	ffff ffff 			; <UNDEFINED> instruction: 0xffffffff
    ceb8:	ffff ffff 			; <UNDEFINED> instruction: 0xffffffff
    cebc:	ffff ffff 			; <UNDEFINED> instruction: 0xffffffff
    cec0:	ffff ffff 			; <UNDEFINED> instruction: 0xffffffff
    cec4:	ffff ffff 			; <UNDEFINED> instruction: 0xffffffff
    cec8:	ffff ffff 			; <UNDEFINED> instruction: 0xffffffff
    cecc:	ffff ffff 			; <UNDEFINED> instruction: 0xffffffff
    ced0:	ffff ffff 			; <UNDEFINED> instruction: 0xffffffff
    ced4:	ffff ffff 			; <UNDEFINED> instruction: 0xffffffff
    ced8:	ffff ffff 			; <UNDEFINED> instruction: 0xffffffff
    cedc:	ffff ffff 			; <UNDEFINED> instruction: 0xffffffff
    cee0:	ffff ffff 			; <UNDEFINED> instruction: 0xffffffff
    cee4:	ffff ffff 			; <UNDEFINED> instruction: 0xffffffff
    cee8:	ffff ffff 			; <UNDEFINED> instruction: 0xffffffff
    ceec:	ffff ffff 			; <UNDEFINED> instruction: 0xffffffff
    cef0:	ffff ffff 			; <UNDEFINED> instruction: 0xffffffff
    cef4:	ffff ffff 			; <UNDEFINED> instruction: 0xffffffff
    cef8:	ffff ffff 			; <UNDEFINED> instruction: 0xffffffff
    cefc:	ffff ffff 			; <UNDEFINED> instruction: 0xffffffff
    cf00:	ffff ffff 			; <UNDEFINED> instruction: 0xffffffff
    cf04:	ffff ffff 			; <UNDEFINED> instruction: 0xffffffff
    cf08:	ffff ffff 			; <UNDEFINED> instruction: 0xffffffff
    cf0c:	ffff ffff 			; <UNDEFINED> instruction: 0xffffffff
    cf10:	ffff ffff 			; <UNDEFINED> instruction: 0xffffffff
    cf14:	ffff ffff 			; <UNDEFINED> instruction: 0xffffffff
    cf18:	ffff ffff 			; <UNDEFINED> instruction: 0xffffffff
    cf1c:	ffff ffff 			; <UNDEFINED> instruction: 0xffffffff
    cf20:	ffff ffff 			; <UNDEFINED> instruction: 0xffffffff
    cf24:	ffff ffff 			; <UNDEFINED> instruction: 0xffffffff
    cf28:	ffff ffff 			; <UNDEFINED> instruction: 0xffffffff
    cf2c:	ffff ffff 			; <UNDEFINED> instruction: 0xffffffff
    cf30:	ffff ffff 			; <UNDEFINED> instruction: 0xffffffff
    cf34:	ffff ffff 			; <UNDEFINED> instruction: 0xffffffff
    cf38:	ffff ffff 			; <UNDEFINED> instruction: 0xffffffff
    cf3c:	ffff ffff 			; <UNDEFINED> instruction: 0xffffffff
    cf40:	ffff ffff 			; <UNDEFINED> instruction: 0xffffffff
    cf44:	ffff ffff 			; <UNDEFINED> instruction: 0xffffffff
    cf48:	ffff ffff 			; <UNDEFINED> instruction: 0xffffffff
    cf4c:	ffff ffff 			; <UNDEFINED> instruction: 0xffffffff
    cf50:	ffff ffff 			; <UNDEFINED> instruction: 0xffffffff
    cf54:	ffff ffff 			; <UNDEFINED> instruction: 0xffffffff
    cf58:	ffff ffff 			; <UNDEFINED> instruction: 0xffffffff
    cf5c:	ffff ffff 			; <UNDEFINED> instruction: 0xffffffff
    cf60:	ffff ffff 			; <UNDEFINED> instruction: 0xffffffff
    cf64:	ffff ffff 			; <UNDEFINED> instruction: 0xffffffff
    cf68:	ffff ffff 			; <UNDEFINED> instruction: 0xffffffff
    cf6c:	ffff ffff 			; <UNDEFINED> instruction: 0xffffffff
    cf70:	ffff ffff 			; <UNDEFINED> instruction: 0xffffffff
    cf74:	ffff ffff 			; <UNDEFINED> instruction: 0xffffffff
    cf78:	ffff ffff 			; <UNDEFINED> instruction: 0xffffffff
    cf7c:	ffff ffff 			; <UNDEFINED> instruction: 0xffffffff
    cf80:	ffff ffff 			; <UNDEFINED> instruction: 0xffffffff
    cf84:	ffff ffff 			; <UNDEFINED> instruction: 0xffffffff
    cf88:	ffff ffff 			; <UNDEFINED> instruction: 0xffffffff
    cf8c:	ffff ffff 			; <UNDEFINED> instruction: 0xffffffff
    cf90:	ffff ffff 			; <UNDEFINED> instruction: 0xffffffff
    cf94:	ffff ffff 			; <UNDEFINED> instruction: 0xffffffff
    cf98:	ffff ffff 			; <UNDEFINED> instruction: 0xffffffff
    cf9c:	ffff ffff 			; <UNDEFINED> instruction: 0xffffffff
    cfa0:	ffff ffff 			; <UNDEFINED> instruction: 0xffffffff
    cfa4:	ffff ffff 			; <UNDEFINED> instruction: 0xffffffff
    cfa8:	ffff ffff 			; <UNDEFINED> instruction: 0xffffffff
    cfac:	ffff ffff 			; <UNDEFINED> instruction: 0xffffffff
    cfb0:	ffff ffff 			; <UNDEFINED> instruction: 0xffffffff
    cfb4:	ffff ffff 			; <UNDEFINED> instruction: 0xffffffff
    cfb8:	ffff ffff 			; <UNDEFINED> instruction: 0xffffffff
    cfbc:	ffff ffff 			; <UNDEFINED> instruction: 0xffffffff
    cfc0:	ffff ffff 			; <UNDEFINED> instruction: 0xffffffff
    cfc4:	ffff ffff 			; <UNDEFINED> instruction: 0xffffffff
    cfc8:	ffff ffff 			; <UNDEFINED> instruction: 0xffffffff
    cfcc:	ffff ffff 			; <UNDEFINED> instruction: 0xffffffff
    cfd0:	ffff ffff 			; <UNDEFINED> instruction: 0xffffffff
    cfd4:	ffff ffff 			; <UNDEFINED> instruction: 0xffffffff
    cfd8:	ffff ffff 			; <UNDEFINED> instruction: 0xffffffff
    cfdc:	ffff ffff 			; <UNDEFINED> instruction: 0xffffffff
    cfe0:	ffff ffff 			; <UNDEFINED> instruction: 0xffffffff
    cfe4:	ffff ffff 			; <UNDEFINED> instruction: 0xffffffff
    cfe8:	ffff ffff 			; <UNDEFINED> instruction: 0xffffffff
    cfec:	ffff ffff 			; <UNDEFINED> instruction: 0xffffffff
    cff0:	ffff ffff 			; <UNDEFINED> instruction: 0xffffffff
    cff4:	ffff ffff 			; <UNDEFINED> instruction: 0xffffffff
    cff8:	ffff ffff 			; <UNDEFINED> instruction: 0xffffffff
    cffc:	ffff ffff 			; <UNDEFINED> instruction: 0xffffffff
    d000:	ffff ffff 			; <UNDEFINED> instruction: 0xffffffff
    d004:	ffff ffff 			; <UNDEFINED> instruction: 0xffffffff
    d008:	ffff ffff 			; <UNDEFINED> instruction: 0xffffffff
    d00c:	ffff ffff 			; <UNDEFINED> instruction: 0xffffffff
    d010:	ffff ffff 			; <UNDEFINED> instruction: 0xffffffff
    d014:	ffff ffff 			; <UNDEFINED> instruction: 0xffffffff
    d018:	ffff ffff 			; <UNDEFINED> instruction: 0xffffffff
    d01c:	ffff ffff 			; <UNDEFINED> instruction: 0xffffffff
    d020:	ffff ffff 			; <UNDEFINED> instruction: 0xffffffff
    d024:	ffff ffff 			; <UNDEFINED> instruction: 0xffffffff
    d028:	ffff ffff 			; <UNDEFINED> instruction: 0xffffffff
    d02c:	ffff ffff 			; <UNDEFINED> instruction: 0xffffffff
    d030:	ffff ffff 			; <UNDEFINED> instruction: 0xffffffff
    d034:	ffff ffff 			; <UNDEFINED> instruction: 0xffffffff
    d038:	ffff ffff 			; <UNDEFINED> instruction: 0xffffffff
    d03c:	ffff ffff 			; <UNDEFINED> instruction: 0xffffffff
    d040:	ffff ffff 			; <UNDEFINED> instruction: 0xffffffff
    d044:	ffff ffff 			; <UNDEFINED> instruction: 0xffffffff
    d048:	ffff ffff 			; <UNDEFINED> instruction: 0xffffffff
    d04c:	ffff ffff 			; <UNDEFINED> instruction: 0xffffffff
    d050:	ffff ffff 			; <UNDEFINED> instruction: 0xffffffff
    d054:	ffff ffff 			; <UNDEFINED> instruction: 0xffffffff
    d058:	ffff ffff 			; <UNDEFINED> instruction: 0xffffffff
    d05c:	ffff ffff 			; <UNDEFINED> instruction: 0xffffffff
    d060:	ffff ffff 			; <UNDEFINED> instruction: 0xffffffff
    d064:	ffff ffff 			; <UNDEFINED> instruction: 0xffffffff
    d068:	ffff ffff 			; <UNDEFINED> instruction: 0xffffffff
    d06c:	ffff ffff 			; <UNDEFINED> instruction: 0xffffffff
    d070:	ffff ffff 			; <UNDEFINED> instruction: 0xffffffff
    d074:	ffff ffff 			; <UNDEFINED> instruction: 0xffffffff
    d078:	ffff ffff 			; <UNDEFINED> instruction: 0xffffffff
    d07c:	ffff ffff 			; <UNDEFINED> instruction: 0xffffffff
    d080:	ffff ffff 			; <UNDEFINED> instruction: 0xffffffff
    d084:	ffff ffff 			; <UNDEFINED> instruction: 0xffffffff
    d088:	ffff ffff 			; <UNDEFINED> instruction: 0xffffffff
    d08c:	ffff ffff 			; <UNDEFINED> instruction: 0xffffffff
    d090:	ffff ffff 			; <UNDEFINED> instruction: 0xffffffff
    d094:	ffff ffff 			; <UNDEFINED> instruction: 0xffffffff
    d098:	ffff ffff 			; <UNDEFINED> instruction: 0xffffffff
    d09c:	ffff ffff 			; <UNDEFINED> instruction: 0xffffffff
    d0a0:	ffff ffff 			; <UNDEFINED> instruction: 0xffffffff
    d0a4:	ffff ffff 			; <UNDEFINED> instruction: 0xffffffff
    d0a8:	ffff ffff 			; <UNDEFINED> instruction: 0xffffffff
    d0ac:	ffff ffff 			; <UNDEFINED> instruction: 0xffffffff
    d0b0:	ffff ffff 			; <UNDEFINED> instruction: 0xffffffff
    d0b4:	ffff ffff 			; <UNDEFINED> instruction: 0xffffffff
    d0b8:	ffff ffff 			; <UNDEFINED> instruction: 0xffffffff
    d0bc:	ffff ffff 			; <UNDEFINED> instruction: 0xffffffff
    d0c0:	ffff ffff 			; <UNDEFINED> instruction: 0xffffffff
    d0c4:	ffff ffff 			; <UNDEFINED> instruction: 0xffffffff
    d0c8:	ffff ffff 			; <UNDEFINED> instruction: 0xffffffff
    d0cc:	ffff ffff 			; <UNDEFINED> instruction: 0xffffffff
    d0d0:	ffff ffff 			; <UNDEFINED> instruction: 0xffffffff
    d0d4:	ffff ffff 			; <UNDEFINED> instruction: 0xffffffff
    d0d8:	ffff ffff 			; <UNDEFINED> instruction: 0xffffffff
    d0dc:	ffff ffff 			; <UNDEFINED> instruction: 0xffffffff
    d0e0:	ffff ffff 			; <UNDEFINED> instruction: 0xffffffff
    d0e4:	ffff ffff 			; <UNDEFINED> instruction: 0xffffffff
    d0e8:	ffff ffff 			; <UNDEFINED> instruction: 0xffffffff
    d0ec:	ffff ffff 			; <UNDEFINED> instruction: 0xffffffff
    d0f0:	ffff ffff 			; <UNDEFINED> instruction: 0xffffffff
    d0f4:	ffff ffff 			; <UNDEFINED> instruction: 0xffffffff
    d0f8:	ffff ffff 			; <UNDEFINED> instruction: 0xffffffff
    d0fc:	ffff ffff 			; <UNDEFINED> instruction: 0xffffffff
    d100:	ffff ffff 			; <UNDEFINED> instruction: 0xffffffff
    d104:	ffff ffff 			; <UNDEFINED> instruction: 0xffffffff
    d108:	ffff ffff 			; <UNDEFINED> instruction: 0xffffffff
    d10c:	ffff ffff 			; <UNDEFINED> instruction: 0xffffffff
    d110:	ffff ffff 			; <UNDEFINED> instruction: 0xffffffff
    d114:	ffff ffff 			; <UNDEFINED> instruction: 0xffffffff
    d118:	ffff ffff 			; <UNDEFINED> instruction: 0xffffffff
    d11c:	ffff ffff 			; <UNDEFINED> instruction: 0xffffffff
    d120:	ffff ffff 			; <UNDEFINED> instruction: 0xffffffff
    d124:	ffff ffff 			; <UNDEFINED> instruction: 0xffffffff
    d128:	ffff ffff 			; <UNDEFINED> instruction: 0xffffffff
    d12c:	ffff ffff 			; <UNDEFINED> instruction: 0xffffffff
    d130:	ffff ffff 			; <UNDEFINED> instruction: 0xffffffff
    d134:	ffff ffff 			; <UNDEFINED> instruction: 0xffffffff
    d138:	ffff ffff 			; <UNDEFINED> instruction: 0xffffffff
    d13c:	ffff ffff 			; <UNDEFINED> instruction: 0xffffffff
    d140:	ffff ffff 			; <UNDEFINED> instruction: 0xffffffff
    d144:	ffff ffff 			; <UNDEFINED> instruction: 0xffffffff
    d148:	ffff ffff 			; <UNDEFINED> instruction: 0xffffffff
    d14c:	ffff ffff 			; <UNDEFINED> instruction: 0xffffffff
    d150:	ffff ffff 			; <UNDEFINED> instruction: 0xffffffff
    d154:	ffff ffff 			; <UNDEFINED> instruction: 0xffffffff
    d158:	ffff ffff 			; <UNDEFINED> instruction: 0xffffffff
    d15c:	ffff ffff 			; <UNDEFINED> instruction: 0xffffffff
    d160:	ffff ffff 			; <UNDEFINED> instruction: 0xffffffff
    d164:	ffff ffff 			; <UNDEFINED> instruction: 0xffffffff
    d168:	ffff ffff 			; <UNDEFINED> instruction: 0xffffffff
    d16c:	ffff ffff 			; <UNDEFINED> instruction: 0xffffffff
    d170:	ffff ffff 			; <UNDEFINED> instruction: 0xffffffff
    d174:	ffff ffff 			; <UNDEFINED> instruction: 0xffffffff
    d178:	ffff ffff 			; <UNDEFINED> instruction: 0xffffffff
    d17c:	ffff ffff 			; <UNDEFINED> instruction: 0xffffffff
    d180:	ffff ffff 			; <UNDEFINED> instruction: 0xffffffff
    d184:	ffff ffff 			; <UNDEFINED> instruction: 0xffffffff
    d188:	ffff ffff 			; <UNDEFINED> instruction: 0xffffffff
    d18c:	ffff ffff 			; <UNDEFINED> instruction: 0xffffffff
    d190:	ffff ffff 			; <UNDEFINED> instruction: 0xffffffff
    d194:	ffff ffff 			; <UNDEFINED> instruction: 0xffffffff
    d198:	ffff ffff 			; <UNDEFINED> instruction: 0xffffffff
    d19c:	ffff ffff 			; <UNDEFINED> instruction: 0xffffffff
    d1a0:	ffff ffff 			; <UNDEFINED> instruction: 0xffffffff
    d1a4:	ffff ffff 			; <UNDEFINED> instruction: 0xffffffff
    d1a8:	ffff ffff 			; <UNDEFINED> instruction: 0xffffffff
    d1ac:	ffff ffff 			; <UNDEFINED> instruction: 0xffffffff
    d1b0:	ffff ffff 			; <UNDEFINED> instruction: 0xffffffff
    d1b4:	ffff ffff 			; <UNDEFINED> instruction: 0xffffffff
    d1b8:	ffff ffff 			; <UNDEFINED> instruction: 0xffffffff
    d1bc:	ffff ffff 			; <UNDEFINED> instruction: 0xffffffff
    d1c0:	ffff ffff 			; <UNDEFINED> instruction: 0xffffffff
    d1c4:	ffff ffff 			; <UNDEFINED> instruction: 0xffffffff
    d1c8:	ffff ffff 			; <UNDEFINED> instruction: 0xffffffff
    d1cc:	ffff ffff 			; <UNDEFINED> instruction: 0xffffffff
    d1d0:	ffff ffff 			; <UNDEFINED> instruction: 0xffffffff
    d1d4:	ffff ffff 			; <UNDEFINED> instruction: 0xffffffff
    d1d8:	ffff ffff 			; <UNDEFINED> instruction: 0xffffffff
    d1dc:	ffff ffff 			; <UNDEFINED> instruction: 0xffffffff
    d1e0:	ffff ffff 			; <UNDEFINED> instruction: 0xffffffff
    d1e4:	ffff ffff 			; <UNDEFINED> instruction: 0xffffffff
    d1e8:	ffff ffff 			; <UNDEFINED> instruction: 0xffffffff
    d1ec:	ffff ffff 			; <UNDEFINED> instruction: 0xffffffff
    d1f0:	ffff ffff 			; <UNDEFINED> instruction: 0xffffffff
    d1f4:	ffff ffff 			; <UNDEFINED> instruction: 0xffffffff
    d1f8:	ffff ffff 			; <UNDEFINED> instruction: 0xffffffff
    d1fc:	ffff ffff 			; <UNDEFINED> instruction: 0xffffffff
    d200:	ffff ffff 			; <UNDEFINED> instruction: 0xffffffff
    d204:	ffff ffff 			; <UNDEFINED> instruction: 0xffffffff
    d208:	ffff ffff 			; <UNDEFINED> instruction: 0xffffffff
    d20c:	ffff ffff 			; <UNDEFINED> instruction: 0xffffffff
    d210:	ffff ffff 			; <UNDEFINED> instruction: 0xffffffff
    d214:	ffff ffff 			; <UNDEFINED> instruction: 0xffffffff
    d218:	ffff ffff 			; <UNDEFINED> instruction: 0xffffffff
    d21c:	ffff ffff 			; <UNDEFINED> instruction: 0xffffffff
    d220:	ffff ffff 			; <UNDEFINED> instruction: 0xffffffff
    d224:	ffff ffff 			; <UNDEFINED> instruction: 0xffffffff
    d228:	ffff ffff 			; <UNDEFINED> instruction: 0xffffffff
    d22c:	ffff ffff 			; <UNDEFINED> instruction: 0xffffffff
    d230:	ffff ffff 			; <UNDEFINED> instruction: 0xffffffff
    d234:	ffff ffff 			; <UNDEFINED> instruction: 0xffffffff
    d238:	ffff ffff 			; <UNDEFINED> instruction: 0xffffffff
    d23c:	ffff ffff 			; <UNDEFINED> instruction: 0xffffffff
    d240:	ffff ffff 			; <UNDEFINED> instruction: 0xffffffff
    d244:	ffff ffff 			; <UNDEFINED> instruction: 0xffffffff
    d248:	ffff ffff 			; <UNDEFINED> instruction: 0xffffffff
    d24c:	ffff ffff 			; <UNDEFINED> instruction: 0xffffffff
    d250:	ffff ffff 			; <UNDEFINED> instruction: 0xffffffff
    d254:	ffff ffff 			; <UNDEFINED> instruction: 0xffffffff
    d258:	ffff ffff 			; <UNDEFINED> instruction: 0xffffffff
    d25c:	ffff ffff 			; <UNDEFINED> instruction: 0xffffffff
    d260:	ffff ffff 			; <UNDEFINED> instruction: 0xffffffff
    d264:	ffff ffff 			; <UNDEFINED> instruction: 0xffffffff
    d268:	ffff ffff 			; <UNDEFINED> instruction: 0xffffffff
    d26c:	ffff ffff 			; <UNDEFINED> instruction: 0xffffffff
    d270:	ffff ffff 			; <UNDEFINED> instruction: 0xffffffff
    d274:	ffff ffff 			; <UNDEFINED> instruction: 0xffffffff
    d278:	ffff ffff 			; <UNDEFINED> instruction: 0xffffffff
    d27c:	ffff ffff 			; <UNDEFINED> instruction: 0xffffffff
    d280:	ffff ffff 			; <UNDEFINED> instruction: 0xffffffff
    d284:	ffff ffff 			; <UNDEFINED> instruction: 0xffffffff
    d288:	ffff ffff 			; <UNDEFINED> instruction: 0xffffffff
    d28c:	ffff ffff 			; <UNDEFINED> instruction: 0xffffffff
    d290:	ffff ffff 			; <UNDEFINED> instruction: 0xffffffff
    d294:	ffff ffff 			; <UNDEFINED> instruction: 0xffffffff
    d298:	ffff ffff 			; <UNDEFINED> instruction: 0xffffffff
    d29c:	ffff ffff 			; <UNDEFINED> instruction: 0xffffffff
    d2a0:	ffff ffff 			; <UNDEFINED> instruction: 0xffffffff
    d2a4:	ffff ffff 			; <UNDEFINED> instruction: 0xffffffff
    d2a8:	ffff ffff 			; <UNDEFINED> instruction: 0xffffffff
    d2ac:	ffff ffff 			; <UNDEFINED> instruction: 0xffffffff
    d2b0:	ffff ffff 			; <UNDEFINED> instruction: 0xffffffff
    d2b4:	ffff ffff 			; <UNDEFINED> instruction: 0xffffffff
    d2b8:	ffff ffff 			; <UNDEFINED> instruction: 0xffffffff
    d2bc:	ffff ffff 			; <UNDEFINED> instruction: 0xffffffff
    d2c0:	ffff ffff 			; <UNDEFINED> instruction: 0xffffffff
    d2c4:	ffff ffff 			; <UNDEFINED> instruction: 0xffffffff
    d2c8:	ffff ffff 			; <UNDEFINED> instruction: 0xffffffff
    d2cc:	ffff ffff 			; <UNDEFINED> instruction: 0xffffffff
    d2d0:	ffff ffff 			; <UNDEFINED> instruction: 0xffffffff
    d2d4:	ffff ffff 			; <UNDEFINED> instruction: 0xffffffff
    d2d8:	ffff ffff 			; <UNDEFINED> instruction: 0xffffffff
    d2dc:	ffff ffff 			; <UNDEFINED> instruction: 0xffffffff
    d2e0:	ffff ffff 			; <UNDEFINED> instruction: 0xffffffff
    d2e4:	ffff ffff 			; <UNDEFINED> instruction: 0xffffffff
    d2e8:	ffff ffff 			; <UNDEFINED> instruction: 0xffffffff
    d2ec:	ffff ffff 			; <UNDEFINED> instruction: 0xffffffff
    d2f0:	ffff ffff 			; <UNDEFINED> instruction: 0xffffffff
    d2f4:	ffff ffff 			; <UNDEFINED> instruction: 0xffffffff
    d2f8:	ffff ffff 			; <UNDEFINED> instruction: 0xffffffff
    d2fc:	ffff ffff 			; <UNDEFINED> instruction: 0xffffffff
    d300:	ffff ffff 			; <UNDEFINED> instruction: 0xffffffff
    d304:	ffff ffff 			; <UNDEFINED> instruction: 0xffffffff
    d308:	ffff ffff 			; <UNDEFINED> instruction: 0xffffffff
    d30c:	ffff ffff 			; <UNDEFINED> instruction: 0xffffffff
    d310:	ffff ffff 			; <UNDEFINED> instruction: 0xffffffff
    d314:	ffff ffff 			; <UNDEFINED> instruction: 0xffffffff
    d318:	ffff ffff 			; <UNDEFINED> instruction: 0xffffffff
    d31c:	ffff ffff 			; <UNDEFINED> instruction: 0xffffffff
    d320:	ffff ffff 			; <UNDEFINED> instruction: 0xffffffff
    d324:	ffff ffff 			; <UNDEFINED> instruction: 0xffffffff
    d328:	ffff ffff 			; <UNDEFINED> instruction: 0xffffffff
    d32c:	ffff ffff 			; <UNDEFINED> instruction: 0xffffffff
    d330:	ffff ffff 			; <UNDEFINED> instruction: 0xffffffff
    d334:	ffff ffff 			; <UNDEFINED> instruction: 0xffffffff
    d338:	ffff ffff 			; <UNDEFINED> instruction: 0xffffffff
    d33c:	ffff ffff 			; <UNDEFINED> instruction: 0xffffffff
    d340:	ffff ffff 			; <UNDEFINED> instruction: 0xffffffff
    d344:	ffff ffff 			; <UNDEFINED> instruction: 0xffffffff
    d348:	ffff ffff 			; <UNDEFINED> instruction: 0xffffffff
    d34c:	ffff ffff 			; <UNDEFINED> instruction: 0xffffffff
    d350:	ffff ffff 			; <UNDEFINED> instruction: 0xffffffff
    d354:	ffff ffff 			; <UNDEFINED> instruction: 0xffffffff
    d358:	ffff ffff 			; <UNDEFINED> instruction: 0xffffffff
    d35c:	ffff ffff 			; <UNDEFINED> instruction: 0xffffffff
    d360:	ffff ffff 			; <UNDEFINED> instruction: 0xffffffff
    d364:	ffff ffff 			; <UNDEFINED> instruction: 0xffffffff
    d368:	ffff ffff 			; <UNDEFINED> instruction: 0xffffffff
    d36c:	ffff ffff 			; <UNDEFINED> instruction: 0xffffffff
    d370:	ffff ffff 			; <UNDEFINED> instruction: 0xffffffff
    d374:	ffff ffff 			; <UNDEFINED> instruction: 0xffffffff
    d378:	ffff ffff 			; <UNDEFINED> instruction: 0xffffffff
    d37c:	ffff ffff 			; <UNDEFINED> instruction: 0xffffffff
    d380:	ffff ffff 			; <UNDEFINED> instruction: 0xffffffff
    d384:	ffff ffff 			; <UNDEFINED> instruction: 0xffffffff
    d388:	ffff ffff 			; <UNDEFINED> instruction: 0xffffffff
    d38c:	ffff ffff 			; <UNDEFINED> instruction: 0xffffffff
    d390:	ffff ffff 			; <UNDEFINED> instruction: 0xffffffff
    d394:	ffff ffff 			; <UNDEFINED> instruction: 0xffffffff
    d398:	ffff ffff 			; <UNDEFINED> instruction: 0xffffffff
    d39c:	ffff ffff 			; <UNDEFINED> instruction: 0xffffffff
    d3a0:	ffff ffff 			; <UNDEFINED> instruction: 0xffffffff
    d3a4:	ffff ffff 			; <UNDEFINED> instruction: 0xffffffff
    d3a8:	ffff ffff 			; <UNDEFINED> instruction: 0xffffffff
    d3ac:	ffff ffff 			; <UNDEFINED> instruction: 0xffffffff
    d3b0:	ffff ffff 			; <UNDEFINED> instruction: 0xffffffff
    d3b4:	ffff ffff 			; <UNDEFINED> instruction: 0xffffffff
    d3b8:	ffff ffff 			; <UNDEFINED> instruction: 0xffffffff
    d3bc:	ffff ffff 			; <UNDEFINED> instruction: 0xffffffff
    d3c0:	ffff ffff 			; <UNDEFINED> instruction: 0xffffffff
    d3c4:	ffff ffff 			; <UNDEFINED> instruction: 0xffffffff
    d3c8:	ffff ffff 			; <UNDEFINED> instruction: 0xffffffff
    d3cc:	ffff ffff 			; <UNDEFINED> instruction: 0xffffffff
    d3d0:	ffff ffff 			; <UNDEFINED> instruction: 0xffffffff
    d3d4:	ffff ffff 			; <UNDEFINED> instruction: 0xffffffff
    d3d8:	ffff ffff 			; <UNDEFINED> instruction: 0xffffffff
    d3dc:	ffff ffff 			; <UNDEFINED> instruction: 0xffffffff
    d3e0:	ffff ffff 			; <UNDEFINED> instruction: 0xffffffff
    d3e4:	ffff ffff 			; <UNDEFINED> instruction: 0xffffffff
    d3e8:	ffff ffff 			; <UNDEFINED> instruction: 0xffffffff
    d3ec:	ffff ffff 			; <UNDEFINED> instruction: 0xffffffff
    d3f0:	ffff ffff 			; <UNDEFINED> instruction: 0xffffffff
    d3f4:	ffff ffff 			; <UNDEFINED> instruction: 0xffffffff
    d3f8:	ffff ffff 			; <UNDEFINED> instruction: 0xffffffff
    d3fc:	ffff ffff 			; <UNDEFINED> instruction: 0xffffffff
    d400:	ffff ffff 			; <UNDEFINED> instruction: 0xffffffff
    d404:	ffff ffff 			; <UNDEFINED> instruction: 0xffffffff
    d408:	ffff ffff 			; <UNDEFINED> instruction: 0xffffffff
    d40c:	ffff ffff 			; <UNDEFINED> instruction: 0xffffffff
    d410:	ffff ffff 			; <UNDEFINED> instruction: 0xffffffff
    d414:	ffff ffff 			; <UNDEFINED> instruction: 0xffffffff
    d418:	ffff ffff 			; <UNDEFINED> instruction: 0xffffffff
    d41c:	ffff ffff 			; <UNDEFINED> instruction: 0xffffffff
    d420:	ffff ffff 			; <UNDEFINED> instruction: 0xffffffff
    d424:	ffff ffff 			; <UNDEFINED> instruction: 0xffffffff
    d428:	ffff ffff 			; <UNDEFINED> instruction: 0xffffffff
    d42c:	ffff ffff 			; <UNDEFINED> instruction: 0xffffffff
    d430:	ffff ffff 			; <UNDEFINED> instruction: 0xffffffff
    d434:	ffff ffff 			; <UNDEFINED> instruction: 0xffffffff
    d438:	ffff ffff 			; <UNDEFINED> instruction: 0xffffffff
    d43c:	ffff ffff 			; <UNDEFINED> instruction: 0xffffffff
    d440:	ffff ffff 			; <UNDEFINED> instruction: 0xffffffff
    d444:	ffff ffff 			; <UNDEFINED> instruction: 0xffffffff
    d448:	ffff ffff 			; <UNDEFINED> instruction: 0xffffffff
    d44c:	ffff ffff 			; <UNDEFINED> instruction: 0xffffffff
    d450:	ffff ffff 			; <UNDEFINED> instruction: 0xffffffff
    d454:	ffff ffff 			; <UNDEFINED> instruction: 0xffffffff
    d458:	ffff ffff 			; <UNDEFINED> instruction: 0xffffffff
    d45c:	ffff ffff 			; <UNDEFINED> instruction: 0xffffffff
    d460:	ffff ffff 			; <UNDEFINED> instruction: 0xffffffff
    d464:	ffff ffff 			; <UNDEFINED> instruction: 0xffffffff
    d468:	ffff ffff 			; <UNDEFINED> instruction: 0xffffffff
    d46c:	ffff ffff 			; <UNDEFINED> instruction: 0xffffffff
    d470:	ffff ffff 			; <UNDEFINED> instruction: 0xffffffff
    d474:	ffff ffff 			; <UNDEFINED> instruction: 0xffffffff
    d478:	ffff ffff 			; <UNDEFINED> instruction: 0xffffffff
    d47c:	ffff ffff 			; <UNDEFINED> instruction: 0xffffffff
    d480:	ffff ffff 			; <UNDEFINED> instruction: 0xffffffff
    d484:	ffff ffff 			; <UNDEFINED> instruction: 0xffffffff
    d488:	ffff ffff 			; <UNDEFINED> instruction: 0xffffffff
    d48c:	ffff ffff 			; <UNDEFINED> instruction: 0xffffffff
    d490:	ffff ffff 			; <UNDEFINED> instruction: 0xffffffff
    d494:	ffff ffff 			; <UNDEFINED> instruction: 0xffffffff
    d498:	ffff ffff 			; <UNDEFINED> instruction: 0xffffffff
    d49c:	ffff ffff 			; <UNDEFINED> instruction: 0xffffffff
    d4a0:	ffff ffff 			; <UNDEFINED> instruction: 0xffffffff
    d4a4:	ffff ffff 			; <UNDEFINED> instruction: 0xffffffff
    d4a8:	ffff ffff 			; <UNDEFINED> instruction: 0xffffffff
    d4ac:	ffff ffff 			; <UNDEFINED> instruction: 0xffffffff
    d4b0:	ffff ffff 			; <UNDEFINED> instruction: 0xffffffff
    d4b4:	ffff ffff 			; <UNDEFINED> instruction: 0xffffffff
    d4b8:	ffff ffff 			; <UNDEFINED> instruction: 0xffffffff
    d4bc:	ffff ffff 			; <UNDEFINED> instruction: 0xffffffff
    d4c0:	ffff ffff 			; <UNDEFINED> instruction: 0xffffffff
    d4c4:	ffff ffff 			; <UNDEFINED> instruction: 0xffffffff
    d4c8:	ffff ffff 			; <UNDEFINED> instruction: 0xffffffff
    d4cc:	ffff ffff 			; <UNDEFINED> instruction: 0xffffffff
    d4d0:	ffff ffff 			; <UNDEFINED> instruction: 0xffffffff
    d4d4:	ffff ffff 			; <UNDEFINED> instruction: 0xffffffff
    d4d8:	ffff ffff 			; <UNDEFINED> instruction: 0xffffffff
    d4dc:	ffff ffff 			; <UNDEFINED> instruction: 0xffffffff
    d4e0:	ffff ffff 			; <UNDEFINED> instruction: 0xffffffff
    d4e4:	ffff ffff 			; <UNDEFINED> instruction: 0xffffffff
    d4e8:	ffff ffff 			; <UNDEFINED> instruction: 0xffffffff
    d4ec:	ffff ffff 			; <UNDEFINED> instruction: 0xffffffff
    d4f0:	ffff ffff 			; <UNDEFINED> instruction: 0xffffffff
    d4f4:	ffff ffff 			; <UNDEFINED> instruction: 0xffffffff
    d4f8:	ffff ffff 			; <UNDEFINED> instruction: 0xffffffff
    d4fc:	ffff ffff 			; <UNDEFINED> instruction: 0xffffffff
    d500:	ffff ffff 			; <UNDEFINED> instruction: 0xffffffff
    d504:	ffff ffff 			; <UNDEFINED> instruction: 0xffffffff
    d508:	ffff ffff 			; <UNDEFINED> instruction: 0xffffffff
    d50c:	ffff ffff 			; <UNDEFINED> instruction: 0xffffffff
    d510:	ffff ffff 			; <UNDEFINED> instruction: 0xffffffff
    d514:	ffff ffff 			; <UNDEFINED> instruction: 0xffffffff
    d518:	ffff ffff 			; <UNDEFINED> instruction: 0xffffffff
    d51c:	ffff ffff 			; <UNDEFINED> instruction: 0xffffffff
    d520:	ffff ffff 			; <UNDEFINED> instruction: 0xffffffff
    d524:	ffff ffff 			; <UNDEFINED> instruction: 0xffffffff
    d528:	ffff ffff 			; <UNDEFINED> instruction: 0xffffffff
    d52c:	ffff ffff 			; <UNDEFINED> instruction: 0xffffffff
    d530:	ffff ffff 			; <UNDEFINED> instruction: 0xffffffff
    d534:	ffff ffff 			; <UNDEFINED> instruction: 0xffffffff
    d538:	ffff ffff 			; <UNDEFINED> instruction: 0xffffffff
    d53c:	ffff ffff 			; <UNDEFINED> instruction: 0xffffffff
    d540:	ffff ffff 			; <UNDEFINED> instruction: 0xffffffff
    d544:	ffff ffff 			; <UNDEFINED> instruction: 0xffffffff
    d548:	ffff ffff 			; <UNDEFINED> instruction: 0xffffffff
    d54c:	ffff ffff 			; <UNDEFINED> instruction: 0xffffffff
    d550:	ffff ffff 			; <UNDEFINED> instruction: 0xffffffff
    d554:	ffff ffff 			; <UNDEFINED> instruction: 0xffffffff
    d558:	ffff ffff 			; <UNDEFINED> instruction: 0xffffffff
    d55c:	ffff ffff 			; <UNDEFINED> instruction: 0xffffffff
    d560:	ffff ffff 			; <UNDEFINED> instruction: 0xffffffff
    d564:	ffff ffff 			; <UNDEFINED> instruction: 0xffffffff
    d568:	ffff ffff 			; <UNDEFINED> instruction: 0xffffffff
    d56c:	ffff ffff 			; <UNDEFINED> instruction: 0xffffffff
    d570:	ffff ffff 			; <UNDEFINED> instruction: 0xffffffff
    d574:	ffff ffff 			; <UNDEFINED> instruction: 0xffffffff
    d578:	ffff ffff 			; <UNDEFINED> instruction: 0xffffffff
    d57c:	ffff ffff 			; <UNDEFINED> instruction: 0xffffffff
    d580:	ffff ffff 			; <UNDEFINED> instruction: 0xffffffff
    d584:	ffff ffff 			; <UNDEFINED> instruction: 0xffffffff
    d588:	ffff ffff 			; <UNDEFINED> instruction: 0xffffffff
    d58c:	ffff ffff 			; <UNDEFINED> instruction: 0xffffffff
    d590:	ffff ffff 			; <UNDEFINED> instruction: 0xffffffff
    d594:	ffff ffff 			; <UNDEFINED> instruction: 0xffffffff
    d598:	ffff ffff 			; <UNDEFINED> instruction: 0xffffffff
    d59c:	ffff ffff 			; <UNDEFINED> instruction: 0xffffffff
    d5a0:	ffff ffff 			; <UNDEFINED> instruction: 0xffffffff
    d5a4:	ffff ffff 			; <UNDEFINED> instruction: 0xffffffff
    d5a8:	ffff ffff 			; <UNDEFINED> instruction: 0xffffffff
    d5ac:	ffff ffff 			; <UNDEFINED> instruction: 0xffffffff
    d5b0:	ffff ffff 			; <UNDEFINED> instruction: 0xffffffff
    d5b4:	ffff ffff 			; <UNDEFINED> instruction: 0xffffffff
    d5b8:	ffff ffff 			; <UNDEFINED> instruction: 0xffffffff
    d5bc:	ffff ffff 			; <UNDEFINED> instruction: 0xffffffff
    d5c0:	ffff ffff 			; <UNDEFINED> instruction: 0xffffffff
    d5c4:	ffff ffff 			; <UNDEFINED> instruction: 0xffffffff
    d5c8:	ffff ffff 			; <UNDEFINED> instruction: 0xffffffff
    d5cc:	ffff ffff 			; <UNDEFINED> instruction: 0xffffffff
    d5d0:	ffff ffff 			; <UNDEFINED> instruction: 0xffffffff
    d5d4:	ffff ffff 			; <UNDEFINED> instruction: 0xffffffff
    d5d8:	ffff ffff 			; <UNDEFINED> instruction: 0xffffffff
    d5dc:	ffff ffff 			; <UNDEFINED> instruction: 0xffffffff
    d5e0:	ffff ffff 			; <UNDEFINED> instruction: 0xffffffff
    d5e4:	ffff ffff 			; <UNDEFINED> instruction: 0xffffffff
    d5e8:	ffff ffff 			; <UNDEFINED> instruction: 0xffffffff
    d5ec:	ffff ffff 			; <UNDEFINED> instruction: 0xffffffff
    d5f0:	ffff ffff 			; <UNDEFINED> instruction: 0xffffffff
    d5f4:	ffff ffff 			; <UNDEFINED> instruction: 0xffffffff
    d5f8:	ffff ffff 			; <UNDEFINED> instruction: 0xffffffff
    d5fc:	ffff ffff 			; <UNDEFINED> instruction: 0xffffffff
    d600:	ffff ffff 			; <UNDEFINED> instruction: 0xffffffff
    d604:	ffff ffff 			; <UNDEFINED> instruction: 0xffffffff
    d608:	ffff ffff 			; <UNDEFINED> instruction: 0xffffffff
    d60c:	ffff ffff 			; <UNDEFINED> instruction: 0xffffffff
    d610:	ffff ffff 			; <UNDEFINED> instruction: 0xffffffff
    d614:	ffff ffff 			; <UNDEFINED> instruction: 0xffffffff
    d618:	ffff ffff 			; <UNDEFINED> instruction: 0xffffffff
    d61c:	ffff ffff 			; <UNDEFINED> instruction: 0xffffffff
    d620:	ffff ffff 			; <UNDEFINED> instruction: 0xffffffff
    d624:	ffff ffff 			; <UNDEFINED> instruction: 0xffffffff
    d628:	ffff ffff 			; <UNDEFINED> instruction: 0xffffffff
    d62c:	ffff ffff 			; <UNDEFINED> instruction: 0xffffffff
    d630:	ffff ffff 			; <UNDEFINED> instruction: 0xffffffff
    d634:	ffff ffff 			; <UNDEFINED> instruction: 0xffffffff
    d638:	ffff ffff 			; <UNDEFINED> instruction: 0xffffffff
    d63c:	ffff ffff 			; <UNDEFINED> instruction: 0xffffffff
    d640:	ffff ffff 			; <UNDEFINED> instruction: 0xffffffff
    d644:	ffff ffff 			; <UNDEFINED> instruction: 0xffffffff
    d648:	ffff ffff 			; <UNDEFINED> instruction: 0xffffffff
    d64c:	ffff ffff 			; <UNDEFINED> instruction: 0xffffffff
    d650:	ffff ffff 			; <UNDEFINED> instruction: 0xffffffff
    d654:	ffff ffff 			; <UNDEFINED> instruction: 0xffffffff
    d658:	ffff ffff 			; <UNDEFINED> instruction: 0xffffffff
    d65c:	ffff ffff 			; <UNDEFINED> instruction: 0xffffffff
    d660:	ffff ffff 			; <UNDEFINED> instruction: 0xffffffff
    d664:	ffff ffff 			; <UNDEFINED> instruction: 0xffffffff
    d668:	ffff ffff 			; <UNDEFINED> instruction: 0xffffffff
    d66c:	ffff ffff 			; <UNDEFINED> instruction: 0xffffffff
    d670:	ffff ffff 			; <UNDEFINED> instruction: 0xffffffff
    d674:	ffff ffff 			; <UNDEFINED> instruction: 0xffffffff
    d678:	ffff ffff 			; <UNDEFINED> instruction: 0xffffffff
    d67c:	ffff ffff 			; <UNDEFINED> instruction: 0xffffffff
    d680:	ffff ffff 			; <UNDEFINED> instruction: 0xffffffff
    d684:	ffff ffff 			; <UNDEFINED> instruction: 0xffffffff
    d688:	ffff ffff 			; <UNDEFINED> instruction: 0xffffffff
    d68c:	ffff ffff 			; <UNDEFINED> instruction: 0xffffffff
    d690:	ffff ffff 			; <UNDEFINED> instruction: 0xffffffff
    d694:	ffff ffff 			; <UNDEFINED> instruction: 0xffffffff
    d698:	ffff ffff 			; <UNDEFINED> instruction: 0xffffffff
    d69c:	ffff ffff 			; <UNDEFINED> instruction: 0xffffffff
    d6a0:	ffff ffff 			; <UNDEFINED> instruction: 0xffffffff
    d6a4:	ffff ffff 			; <UNDEFINED> instruction: 0xffffffff
    d6a8:	ffff ffff 			; <UNDEFINED> instruction: 0xffffffff
    d6ac:	ffff ffff 			; <UNDEFINED> instruction: 0xffffffff
    d6b0:	ffff ffff 			; <UNDEFINED> instruction: 0xffffffff
    d6b4:	ffff ffff 			; <UNDEFINED> instruction: 0xffffffff
    d6b8:	ffff ffff 			; <UNDEFINED> instruction: 0xffffffff
    d6bc:	ffff ffff 			; <UNDEFINED> instruction: 0xffffffff
    d6c0:	ffff ffff 			; <UNDEFINED> instruction: 0xffffffff
    d6c4:	ffff ffff 			; <UNDEFINED> instruction: 0xffffffff
    d6c8:	ffff ffff 			; <UNDEFINED> instruction: 0xffffffff
    d6cc:	ffff ffff 			; <UNDEFINED> instruction: 0xffffffff
    d6d0:	ffff ffff 			; <UNDEFINED> instruction: 0xffffffff
    d6d4:	ffff ffff 			; <UNDEFINED> instruction: 0xffffffff
    d6d8:	ffff ffff 			; <UNDEFINED> instruction: 0xffffffff
    d6dc:	ffff ffff 			; <UNDEFINED> instruction: 0xffffffff
    d6e0:	ffff ffff 			; <UNDEFINED> instruction: 0xffffffff
    d6e4:	ffff ffff 			; <UNDEFINED> instruction: 0xffffffff
    d6e8:	ffff ffff 			; <UNDEFINED> instruction: 0xffffffff
    d6ec:	ffff ffff 			; <UNDEFINED> instruction: 0xffffffff
    d6f0:	ffff ffff 			; <UNDEFINED> instruction: 0xffffffff
    d6f4:	ffff ffff 			; <UNDEFINED> instruction: 0xffffffff
    d6f8:	ffff ffff 			; <UNDEFINED> instruction: 0xffffffff
    d6fc:	ffff ffff 			; <UNDEFINED> instruction: 0xffffffff
    d700:	ffff ffff 			; <UNDEFINED> instruction: 0xffffffff
    d704:	ffff ffff 			; <UNDEFINED> instruction: 0xffffffff
    d708:	ffff ffff 			; <UNDEFINED> instruction: 0xffffffff
    d70c:	ffff ffff 			; <UNDEFINED> instruction: 0xffffffff
    d710:	ffff ffff 			; <UNDEFINED> instruction: 0xffffffff
    d714:	ffff ffff 			; <UNDEFINED> instruction: 0xffffffff
    d718:	ffff ffff 			; <UNDEFINED> instruction: 0xffffffff
    d71c:	ffff ffff 			; <UNDEFINED> instruction: 0xffffffff
    d720:	ffff ffff 			; <UNDEFINED> instruction: 0xffffffff
    d724:	ffff ffff 			; <UNDEFINED> instruction: 0xffffffff
    d728:	ffff ffff 			; <UNDEFINED> instruction: 0xffffffff
    d72c:	ffff ffff 			; <UNDEFINED> instruction: 0xffffffff
    d730:	ffff ffff 			; <UNDEFINED> instruction: 0xffffffff
    d734:	ffff ffff 			; <UNDEFINED> instruction: 0xffffffff
    d738:	ffff ffff 			; <UNDEFINED> instruction: 0xffffffff
    d73c:	ffff ffff 			; <UNDEFINED> instruction: 0xffffffff
    d740:	ffff ffff 			; <UNDEFINED> instruction: 0xffffffff
    d744:	ffff ffff 			; <UNDEFINED> instruction: 0xffffffff
    d748:	ffff ffff 			; <UNDEFINED> instruction: 0xffffffff
    d74c:	ffff ffff 			; <UNDEFINED> instruction: 0xffffffff
    d750:	ffff ffff 			; <UNDEFINED> instruction: 0xffffffff
    d754:	ffff ffff 			; <UNDEFINED> instruction: 0xffffffff
    d758:	ffff ffff 			; <UNDEFINED> instruction: 0xffffffff
    d75c:	ffff ffff 			; <UNDEFINED> instruction: 0xffffffff
    d760:	ffff ffff 			; <UNDEFINED> instruction: 0xffffffff
    d764:	ffff ffff 			; <UNDEFINED> instruction: 0xffffffff
    d768:	ffff ffff 			; <UNDEFINED> instruction: 0xffffffff
    d76c:	ffff ffff 			; <UNDEFINED> instruction: 0xffffffff
    d770:	ffff ffff 			; <UNDEFINED> instruction: 0xffffffff
    d774:	ffff ffff 			; <UNDEFINED> instruction: 0xffffffff
    d778:	ffff ffff 			; <UNDEFINED> instruction: 0xffffffff
    d77c:	ffff ffff 			; <UNDEFINED> instruction: 0xffffffff
    d780:	ffff ffff 			; <UNDEFINED> instruction: 0xffffffff
    d784:	ffff ffff 			; <UNDEFINED> instruction: 0xffffffff
    d788:	ffff ffff 			; <UNDEFINED> instruction: 0xffffffff
    d78c:	ffff ffff 			; <UNDEFINED> instruction: 0xffffffff
    d790:	ffff ffff 			; <UNDEFINED> instruction: 0xffffffff
    d794:	ffff ffff 			; <UNDEFINED> instruction: 0xffffffff
    d798:	ffff ffff 			; <UNDEFINED> instruction: 0xffffffff
    d79c:	ffff ffff 			; <UNDEFINED> instruction: 0xffffffff
    d7a0:	ffff ffff 			; <UNDEFINED> instruction: 0xffffffff
    d7a4:	ffff ffff 			; <UNDEFINED> instruction: 0xffffffff
    d7a8:	ffff ffff 			; <UNDEFINED> instruction: 0xffffffff
    d7ac:	ffff ffff 			; <UNDEFINED> instruction: 0xffffffff
    d7b0:	ffff ffff 			; <UNDEFINED> instruction: 0xffffffff
    d7b4:	ffff ffff 			; <UNDEFINED> instruction: 0xffffffff
    d7b8:	ffff ffff 			; <UNDEFINED> instruction: 0xffffffff
    d7bc:	ffff ffff 			; <UNDEFINED> instruction: 0xffffffff
    d7c0:	ffff ffff 			; <UNDEFINED> instruction: 0xffffffff
    d7c4:	ffff ffff 			; <UNDEFINED> instruction: 0xffffffff
    d7c8:	ffff ffff 			; <UNDEFINED> instruction: 0xffffffff
    d7cc:	ffff ffff 			; <UNDEFINED> instruction: 0xffffffff
    d7d0:	ffff ffff 			; <UNDEFINED> instruction: 0xffffffff
    d7d4:	ffff ffff 			; <UNDEFINED> instruction: 0xffffffff
    d7d8:	ffff ffff 			; <UNDEFINED> instruction: 0xffffffff
    d7dc:	ffff ffff 			; <UNDEFINED> instruction: 0xffffffff
    d7e0:	ffff ffff 			; <UNDEFINED> instruction: 0xffffffff
    d7e4:	ffff ffff 			; <UNDEFINED> instruction: 0xffffffff
    d7e8:	ffff ffff 			; <UNDEFINED> instruction: 0xffffffff
    d7ec:	ffff ffff 			; <UNDEFINED> instruction: 0xffffffff
    d7f0:	ffff ffff 			; <UNDEFINED> instruction: 0xffffffff
    d7f4:	ffff ffff 			; <UNDEFINED> instruction: 0xffffffff
    d7f8:	ffff ffff 			; <UNDEFINED> instruction: 0xffffffff
    d7fc:	ffff ffff 			; <UNDEFINED> instruction: 0xffffffff
    d800:	ffff ffff 			; <UNDEFINED> instruction: 0xffffffff
    d804:	ffff ffff 			; <UNDEFINED> instruction: 0xffffffff
    d808:	ffff ffff 			; <UNDEFINED> instruction: 0xffffffff
    d80c:	ffff ffff 			; <UNDEFINED> instruction: 0xffffffff
    d810:	ffff ffff 			; <UNDEFINED> instruction: 0xffffffff
    d814:	ffff ffff 			; <UNDEFINED> instruction: 0xffffffff
    d818:	ffff ffff 			; <UNDEFINED> instruction: 0xffffffff
    d81c:	ffff ffff 			; <UNDEFINED> instruction: 0xffffffff
    d820:	ffff ffff 			; <UNDEFINED> instruction: 0xffffffff
    d824:	ffff ffff 			; <UNDEFINED> instruction: 0xffffffff
    d828:	ffff ffff 			; <UNDEFINED> instruction: 0xffffffff
    d82c:	ffff ffff 			; <UNDEFINED> instruction: 0xffffffff
    d830:	ffff ffff 			; <UNDEFINED> instruction: 0xffffffff
    d834:	ffff ffff 			; <UNDEFINED> instruction: 0xffffffff
    d838:	ffff ffff 			; <UNDEFINED> instruction: 0xffffffff
    d83c:	ffff ffff 			; <UNDEFINED> instruction: 0xffffffff
    d840:	ffff ffff 			; <UNDEFINED> instruction: 0xffffffff
    d844:	ffff ffff 			; <UNDEFINED> instruction: 0xffffffff
    d848:	ffff ffff 			; <UNDEFINED> instruction: 0xffffffff
    d84c:	ffff ffff 			; <UNDEFINED> instruction: 0xffffffff
    d850:	ffff ffff 			; <UNDEFINED> instruction: 0xffffffff
    d854:	ffff ffff 			; <UNDEFINED> instruction: 0xffffffff
    d858:	ffff ffff 			; <UNDEFINED> instruction: 0xffffffff
    d85c:	ffff ffff 			; <UNDEFINED> instruction: 0xffffffff
    d860:	ffff ffff 			; <UNDEFINED> instruction: 0xffffffff
    d864:	ffff ffff 			; <UNDEFINED> instruction: 0xffffffff
    d868:	ffff ffff 			; <UNDEFINED> instruction: 0xffffffff
    d86c:	ffff ffff 			; <UNDEFINED> instruction: 0xffffffff
    d870:	ffff ffff 			; <UNDEFINED> instruction: 0xffffffff
    d874:	ffff ffff 			; <UNDEFINED> instruction: 0xffffffff
    d878:	ffff ffff 			; <UNDEFINED> instruction: 0xffffffff
    d87c:	ffff ffff 			; <UNDEFINED> instruction: 0xffffffff
    d880:	ffff ffff 			; <UNDEFINED> instruction: 0xffffffff
    d884:	ffff ffff 			; <UNDEFINED> instruction: 0xffffffff
    d888:	ffff ffff 			; <UNDEFINED> instruction: 0xffffffff
    d88c:	ffff ffff 			; <UNDEFINED> instruction: 0xffffffff
    d890:	ffff ffff 			; <UNDEFINED> instruction: 0xffffffff
    d894:	ffff ffff 			; <UNDEFINED> instruction: 0xffffffff
    d898:	ffff ffff 			; <UNDEFINED> instruction: 0xffffffff
    d89c:	ffff ffff 			; <UNDEFINED> instruction: 0xffffffff
    d8a0:	ffff ffff 			; <UNDEFINED> instruction: 0xffffffff
    d8a4:	ffff ffff 			; <UNDEFINED> instruction: 0xffffffff
    d8a8:	ffff ffff 			; <UNDEFINED> instruction: 0xffffffff
    d8ac:	ffff ffff 			; <UNDEFINED> instruction: 0xffffffff
    d8b0:	ffff ffff 			; <UNDEFINED> instruction: 0xffffffff
    d8b4:	ffff ffff 			; <UNDEFINED> instruction: 0xffffffff
    d8b8:	ffff ffff 			; <UNDEFINED> instruction: 0xffffffff
    d8bc:	ffff ffff 			; <UNDEFINED> instruction: 0xffffffff
    d8c0:	ffff ffff 			; <UNDEFINED> instruction: 0xffffffff
    d8c4:	ffff ffff 			; <UNDEFINED> instruction: 0xffffffff
    d8c8:	ffff ffff 			; <UNDEFINED> instruction: 0xffffffff
    d8cc:	ffff ffff 			; <UNDEFINED> instruction: 0xffffffff
    d8d0:	ffff ffff 			; <UNDEFINED> instruction: 0xffffffff
    d8d4:	ffff ffff 			; <UNDEFINED> instruction: 0xffffffff
    d8d8:	ffff ffff 			; <UNDEFINED> instruction: 0xffffffff
    d8dc:	ffff ffff 			; <UNDEFINED> instruction: 0xffffffff
    d8e0:	ffff ffff 			; <UNDEFINED> instruction: 0xffffffff
    d8e4:	ffff ffff 			; <UNDEFINED> instruction: 0xffffffff
    d8e8:	ffff ffff 			; <UNDEFINED> instruction: 0xffffffff
    d8ec:	ffff ffff 			; <UNDEFINED> instruction: 0xffffffff
    d8f0:	ffff ffff 			; <UNDEFINED> instruction: 0xffffffff
    d8f4:	ffff ffff 			; <UNDEFINED> instruction: 0xffffffff
    d8f8:	ffff ffff 			; <UNDEFINED> instruction: 0xffffffff
    d8fc:	ffff ffff 			; <UNDEFINED> instruction: 0xffffffff
    d900:	ffff ffff 			; <UNDEFINED> instruction: 0xffffffff
    d904:	ffff ffff 			; <UNDEFINED> instruction: 0xffffffff
    d908:	ffff ffff 			; <UNDEFINED> instruction: 0xffffffff
    d90c:	ffff ffff 			; <UNDEFINED> instruction: 0xffffffff
    d910:	ffff ffff 			; <UNDEFINED> instruction: 0xffffffff
    d914:	ffff ffff 			; <UNDEFINED> instruction: 0xffffffff
    d918:	ffff ffff 			; <UNDEFINED> instruction: 0xffffffff
    d91c:	ffff ffff 			; <UNDEFINED> instruction: 0xffffffff
    d920:	ffff ffff 			; <UNDEFINED> instruction: 0xffffffff
    d924:	ffff ffff 			; <UNDEFINED> instruction: 0xffffffff
    d928:	ffff ffff 			; <UNDEFINED> instruction: 0xffffffff
    d92c:	ffff ffff 			; <UNDEFINED> instruction: 0xffffffff
    d930:	ffff ffff 			; <UNDEFINED> instruction: 0xffffffff
    d934:	ffff ffff 			; <UNDEFINED> instruction: 0xffffffff
    d938:	ffff ffff 			; <UNDEFINED> instruction: 0xffffffff
    d93c:	ffff ffff 			; <UNDEFINED> instruction: 0xffffffff
    d940:	ffff ffff 			; <UNDEFINED> instruction: 0xffffffff
    d944:	ffff ffff 			; <UNDEFINED> instruction: 0xffffffff
    d948:	ffff ffff 			; <UNDEFINED> instruction: 0xffffffff
    d94c:	ffff ffff 			; <UNDEFINED> instruction: 0xffffffff
    d950:	ffff ffff 			; <UNDEFINED> instruction: 0xffffffff
    d954:	ffff ffff 			; <UNDEFINED> instruction: 0xffffffff
    d958:	ffff ffff 			; <UNDEFINED> instruction: 0xffffffff
    d95c:	ffff ffff 			; <UNDEFINED> instruction: 0xffffffff
    d960:	ffff ffff 			; <UNDEFINED> instruction: 0xffffffff
    d964:	ffff ffff 			; <UNDEFINED> instruction: 0xffffffff
    d968:	ffff ffff 			; <UNDEFINED> instruction: 0xffffffff
    d96c:	ffff ffff 			; <UNDEFINED> instruction: 0xffffffff
    d970:	ffff ffff 			; <UNDEFINED> instruction: 0xffffffff
    d974:	ffff ffff 			; <UNDEFINED> instruction: 0xffffffff
    d978:	ffff ffff 			; <UNDEFINED> instruction: 0xffffffff
    d97c:	ffff ffff 			; <UNDEFINED> instruction: 0xffffffff
    d980:	ffff ffff 			; <UNDEFINED> instruction: 0xffffffff
    d984:	ffff ffff 			; <UNDEFINED> instruction: 0xffffffff
    d988:	ffff ffff 			; <UNDEFINED> instruction: 0xffffffff
    d98c:	ffff ffff 			; <UNDEFINED> instruction: 0xffffffff
    d990:	ffff ffff 			; <UNDEFINED> instruction: 0xffffffff
    d994:	ffff ffff 			; <UNDEFINED> instruction: 0xffffffff
    d998:	ffff ffff 			; <UNDEFINED> instruction: 0xffffffff
    d99c:	ffff ffff 			; <UNDEFINED> instruction: 0xffffffff
    d9a0:	ffff ffff 			; <UNDEFINED> instruction: 0xffffffff
    d9a4:	ffff ffff 			; <UNDEFINED> instruction: 0xffffffff
    d9a8:	ffff ffff 			; <UNDEFINED> instruction: 0xffffffff
    d9ac:	ffff ffff 			; <UNDEFINED> instruction: 0xffffffff
    d9b0:	ffff ffff 			; <UNDEFINED> instruction: 0xffffffff
    d9b4:	ffff ffff 			; <UNDEFINED> instruction: 0xffffffff
    d9b8:	ffff ffff 			; <UNDEFINED> instruction: 0xffffffff
    d9bc:	ffff ffff 			; <UNDEFINED> instruction: 0xffffffff
    d9c0:	ffff ffff 			; <UNDEFINED> instruction: 0xffffffff
    d9c4:	ffff ffff 			; <UNDEFINED> instruction: 0xffffffff
    d9c8:	ffff ffff 			; <UNDEFINED> instruction: 0xffffffff
    d9cc:	ffff ffff 			; <UNDEFINED> instruction: 0xffffffff
    d9d0:	ffff ffff 			; <UNDEFINED> instruction: 0xffffffff
    d9d4:	ffff ffff 			; <UNDEFINED> instruction: 0xffffffff
    d9d8:	ffff ffff 			; <UNDEFINED> instruction: 0xffffffff
    d9dc:	ffff ffff 			; <UNDEFINED> instruction: 0xffffffff
    d9e0:	ffff ffff 			; <UNDEFINED> instruction: 0xffffffff
    d9e4:	ffff ffff 			; <UNDEFINED> instruction: 0xffffffff
    d9e8:	ffff ffff 			; <UNDEFINED> instruction: 0xffffffff
    d9ec:	ffff ffff 			; <UNDEFINED> instruction: 0xffffffff
    d9f0:	ffff ffff 			; <UNDEFINED> instruction: 0xffffffff
    d9f4:	ffff ffff 			; <UNDEFINED> instruction: 0xffffffff
    d9f8:	ffff ffff 			; <UNDEFINED> instruction: 0xffffffff
    d9fc:	ffff ffff 			; <UNDEFINED> instruction: 0xffffffff
    da00:	ffff ffff 			; <UNDEFINED> instruction: 0xffffffff
    da04:	ffff ffff 			; <UNDEFINED> instruction: 0xffffffff
    da08:	ffff ffff 			; <UNDEFINED> instruction: 0xffffffff
    da0c:	ffff ffff 			; <UNDEFINED> instruction: 0xffffffff
    da10:	ffff ffff 			; <UNDEFINED> instruction: 0xffffffff
    da14:	ffff ffff 			; <UNDEFINED> instruction: 0xffffffff
    da18:	ffff ffff 			; <UNDEFINED> instruction: 0xffffffff
    da1c:	ffff ffff 			; <UNDEFINED> instruction: 0xffffffff
    da20:	ffff ffff 			; <UNDEFINED> instruction: 0xffffffff
    da24:	ffff ffff 			; <UNDEFINED> instruction: 0xffffffff
    da28:	ffff ffff 			; <UNDEFINED> instruction: 0xffffffff
    da2c:	ffff ffff 			; <UNDEFINED> instruction: 0xffffffff
    da30:	ffff ffff 			; <UNDEFINED> instruction: 0xffffffff
    da34:	ffff ffff 			; <UNDEFINED> instruction: 0xffffffff
    da38:	ffff ffff 			; <UNDEFINED> instruction: 0xffffffff
    da3c:	ffff ffff 			; <UNDEFINED> instruction: 0xffffffff
    da40:	ffff ffff 			; <UNDEFINED> instruction: 0xffffffff
    da44:	ffff ffff 			; <UNDEFINED> instruction: 0xffffffff
    da48:	ffff ffff 			; <UNDEFINED> instruction: 0xffffffff
    da4c:	ffff ffff 			; <UNDEFINED> instruction: 0xffffffff
    da50:	ffff ffff 			; <UNDEFINED> instruction: 0xffffffff
    da54:	ffff ffff 			; <UNDEFINED> instruction: 0xffffffff
    da58:	ffff ffff 			; <UNDEFINED> instruction: 0xffffffff
    da5c:	ffff ffff 			; <UNDEFINED> instruction: 0xffffffff
    da60:	ffff ffff 			; <UNDEFINED> instruction: 0xffffffff
    da64:	ffff ffff 			; <UNDEFINED> instruction: 0xffffffff
    da68:	ffff ffff 			; <UNDEFINED> instruction: 0xffffffff
    da6c:	ffff ffff 			; <UNDEFINED> instruction: 0xffffffff
    da70:	ffff ffff 			; <UNDEFINED> instruction: 0xffffffff
    da74:	ffff ffff 			; <UNDEFINED> instruction: 0xffffffff
    da78:	ffff ffff 			; <UNDEFINED> instruction: 0xffffffff
    da7c:	ffff ffff 			; <UNDEFINED> instruction: 0xffffffff
    da80:	ffff ffff 			; <UNDEFINED> instruction: 0xffffffff
    da84:	ffff ffff 			; <UNDEFINED> instruction: 0xffffffff
    da88:	ffff ffff 			; <UNDEFINED> instruction: 0xffffffff
    da8c:	ffff ffff 			; <UNDEFINED> instruction: 0xffffffff
    da90:	ffff ffff 			; <UNDEFINED> instruction: 0xffffffff
    da94:	ffff ffff 			; <UNDEFINED> instruction: 0xffffffff
    da98:	ffff ffff 			; <UNDEFINED> instruction: 0xffffffff
    da9c:	ffff ffff 			; <UNDEFINED> instruction: 0xffffffff
    daa0:	ffff ffff 			; <UNDEFINED> instruction: 0xffffffff
    daa4:	ffff ffff 			; <UNDEFINED> instruction: 0xffffffff
    daa8:	ffff ffff 			; <UNDEFINED> instruction: 0xffffffff
    daac:	ffff ffff 			; <UNDEFINED> instruction: 0xffffffff
    dab0:	ffff ffff 			; <UNDEFINED> instruction: 0xffffffff
    dab4:	ffff ffff 			; <UNDEFINED> instruction: 0xffffffff
    dab8:	ffff ffff 			; <UNDEFINED> instruction: 0xffffffff
    dabc:	ffff ffff 			; <UNDEFINED> instruction: 0xffffffff
    dac0:	ffff ffff 			; <UNDEFINED> instruction: 0xffffffff
    dac4:	ffff ffff 			; <UNDEFINED> instruction: 0xffffffff
    dac8:	ffff ffff 			; <UNDEFINED> instruction: 0xffffffff
    dacc:	ffff ffff 			; <UNDEFINED> instruction: 0xffffffff
    dad0:	ffff ffff 			; <UNDEFINED> instruction: 0xffffffff
    dad4:	ffff ffff 			; <UNDEFINED> instruction: 0xffffffff
    dad8:	ffff ffff 			; <UNDEFINED> instruction: 0xffffffff
    dadc:	ffff ffff 			; <UNDEFINED> instruction: 0xffffffff
    dae0:	ffff ffff 			; <UNDEFINED> instruction: 0xffffffff
    dae4:	ffff ffff 			; <UNDEFINED> instruction: 0xffffffff
    dae8:	ffff ffff 			; <UNDEFINED> instruction: 0xffffffff
    daec:	ffff ffff 			; <UNDEFINED> instruction: 0xffffffff
    daf0:	ffff ffff 			; <UNDEFINED> instruction: 0xffffffff
    daf4:	ffff ffff 			; <UNDEFINED> instruction: 0xffffffff
    daf8:	ffff ffff 			; <UNDEFINED> instruction: 0xffffffff
    dafc:	ffff ffff 			; <UNDEFINED> instruction: 0xffffffff
    db00:	ffff ffff 			; <UNDEFINED> instruction: 0xffffffff
    db04:	ffff ffff 			; <UNDEFINED> instruction: 0xffffffff
    db08:	ffff ffff 			; <UNDEFINED> instruction: 0xffffffff
    db0c:	ffff ffff 			; <UNDEFINED> instruction: 0xffffffff
    db10:	ffff ffff 			; <UNDEFINED> instruction: 0xffffffff
    db14:	ffff ffff 			; <UNDEFINED> instruction: 0xffffffff
    db18:	ffff ffff 			; <UNDEFINED> instruction: 0xffffffff
    db1c:	ffff ffff 			; <UNDEFINED> instruction: 0xffffffff
    db20:	ffff ffff 			; <UNDEFINED> instruction: 0xffffffff
    db24:	ffff ffff 			; <UNDEFINED> instruction: 0xffffffff
    db28:	ffff ffff 			; <UNDEFINED> instruction: 0xffffffff
    db2c:	ffff ffff 			; <UNDEFINED> instruction: 0xffffffff
    db30:	ffff ffff 			; <UNDEFINED> instruction: 0xffffffff
    db34:	ffff ffff 			; <UNDEFINED> instruction: 0xffffffff
    db38:	ffff ffff 			; <UNDEFINED> instruction: 0xffffffff
    db3c:	ffff ffff 			; <UNDEFINED> instruction: 0xffffffff
    db40:	ffff ffff 			; <UNDEFINED> instruction: 0xffffffff
    db44:	ffff ffff 			; <UNDEFINED> instruction: 0xffffffff
    db48:	ffff ffff 			; <UNDEFINED> instruction: 0xffffffff
    db4c:	ffff ffff 			; <UNDEFINED> instruction: 0xffffffff
    db50:	ffff ffff 			; <UNDEFINED> instruction: 0xffffffff
    db54:	ffff ffff 			; <UNDEFINED> instruction: 0xffffffff
    db58:	ffff ffff 			; <UNDEFINED> instruction: 0xffffffff
    db5c:	ffff ffff 			; <UNDEFINED> instruction: 0xffffffff
    db60:	ffff ffff 			; <UNDEFINED> instruction: 0xffffffff
    db64:	ffff ffff 			; <UNDEFINED> instruction: 0xffffffff
    db68:	ffff ffff 			; <UNDEFINED> instruction: 0xffffffff
    db6c:	ffff ffff 			; <UNDEFINED> instruction: 0xffffffff
    db70:	ffff ffff 			; <UNDEFINED> instruction: 0xffffffff
    db74:	ffff ffff 			; <UNDEFINED> instruction: 0xffffffff
    db78:	ffff ffff 			; <UNDEFINED> instruction: 0xffffffff
    db7c:	ffff ffff 			; <UNDEFINED> instruction: 0xffffffff
    db80:	ffff ffff 			; <UNDEFINED> instruction: 0xffffffff
    db84:	ffff ffff 			; <UNDEFINED> instruction: 0xffffffff
    db88:	ffff ffff 			; <UNDEFINED> instruction: 0xffffffff
    db8c:	ffff ffff 			; <UNDEFINED> instruction: 0xffffffff
    db90:	ffff ffff 			; <UNDEFINED> instruction: 0xffffffff
    db94:	ffff ffff 			; <UNDEFINED> instruction: 0xffffffff
    db98:	ffff ffff 			; <UNDEFINED> instruction: 0xffffffff
    db9c:	ffff ffff 			; <UNDEFINED> instruction: 0xffffffff
    dba0:	ffff ffff 			; <UNDEFINED> instruction: 0xffffffff
    dba4:	ffff ffff 			; <UNDEFINED> instruction: 0xffffffff
    dba8:	ffff ffff 			; <UNDEFINED> instruction: 0xffffffff
    dbac:	ffff ffff 			; <UNDEFINED> instruction: 0xffffffff
    dbb0:	ffff ffff 			; <UNDEFINED> instruction: 0xffffffff
    dbb4:	ffff ffff 			; <UNDEFINED> instruction: 0xffffffff
    dbb8:	ffff ffff 			; <UNDEFINED> instruction: 0xffffffff
    dbbc:	ffff ffff 			; <UNDEFINED> instruction: 0xffffffff
    dbc0:	ffff ffff 			; <UNDEFINED> instruction: 0xffffffff
    dbc4:	ffff ffff 			; <UNDEFINED> instruction: 0xffffffff
    dbc8:	ffff ffff 			; <UNDEFINED> instruction: 0xffffffff
    dbcc:	ffff ffff 			; <UNDEFINED> instruction: 0xffffffff
    dbd0:	ffff ffff 			; <UNDEFINED> instruction: 0xffffffff
    dbd4:	ffff ffff 			; <UNDEFINED> instruction: 0xffffffff
    dbd8:	ffff ffff 			; <UNDEFINED> instruction: 0xffffffff
    dbdc:	ffff ffff 			; <UNDEFINED> instruction: 0xffffffff
    dbe0:	ffff ffff 			; <UNDEFINED> instruction: 0xffffffff
    dbe4:	ffff ffff 			; <UNDEFINED> instruction: 0xffffffff
    dbe8:	ffff ffff 			; <UNDEFINED> instruction: 0xffffffff
    dbec:	ffff ffff 			; <UNDEFINED> instruction: 0xffffffff
    dbf0:	ffff ffff 			; <UNDEFINED> instruction: 0xffffffff
    dbf4:	ffff ffff 			; <UNDEFINED> instruction: 0xffffffff
    dbf8:	ffff ffff 			; <UNDEFINED> instruction: 0xffffffff
    dbfc:	ffff ffff 			; <UNDEFINED> instruction: 0xffffffff
    dc00:	ffff ffff 			; <UNDEFINED> instruction: 0xffffffff
    dc04:	ffff ffff 			; <UNDEFINED> instruction: 0xffffffff
    dc08:	ffff ffff 			; <UNDEFINED> instruction: 0xffffffff
    dc0c:	ffff ffff 			; <UNDEFINED> instruction: 0xffffffff
    dc10:	ffff ffff 			; <UNDEFINED> instruction: 0xffffffff
    dc14:	ffff ffff 			; <UNDEFINED> instruction: 0xffffffff
    dc18:	ffff ffff 			; <UNDEFINED> instruction: 0xffffffff
    dc1c:	ffff ffff 			; <UNDEFINED> instruction: 0xffffffff
    dc20:	ffff ffff 			; <UNDEFINED> instruction: 0xffffffff
    dc24:	ffff ffff 			; <UNDEFINED> instruction: 0xffffffff
    dc28:	ffff ffff 			; <UNDEFINED> instruction: 0xffffffff
    dc2c:	ffff ffff 			; <UNDEFINED> instruction: 0xffffffff
    dc30:	ffff ffff 			; <UNDEFINED> instruction: 0xffffffff
    dc34:	ffff ffff 			; <UNDEFINED> instruction: 0xffffffff
    dc38:	ffff ffff 			; <UNDEFINED> instruction: 0xffffffff
    dc3c:	ffff ffff 			; <UNDEFINED> instruction: 0xffffffff
    dc40:	ffff ffff 			; <UNDEFINED> instruction: 0xffffffff
    dc44:	ffff ffff 			; <UNDEFINED> instruction: 0xffffffff
    dc48:	ffff ffff 			; <UNDEFINED> instruction: 0xffffffff
    dc4c:	ffff ffff 			; <UNDEFINED> instruction: 0xffffffff
    dc50:	ffff ffff 			; <UNDEFINED> instruction: 0xffffffff
    dc54:	ffff ffff 			; <UNDEFINED> instruction: 0xffffffff
    dc58:	ffff ffff 			; <UNDEFINED> instruction: 0xffffffff
    dc5c:	ffff ffff 			; <UNDEFINED> instruction: 0xffffffff
    dc60:	ffff ffff 			; <UNDEFINED> instruction: 0xffffffff
    dc64:	ffff ffff 			; <UNDEFINED> instruction: 0xffffffff
    dc68:	ffff ffff 			; <UNDEFINED> instruction: 0xffffffff
    dc6c:	ffff ffff 			; <UNDEFINED> instruction: 0xffffffff
    dc70:	ffff ffff 			; <UNDEFINED> instruction: 0xffffffff
    dc74:	ffff ffff 			; <UNDEFINED> instruction: 0xffffffff
    dc78:	ffff ffff 			; <UNDEFINED> instruction: 0xffffffff
    dc7c:	ffff ffff 			; <UNDEFINED> instruction: 0xffffffff
    dc80:	ffff ffff 			; <UNDEFINED> instruction: 0xffffffff
    dc84:	ffff ffff 			; <UNDEFINED> instruction: 0xffffffff
    dc88:	ffff ffff 			; <UNDEFINED> instruction: 0xffffffff
    dc8c:	ffff ffff 			; <UNDEFINED> instruction: 0xffffffff
    dc90:	ffff ffff 			; <UNDEFINED> instruction: 0xffffffff
    dc94:	ffff ffff 			; <UNDEFINED> instruction: 0xffffffff
    dc98:	ffff ffff 			; <UNDEFINED> instruction: 0xffffffff
    dc9c:	ffff ffff 			; <UNDEFINED> instruction: 0xffffffff
    dca0:	ffff ffff 			; <UNDEFINED> instruction: 0xffffffff
    dca4:	ffff ffff 			; <UNDEFINED> instruction: 0xffffffff
    dca8:	ffff ffff 			; <UNDEFINED> instruction: 0xffffffff
    dcac:	ffff ffff 			; <UNDEFINED> instruction: 0xffffffff
    dcb0:	ffff ffff 			; <UNDEFINED> instruction: 0xffffffff
    dcb4:	ffff ffff 			; <UNDEFINED> instruction: 0xffffffff
    dcb8:	ffff ffff 			; <UNDEFINED> instruction: 0xffffffff
    dcbc:	ffff ffff 			; <UNDEFINED> instruction: 0xffffffff
    dcc0:	ffff ffff 			; <UNDEFINED> instruction: 0xffffffff
    dcc4:	ffff ffff 			; <UNDEFINED> instruction: 0xffffffff
    dcc8:	ffff ffff 			; <UNDEFINED> instruction: 0xffffffff
    dccc:	ffff ffff 			; <UNDEFINED> instruction: 0xffffffff
    dcd0:	ffff ffff 			; <UNDEFINED> instruction: 0xffffffff
    dcd4:	ffff ffff 			; <UNDEFINED> instruction: 0xffffffff
    dcd8:	ffff ffff 			; <UNDEFINED> instruction: 0xffffffff
    dcdc:	ffff ffff 			; <UNDEFINED> instruction: 0xffffffff
    dce0:	ffff ffff 			; <UNDEFINED> instruction: 0xffffffff
    dce4:	ffff ffff 			; <UNDEFINED> instruction: 0xffffffff
    dce8:	ffff ffff 			; <UNDEFINED> instruction: 0xffffffff
    dcec:	ffff ffff 			; <UNDEFINED> instruction: 0xffffffff
    dcf0:	ffff ffff 			; <UNDEFINED> instruction: 0xffffffff
    dcf4:	ffff ffff 			; <UNDEFINED> instruction: 0xffffffff
    dcf8:	ffff ffff 			; <UNDEFINED> instruction: 0xffffffff
    dcfc:	ffff ffff 			; <UNDEFINED> instruction: 0xffffffff
    dd00:	ffff ffff 			; <UNDEFINED> instruction: 0xffffffff
    dd04:	ffff ffff 			; <UNDEFINED> instruction: 0xffffffff
    dd08:	ffff ffff 			; <UNDEFINED> instruction: 0xffffffff
    dd0c:	ffff ffff 			; <UNDEFINED> instruction: 0xffffffff
    dd10:	ffff ffff 			; <UNDEFINED> instruction: 0xffffffff
    dd14:	ffff ffff 			; <UNDEFINED> instruction: 0xffffffff
    dd18:	ffff ffff 			; <UNDEFINED> instruction: 0xffffffff
    dd1c:	ffff ffff 			; <UNDEFINED> instruction: 0xffffffff
    dd20:	ffff ffff 			; <UNDEFINED> instruction: 0xffffffff
    dd24:	ffff ffff 			; <UNDEFINED> instruction: 0xffffffff
    dd28:	ffff ffff 			; <UNDEFINED> instruction: 0xffffffff
    dd2c:	ffff ffff 			; <UNDEFINED> instruction: 0xffffffff
    dd30:	ffff ffff 			; <UNDEFINED> instruction: 0xffffffff
    dd34:	ffff ffff 			; <UNDEFINED> instruction: 0xffffffff
    dd38:	ffff ffff 			; <UNDEFINED> instruction: 0xffffffff
    dd3c:	ffff ffff 			; <UNDEFINED> instruction: 0xffffffff
    dd40:	ffff ffff 			; <UNDEFINED> instruction: 0xffffffff
    dd44:	ffff ffff 			; <UNDEFINED> instruction: 0xffffffff
    dd48:	ffff ffff 			; <UNDEFINED> instruction: 0xffffffff
    dd4c:	ffff ffff 			; <UNDEFINED> instruction: 0xffffffff
    dd50:	ffff ffff 			; <UNDEFINED> instruction: 0xffffffff
    dd54:	ffff ffff 			; <UNDEFINED> instruction: 0xffffffff
    dd58:	ffff ffff 			; <UNDEFINED> instruction: 0xffffffff
    dd5c:	ffff ffff 			; <UNDEFINED> instruction: 0xffffffff
    dd60:	ffff ffff 			; <UNDEFINED> instruction: 0xffffffff
    dd64:	ffff ffff 			; <UNDEFINED> instruction: 0xffffffff
    dd68:	ffff ffff 			; <UNDEFINED> instruction: 0xffffffff
    dd6c:	ffff ffff 			; <UNDEFINED> instruction: 0xffffffff
    dd70:	ffff ffff 			; <UNDEFINED> instruction: 0xffffffff
    dd74:	ffff ffff 			; <UNDEFINED> instruction: 0xffffffff
    dd78:	ffff ffff 			; <UNDEFINED> instruction: 0xffffffff
    dd7c:	ffff ffff 			; <UNDEFINED> instruction: 0xffffffff
    dd80:	ffff ffff 			; <UNDEFINED> instruction: 0xffffffff
    dd84:	ffff ffff 			; <UNDEFINED> instruction: 0xffffffff
    dd88:	ffff ffff 			; <UNDEFINED> instruction: 0xffffffff
    dd8c:	ffff ffff 			; <UNDEFINED> instruction: 0xffffffff
    dd90:	ffff ffff 			; <UNDEFINED> instruction: 0xffffffff
    dd94:	ffff ffff 			; <UNDEFINED> instruction: 0xffffffff
    dd98:	ffff ffff 			; <UNDEFINED> instruction: 0xffffffff
    dd9c:	ffff ffff 			; <UNDEFINED> instruction: 0xffffffff
    dda0:	ffff ffff 			; <UNDEFINED> instruction: 0xffffffff
    dda4:	ffff ffff 			; <UNDEFINED> instruction: 0xffffffff
    dda8:	ffff ffff 			; <UNDEFINED> instruction: 0xffffffff
    ddac:	ffff ffff 			; <UNDEFINED> instruction: 0xffffffff
    ddb0:	ffff ffff 			; <UNDEFINED> instruction: 0xffffffff
    ddb4:	ffff ffff 			; <UNDEFINED> instruction: 0xffffffff
    ddb8:	ffff ffff 			; <UNDEFINED> instruction: 0xffffffff
    ddbc:	ffff ffff 			; <UNDEFINED> instruction: 0xffffffff
    ddc0:	ffff ffff 			; <UNDEFINED> instruction: 0xffffffff
    ddc4:	ffff ffff 			; <UNDEFINED> instruction: 0xffffffff
    ddc8:	ffff ffff 			; <UNDEFINED> instruction: 0xffffffff
    ddcc:	ffff ffff 			; <UNDEFINED> instruction: 0xffffffff
    ddd0:	ffff ffff 			; <UNDEFINED> instruction: 0xffffffff
    ddd4:	ffff ffff 			; <UNDEFINED> instruction: 0xffffffff
    ddd8:	ffff ffff 			; <UNDEFINED> instruction: 0xffffffff
    dddc:	ffff ffff 			; <UNDEFINED> instruction: 0xffffffff
    dde0:	ffff ffff 			; <UNDEFINED> instruction: 0xffffffff
    dde4:	ffff ffff 			; <UNDEFINED> instruction: 0xffffffff
    dde8:	ffff ffff 			; <UNDEFINED> instruction: 0xffffffff
    ddec:	ffff ffff 			; <UNDEFINED> instruction: 0xffffffff
    ddf0:	ffff ffff 			; <UNDEFINED> instruction: 0xffffffff
    ddf4:	ffff ffff 			; <UNDEFINED> instruction: 0xffffffff
    ddf8:	ffff ffff 			; <UNDEFINED> instruction: 0xffffffff
    ddfc:	ffff ffff 			; <UNDEFINED> instruction: 0xffffffff
    de00:	ffff ffff 			; <UNDEFINED> instruction: 0xffffffff
    de04:	ffff ffff 			; <UNDEFINED> instruction: 0xffffffff
    de08:	ffff ffff 			; <UNDEFINED> instruction: 0xffffffff
    de0c:	ffff ffff 			; <UNDEFINED> instruction: 0xffffffff
    de10:	ffff ffff 			; <UNDEFINED> instruction: 0xffffffff
    de14:	ffff ffff 			; <UNDEFINED> instruction: 0xffffffff
    de18:	ffff ffff 			; <UNDEFINED> instruction: 0xffffffff
    de1c:	ffff ffff 			; <UNDEFINED> instruction: 0xffffffff
    de20:	ffff ffff 			; <UNDEFINED> instruction: 0xffffffff
    de24:	ffff ffff 			; <UNDEFINED> instruction: 0xffffffff
    de28:	ffff ffff 			; <UNDEFINED> instruction: 0xffffffff
    de2c:	ffff ffff 			; <UNDEFINED> instruction: 0xffffffff
    de30:	ffff ffff 			; <UNDEFINED> instruction: 0xffffffff
    de34:	ffff ffff 			; <UNDEFINED> instruction: 0xffffffff
    de38:	ffff ffff 			; <UNDEFINED> instruction: 0xffffffff
    de3c:	ffff ffff 			; <UNDEFINED> instruction: 0xffffffff
    de40:	ffff ffff 			; <UNDEFINED> instruction: 0xffffffff
    de44:	ffff ffff 			; <UNDEFINED> instruction: 0xffffffff
    de48:	ffff ffff 			; <UNDEFINED> instruction: 0xffffffff
    de4c:	ffff ffff 			; <UNDEFINED> instruction: 0xffffffff
    de50:	ffff ffff 			; <UNDEFINED> instruction: 0xffffffff
    de54:	ffff ffff 			; <UNDEFINED> instruction: 0xffffffff
    de58:	ffff ffff 			; <UNDEFINED> instruction: 0xffffffff
    de5c:	ffff ffff 			; <UNDEFINED> instruction: 0xffffffff
    de60:	ffff ffff 			; <UNDEFINED> instruction: 0xffffffff
    de64:	ffff ffff 			; <UNDEFINED> instruction: 0xffffffff
    de68:	ffff ffff 			; <UNDEFINED> instruction: 0xffffffff
    de6c:	ffff ffff 			; <UNDEFINED> instruction: 0xffffffff
    de70:	ffff ffff 			; <UNDEFINED> instruction: 0xffffffff
    de74:	ffff ffff 			; <UNDEFINED> instruction: 0xffffffff
    de78:	ffff ffff 			; <UNDEFINED> instruction: 0xffffffff
    de7c:	ffff ffff 			; <UNDEFINED> instruction: 0xffffffff
    de80:	ffff ffff 			; <UNDEFINED> instruction: 0xffffffff
    de84:	ffff ffff 			; <UNDEFINED> instruction: 0xffffffff
    de88:	ffff ffff 			; <UNDEFINED> instruction: 0xffffffff
    de8c:	ffff ffff 			; <UNDEFINED> instruction: 0xffffffff
    de90:	ffff ffff 			; <UNDEFINED> instruction: 0xffffffff
    de94:	ffff ffff 			; <UNDEFINED> instruction: 0xffffffff
    de98:	ffff ffff 			; <UNDEFINED> instruction: 0xffffffff
    de9c:	ffff ffff 			; <UNDEFINED> instruction: 0xffffffff
    dea0:	ffff ffff 			; <UNDEFINED> instruction: 0xffffffff
    dea4:	ffff ffff 			; <UNDEFINED> instruction: 0xffffffff
    dea8:	ffff ffff 			; <UNDEFINED> instruction: 0xffffffff
    deac:	ffff ffff 			; <UNDEFINED> instruction: 0xffffffff
    deb0:	ffff ffff 			; <UNDEFINED> instruction: 0xffffffff
    deb4:	ffff ffff 			; <UNDEFINED> instruction: 0xffffffff
    deb8:	ffff ffff 			; <UNDEFINED> instruction: 0xffffffff
    debc:	ffff ffff 			; <UNDEFINED> instruction: 0xffffffff
    dec0:	ffff ffff 			; <UNDEFINED> instruction: 0xffffffff
    dec4:	ffff ffff 			; <UNDEFINED> instruction: 0xffffffff
    dec8:	ffff ffff 			; <UNDEFINED> instruction: 0xffffffff
    decc:	ffff ffff 			; <UNDEFINED> instruction: 0xffffffff
    ded0:	ffff ffff 			; <UNDEFINED> instruction: 0xffffffff
    ded4:	ffff ffff 			; <UNDEFINED> instruction: 0xffffffff
    ded8:	ffff ffff 			; <UNDEFINED> instruction: 0xffffffff
    dedc:	ffff ffff 			; <UNDEFINED> instruction: 0xffffffff
    dee0:	ffff ffff 			; <UNDEFINED> instruction: 0xffffffff
    dee4:	ffff ffff 			; <UNDEFINED> instruction: 0xffffffff
    dee8:	ffff ffff 			; <UNDEFINED> instruction: 0xffffffff
    deec:	ffff ffff 			; <UNDEFINED> instruction: 0xffffffff
    def0:	ffff ffff 			; <UNDEFINED> instruction: 0xffffffff
    def4:	ffff ffff 			; <UNDEFINED> instruction: 0xffffffff
    def8:	ffff ffff 			; <UNDEFINED> instruction: 0xffffffff
    defc:	ffff ffff 			; <UNDEFINED> instruction: 0xffffffff
    df00:	ffff ffff 			; <UNDEFINED> instruction: 0xffffffff
    df04:	ffff ffff 			; <UNDEFINED> instruction: 0xffffffff
    df08:	ffff ffff 			; <UNDEFINED> instruction: 0xffffffff
    df0c:	ffff ffff 			; <UNDEFINED> instruction: 0xffffffff
    df10:	ffff ffff 			; <UNDEFINED> instruction: 0xffffffff
    df14:	ffff ffff 			; <UNDEFINED> instruction: 0xffffffff
    df18:	ffff ffff 			; <UNDEFINED> instruction: 0xffffffff
    df1c:	ffff ffff 			; <UNDEFINED> instruction: 0xffffffff
    df20:	ffff ffff 			; <UNDEFINED> instruction: 0xffffffff
    df24:	ffff ffff 			; <UNDEFINED> instruction: 0xffffffff
    df28:	ffff ffff 			; <UNDEFINED> instruction: 0xffffffff
    df2c:	ffff ffff 			; <UNDEFINED> instruction: 0xffffffff
    df30:	ffff ffff 			; <UNDEFINED> instruction: 0xffffffff
    df34:	ffff ffff 			; <UNDEFINED> instruction: 0xffffffff
    df38:	ffff ffff 			; <UNDEFINED> instruction: 0xffffffff
    df3c:	ffff ffff 			; <UNDEFINED> instruction: 0xffffffff
    df40:	ffff ffff 			; <UNDEFINED> instruction: 0xffffffff
    df44:	ffff ffff 			; <UNDEFINED> instruction: 0xffffffff
    df48:	ffff ffff 			; <UNDEFINED> instruction: 0xffffffff
    df4c:	ffff ffff 			; <UNDEFINED> instruction: 0xffffffff
    df50:	ffff ffff 			; <UNDEFINED> instruction: 0xffffffff
    df54:	ffff ffff 			; <UNDEFINED> instruction: 0xffffffff
    df58:	ffff ffff 			; <UNDEFINED> instruction: 0xffffffff
    df5c:	ffff ffff 			; <UNDEFINED> instruction: 0xffffffff
    df60:	ffff ffff 			; <UNDEFINED> instruction: 0xffffffff
    df64:	ffff ffff 			; <UNDEFINED> instruction: 0xffffffff
    df68:	ffff ffff 			; <UNDEFINED> instruction: 0xffffffff
    df6c:	ffff ffff 			; <UNDEFINED> instruction: 0xffffffff
    df70:	ffff ffff 			; <UNDEFINED> instruction: 0xffffffff
    df74:	ffff ffff 			; <UNDEFINED> instruction: 0xffffffff
    df78:	ffff ffff 			; <UNDEFINED> instruction: 0xffffffff
    df7c:	ffff ffff 			; <UNDEFINED> instruction: 0xffffffff
    df80:	ffff ffff 			; <UNDEFINED> instruction: 0xffffffff
    df84:	ffff ffff 			; <UNDEFINED> instruction: 0xffffffff
    df88:	ffff ffff 			; <UNDEFINED> instruction: 0xffffffff
    df8c:	ffff ffff 			; <UNDEFINED> instruction: 0xffffffff
    df90:	ffff ffff 			; <UNDEFINED> instruction: 0xffffffff
    df94:	ffff ffff 			; <UNDEFINED> instruction: 0xffffffff
    df98:	ffff ffff 			; <UNDEFINED> instruction: 0xffffffff
    df9c:	ffff ffff 			; <UNDEFINED> instruction: 0xffffffff
    dfa0:	ffff ffff 			; <UNDEFINED> instruction: 0xffffffff
    dfa4:	ffff ffff 			; <UNDEFINED> instruction: 0xffffffff
    dfa8:	ffff ffff 			; <UNDEFINED> instruction: 0xffffffff
    dfac:	ffff ffff 			; <UNDEFINED> instruction: 0xffffffff
    dfb0:	ffff ffff 			; <UNDEFINED> instruction: 0xffffffff
    dfb4:	ffff ffff 			; <UNDEFINED> instruction: 0xffffffff
    dfb8:	ffff ffff 			; <UNDEFINED> instruction: 0xffffffff
    dfbc:	ffff ffff 			; <UNDEFINED> instruction: 0xffffffff
    dfc0:	ffff ffff 			; <UNDEFINED> instruction: 0xffffffff
    dfc4:	ffff ffff 			; <UNDEFINED> instruction: 0xffffffff
    dfc8:	ffff ffff 			; <UNDEFINED> instruction: 0xffffffff
    dfcc:	ffff ffff 			; <UNDEFINED> instruction: 0xffffffff
    dfd0:	ffff ffff 			; <UNDEFINED> instruction: 0xffffffff
    dfd4:	ffff ffff 			; <UNDEFINED> instruction: 0xffffffff
    dfd8:	ffff ffff 			; <UNDEFINED> instruction: 0xffffffff
    dfdc:	ffff ffff 			; <UNDEFINED> instruction: 0xffffffff
    dfe0:	ffff ffff 			; <UNDEFINED> instruction: 0xffffffff
    dfe4:	ffff ffff 			; <UNDEFINED> instruction: 0xffffffff
    dfe8:	ffff ffff 			; <UNDEFINED> instruction: 0xffffffff
    dfec:	ffff ffff 			; <UNDEFINED> instruction: 0xffffffff
    dff0:	ffff ffff 			; <UNDEFINED> instruction: 0xffffffff
    dff4:	ffff ffff 			; <UNDEFINED> instruction: 0xffffffff
    dff8:	ffff ffff 			; <UNDEFINED> instruction: 0xffffffff
    dffc:	ffff ffff 			; <UNDEFINED> instruction: 0xffffffff
    e000:	ffff ffff 			; <UNDEFINED> instruction: 0xffffffff
    e004:	ffff ffff 			; <UNDEFINED> instruction: 0xffffffff
    e008:	ffff ffff 			; <UNDEFINED> instruction: 0xffffffff
    e00c:	ffff ffff 			; <UNDEFINED> instruction: 0xffffffff
    e010:	ffff ffff 			; <UNDEFINED> instruction: 0xffffffff
    e014:	ffff ffff 			; <UNDEFINED> instruction: 0xffffffff
    e018:	ffff ffff 			; <UNDEFINED> instruction: 0xffffffff
    e01c:	ffff ffff 			; <UNDEFINED> instruction: 0xffffffff
    e020:	ffff ffff 			; <UNDEFINED> instruction: 0xffffffff
    e024:	ffff ffff 			; <UNDEFINED> instruction: 0xffffffff
    e028:	ffff ffff 			; <UNDEFINED> instruction: 0xffffffff
    e02c:	ffff ffff 			; <UNDEFINED> instruction: 0xffffffff
    e030:	ffff ffff 			; <UNDEFINED> instruction: 0xffffffff
    e034:	ffff ffff 			; <UNDEFINED> instruction: 0xffffffff
    e038:	ffff ffff 			; <UNDEFINED> instruction: 0xffffffff
    e03c:	ffff ffff 			; <UNDEFINED> instruction: 0xffffffff
    e040:	ffff ffff 			; <UNDEFINED> instruction: 0xffffffff
    e044:	ffff ffff 			; <UNDEFINED> instruction: 0xffffffff
    e048:	ffff ffff 			; <UNDEFINED> instruction: 0xffffffff
    e04c:	ffff ffff 			; <UNDEFINED> instruction: 0xffffffff
    e050:	ffff ffff 			; <UNDEFINED> instruction: 0xffffffff
    e054:	ffff ffff 			; <UNDEFINED> instruction: 0xffffffff
    e058:	ffff ffff 			; <UNDEFINED> instruction: 0xffffffff
    e05c:	ffff ffff 			; <UNDEFINED> instruction: 0xffffffff
    e060:	ffff ffff 			; <UNDEFINED> instruction: 0xffffffff
    e064:	ffff ffff 			; <UNDEFINED> instruction: 0xffffffff
    e068:	ffff ffff 			; <UNDEFINED> instruction: 0xffffffff
    e06c:	ffff ffff 			; <UNDEFINED> instruction: 0xffffffff
    e070:	ffff ffff 			; <UNDEFINED> instruction: 0xffffffff
    e074:	ffff ffff 			; <UNDEFINED> instruction: 0xffffffff
    e078:	ffff ffff 			; <UNDEFINED> instruction: 0xffffffff
    e07c:	ffff ffff 			; <UNDEFINED> instruction: 0xffffffff
    e080:	ffff ffff 			; <UNDEFINED> instruction: 0xffffffff
    e084:	ffff ffff 			; <UNDEFINED> instruction: 0xffffffff
    e088:	ffff ffff 			; <UNDEFINED> instruction: 0xffffffff
    e08c:	ffff ffff 			; <UNDEFINED> instruction: 0xffffffff
    e090:	ffff ffff 			; <UNDEFINED> instruction: 0xffffffff
    e094:	ffff ffff 			; <UNDEFINED> instruction: 0xffffffff
    e098:	ffff ffff 			; <UNDEFINED> instruction: 0xffffffff
    e09c:	ffff ffff 			; <UNDEFINED> instruction: 0xffffffff
    e0a0:	ffff ffff 			; <UNDEFINED> instruction: 0xffffffff
    e0a4:	ffff ffff 			; <UNDEFINED> instruction: 0xffffffff
    e0a8:	ffff ffff 			; <UNDEFINED> instruction: 0xffffffff
    e0ac:	ffff ffff 			; <UNDEFINED> instruction: 0xffffffff
    e0b0:	ffff ffff 			; <UNDEFINED> instruction: 0xffffffff
    e0b4:	ffff ffff 			; <UNDEFINED> instruction: 0xffffffff
    e0b8:	ffff ffff 			; <UNDEFINED> instruction: 0xffffffff
    e0bc:	ffff ffff 			; <UNDEFINED> instruction: 0xffffffff
    e0c0:	ffff ffff 			; <UNDEFINED> instruction: 0xffffffff
    e0c4:	ffff ffff 			; <UNDEFINED> instruction: 0xffffffff
    e0c8:	ffff ffff 			; <UNDEFINED> instruction: 0xffffffff
    e0cc:	ffff ffff 			; <UNDEFINED> instruction: 0xffffffff
    e0d0:	ffff ffff 			; <UNDEFINED> instruction: 0xffffffff
    e0d4:	ffff ffff 			; <UNDEFINED> instruction: 0xffffffff
    e0d8:	ffff ffff 			; <UNDEFINED> instruction: 0xffffffff
    e0dc:	ffff ffff 			; <UNDEFINED> instruction: 0xffffffff
    e0e0:	ffff ffff 			; <UNDEFINED> instruction: 0xffffffff
    e0e4:	ffff ffff 			; <UNDEFINED> instruction: 0xffffffff
    e0e8:	ffff ffff 			; <UNDEFINED> instruction: 0xffffffff
    e0ec:	ffff ffff 			; <UNDEFINED> instruction: 0xffffffff
    e0f0:	ffff ffff 			; <UNDEFINED> instruction: 0xffffffff
    e0f4:	ffff ffff 			; <UNDEFINED> instruction: 0xffffffff
    e0f8:	ffff ffff 			; <UNDEFINED> instruction: 0xffffffff
    e0fc:	ffff ffff 			; <UNDEFINED> instruction: 0xffffffff
    e100:	ffff ffff 			; <UNDEFINED> instruction: 0xffffffff
    e104:	ffff ffff 			; <UNDEFINED> instruction: 0xffffffff
    e108:	ffff ffff 			; <UNDEFINED> instruction: 0xffffffff
    e10c:	ffff ffff 			; <UNDEFINED> instruction: 0xffffffff
    e110:	ffff ffff 			; <UNDEFINED> instruction: 0xffffffff
    e114:	ffff ffff 			; <UNDEFINED> instruction: 0xffffffff
    e118:	ffff ffff 			; <UNDEFINED> instruction: 0xffffffff
    e11c:	ffff ffff 			; <UNDEFINED> instruction: 0xffffffff
    e120:	ffff ffff 			; <UNDEFINED> instruction: 0xffffffff
    e124:	ffff ffff 			; <UNDEFINED> instruction: 0xffffffff
    e128:	ffff ffff 			; <UNDEFINED> instruction: 0xffffffff
    e12c:	ffff ffff 			; <UNDEFINED> instruction: 0xffffffff
    e130:	ffff ffff 			; <UNDEFINED> instruction: 0xffffffff
    e134:	ffff ffff 			; <UNDEFINED> instruction: 0xffffffff
    e138:	ffff ffff 			; <UNDEFINED> instruction: 0xffffffff
    e13c:	ffff ffff 			; <UNDEFINED> instruction: 0xffffffff
    e140:	ffff ffff 			; <UNDEFINED> instruction: 0xffffffff
    e144:	ffff ffff 			; <UNDEFINED> instruction: 0xffffffff
    e148:	ffff ffff 			; <UNDEFINED> instruction: 0xffffffff
    e14c:	ffff ffff 			; <UNDEFINED> instruction: 0xffffffff
    e150:	ffff ffff 			; <UNDEFINED> instruction: 0xffffffff
    e154:	ffff ffff 			; <UNDEFINED> instruction: 0xffffffff
    e158:	ffff ffff 			; <UNDEFINED> instruction: 0xffffffff
    e15c:	ffff ffff 			; <UNDEFINED> instruction: 0xffffffff
    e160:	ffff ffff 			; <UNDEFINED> instruction: 0xffffffff
    e164:	ffff ffff 			; <UNDEFINED> instruction: 0xffffffff
    e168:	ffff ffff 			; <UNDEFINED> instruction: 0xffffffff
    e16c:	ffff ffff 			; <UNDEFINED> instruction: 0xffffffff
    e170:	ffff ffff 			; <UNDEFINED> instruction: 0xffffffff
    e174:	ffff ffff 			; <UNDEFINED> instruction: 0xffffffff
    e178:	ffff ffff 			; <UNDEFINED> instruction: 0xffffffff
    e17c:	ffff ffff 			; <UNDEFINED> instruction: 0xffffffff
    e180:	ffff ffff 			; <UNDEFINED> instruction: 0xffffffff
    e184:	ffff ffff 			; <UNDEFINED> instruction: 0xffffffff
    e188:	ffff ffff 			; <UNDEFINED> instruction: 0xffffffff
    e18c:	ffff ffff 			; <UNDEFINED> instruction: 0xffffffff
    e190:	ffff ffff 			; <UNDEFINED> instruction: 0xffffffff
    e194:	ffff ffff 			; <UNDEFINED> instruction: 0xffffffff
    e198:	ffff ffff 			; <UNDEFINED> instruction: 0xffffffff
    e19c:	ffff ffff 			; <UNDEFINED> instruction: 0xffffffff
    e1a0:	ffff ffff 			; <UNDEFINED> instruction: 0xffffffff
    e1a4:	ffff ffff 			; <UNDEFINED> instruction: 0xffffffff
    e1a8:	ffff ffff 			; <UNDEFINED> instruction: 0xffffffff
    e1ac:	ffff ffff 			; <UNDEFINED> instruction: 0xffffffff
    e1b0:	ffff ffff 			; <UNDEFINED> instruction: 0xffffffff
    e1b4:	ffff ffff 			; <UNDEFINED> instruction: 0xffffffff
    e1b8:	ffff ffff 			; <UNDEFINED> instruction: 0xffffffff
    e1bc:	ffff ffff 			; <UNDEFINED> instruction: 0xffffffff
    e1c0:	ffff ffff 			; <UNDEFINED> instruction: 0xffffffff
    e1c4:	ffff ffff 			; <UNDEFINED> instruction: 0xffffffff
    e1c8:	ffff ffff 			; <UNDEFINED> instruction: 0xffffffff
    e1cc:	ffff ffff 			; <UNDEFINED> instruction: 0xffffffff
    e1d0:	ffff ffff 			; <UNDEFINED> instruction: 0xffffffff
    e1d4:	ffff ffff 			; <UNDEFINED> instruction: 0xffffffff
    e1d8:	ffff ffff 			; <UNDEFINED> instruction: 0xffffffff
    e1dc:	ffff ffff 			; <UNDEFINED> instruction: 0xffffffff
    e1e0:	ffff ffff 			; <UNDEFINED> instruction: 0xffffffff
    e1e4:	ffff ffff 			; <UNDEFINED> instruction: 0xffffffff
    e1e8:	ffff ffff 			; <UNDEFINED> instruction: 0xffffffff
    e1ec:	ffff ffff 			; <UNDEFINED> instruction: 0xffffffff
    e1f0:	ffff ffff 			; <UNDEFINED> instruction: 0xffffffff
    e1f4:	ffff ffff 			; <UNDEFINED> instruction: 0xffffffff
    e1f8:	ffff ffff 			; <UNDEFINED> instruction: 0xffffffff
    e1fc:	ffff ffff 			; <UNDEFINED> instruction: 0xffffffff
    e200:	ffff ffff 			; <UNDEFINED> instruction: 0xffffffff
    e204:	ffff ffff 			; <UNDEFINED> instruction: 0xffffffff
    e208:	ffff ffff 			; <UNDEFINED> instruction: 0xffffffff
    e20c:	ffff ffff 			; <UNDEFINED> instruction: 0xffffffff
    e210:	ffff ffff 			; <UNDEFINED> instruction: 0xffffffff
    e214:	ffff ffff 			; <UNDEFINED> instruction: 0xffffffff
    e218:	ffff ffff 			; <UNDEFINED> instruction: 0xffffffff
    e21c:	ffff ffff 			; <UNDEFINED> instruction: 0xffffffff
    e220:	ffff ffff 			; <UNDEFINED> instruction: 0xffffffff
    e224:	ffff ffff 			; <UNDEFINED> instruction: 0xffffffff
    e228:	ffff ffff 			; <UNDEFINED> instruction: 0xffffffff
    e22c:	ffff ffff 			; <UNDEFINED> instruction: 0xffffffff
    e230:	ffff ffff 			; <UNDEFINED> instruction: 0xffffffff
    e234:	ffff ffff 			; <UNDEFINED> instruction: 0xffffffff
    e238:	ffff ffff 			; <UNDEFINED> instruction: 0xffffffff
    e23c:	ffff ffff 			; <UNDEFINED> instruction: 0xffffffff
    e240:	ffff ffff 			; <UNDEFINED> instruction: 0xffffffff
    e244:	ffff ffff 			; <UNDEFINED> instruction: 0xffffffff
    e248:	ffff ffff 			; <UNDEFINED> instruction: 0xffffffff
    e24c:	ffff ffff 			; <UNDEFINED> instruction: 0xffffffff
    e250:	ffff ffff 			; <UNDEFINED> instruction: 0xffffffff
    e254:	ffff ffff 			; <UNDEFINED> instruction: 0xffffffff
    e258:	ffff ffff 			; <UNDEFINED> instruction: 0xffffffff
    e25c:	ffff ffff 			; <UNDEFINED> instruction: 0xffffffff
    e260:	ffff ffff 			; <UNDEFINED> instruction: 0xffffffff
    e264:	ffff ffff 			; <UNDEFINED> instruction: 0xffffffff
    e268:	ffff ffff 			; <UNDEFINED> instruction: 0xffffffff
    e26c:	ffff ffff 			; <UNDEFINED> instruction: 0xffffffff
    e270:	ffff ffff 			; <UNDEFINED> instruction: 0xffffffff
    e274:	ffff ffff 			; <UNDEFINED> instruction: 0xffffffff
    e278:	ffff ffff 			; <UNDEFINED> instruction: 0xffffffff
    e27c:	ffff ffff 			; <UNDEFINED> instruction: 0xffffffff
    e280:	ffff ffff 			; <UNDEFINED> instruction: 0xffffffff
    e284:	ffff ffff 			; <UNDEFINED> instruction: 0xffffffff
    e288:	ffff ffff 			; <UNDEFINED> instruction: 0xffffffff
    e28c:	ffff ffff 			; <UNDEFINED> instruction: 0xffffffff
    e290:	ffff ffff 			; <UNDEFINED> instruction: 0xffffffff
    e294:	ffff ffff 			; <UNDEFINED> instruction: 0xffffffff
    e298:	ffff ffff 			; <UNDEFINED> instruction: 0xffffffff
    e29c:	ffff ffff 			; <UNDEFINED> instruction: 0xffffffff
    e2a0:	ffff ffff 			; <UNDEFINED> instruction: 0xffffffff
    e2a4:	ffff ffff 			; <UNDEFINED> instruction: 0xffffffff
    e2a8:	ffff ffff 			; <UNDEFINED> instruction: 0xffffffff
    e2ac:	ffff ffff 			; <UNDEFINED> instruction: 0xffffffff
    e2b0:	ffff ffff 			; <UNDEFINED> instruction: 0xffffffff
    e2b4:	ffff ffff 			; <UNDEFINED> instruction: 0xffffffff
    e2b8:	ffff ffff 			; <UNDEFINED> instruction: 0xffffffff
    e2bc:	ffff ffff 			; <UNDEFINED> instruction: 0xffffffff
    e2c0:	ffff ffff 			; <UNDEFINED> instruction: 0xffffffff
    e2c4:	ffff ffff 			; <UNDEFINED> instruction: 0xffffffff
    e2c8:	ffff ffff 			; <UNDEFINED> instruction: 0xffffffff
    e2cc:	ffff ffff 			; <UNDEFINED> instruction: 0xffffffff
    e2d0:	ffff ffff 			; <UNDEFINED> instruction: 0xffffffff
    e2d4:	ffff ffff 			; <UNDEFINED> instruction: 0xffffffff
    e2d8:	ffff ffff 			; <UNDEFINED> instruction: 0xffffffff
    e2dc:	ffff ffff 			; <UNDEFINED> instruction: 0xffffffff
    e2e0:	ffff ffff 			; <UNDEFINED> instruction: 0xffffffff
    e2e4:	ffff ffff 			; <UNDEFINED> instruction: 0xffffffff
    e2e8:	ffff ffff 			; <UNDEFINED> instruction: 0xffffffff
    e2ec:	ffff ffff 			; <UNDEFINED> instruction: 0xffffffff
    e2f0:	ffff ffff 			; <UNDEFINED> instruction: 0xffffffff
    e2f4:	ffff ffff 			; <UNDEFINED> instruction: 0xffffffff
    e2f8:	ffff ffff 			; <UNDEFINED> instruction: 0xffffffff
    e2fc:	ffff ffff 			; <UNDEFINED> instruction: 0xffffffff
    e300:	ffff ffff 			; <UNDEFINED> instruction: 0xffffffff
    e304:	ffff ffff 			; <UNDEFINED> instruction: 0xffffffff
    e308:	ffff ffff 			; <UNDEFINED> instruction: 0xffffffff
    e30c:	ffff ffff 			; <UNDEFINED> instruction: 0xffffffff
    e310:	ffff ffff 			; <UNDEFINED> instruction: 0xffffffff
    e314:	ffff ffff 			; <UNDEFINED> instruction: 0xffffffff
    e318:	ffff ffff 			; <UNDEFINED> instruction: 0xffffffff
    e31c:	ffff ffff 			; <UNDEFINED> instruction: 0xffffffff
    e320:	ffff ffff 			; <UNDEFINED> instruction: 0xffffffff
    e324:	ffff ffff 			; <UNDEFINED> instruction: 0xffffffff
    e328:	ffff ffff 			; <UNDEFINED> instruction: 0xffffffff
    e32c:	ffff ffff 			; <UNDEFINED> instruction: 0xffffffff
    e330:	ffff ffff 			; <UNDEFINED> instruction: 0xffffffff
    e334:	ffff ffff 			; <UNDEFINED> instruction: 0xffffffff
    e338:	ffff ffff 			; <UNDEFINED> instruction: 0xffffffff
    e33c:	ffff ffff 			; <UNDEFINED> instruction: 0xffffffff
    e340:	ffff ffff 			; <UNDEFINED> instruction: 0xffffffff
    e344:	ffff ffff 			; <UNDEFINED> instruction: 0xffffffff
    e348:	ffff ffff 			; <UNDEFINED> instruction: 0xffffffff
    e34c:	ffff ffff 			; <UNDEFINED> instruction: 0xffffffff
    e350:	ffff ffff 			; <UNDEFINED> instruction: 0xffffffff
    e354:	ffff ffff 			; <UNDEFINED> instruction: 0xffffffff
    e358:	ffff ffff 			; <UNDEFINED> instruction: 0xffffffff
    e35c:	ffff ffff 			; <UNDEFINED> instruction: 0xffffffff
    e360:	ffff ffff 			; <UNDEFINED> instruction: 0xffffffff
    e364:	ffff ffff 			; <UNDEFINED> instruction: 0xffffffff
    e368:	ffff ffff 			; <UNDEFINED> instruction: 0xffffffff
    e36c:	ffff ffff 			; <UNDEFINED> instruction: 0xffffffff
    e370:	ffff ffff 			; <UNDEFINED> instruction: 0xffffffff
    e374:	ffff ffff 			; <UNDEFINED> instruction: 0xffffffff
    e378:	ffff ffff 			; <UNDEFINED> instruction: 0xffffffff
    e37c:	ffff ffff 			; <UNDEFINED> instruction: 0xffffffff
    e380:	ffff ffff 			; <UNDEFINED> instruction: 0xffffffff
    e384:	ffff ffff 			; <UNDEFINED> instruction: 0xffffffff
    e388:	ffff ffff 			; <UNDEFINED> instruction: 0xffffffff
    e38c:	ffff ffff 			; <UNDEFINED> instruction: 0xffffffff
    e390:	ffff ffff 			; <UNDEFINED> instruction: 0xffffffff
    e394:	ffff ffff 			; <UNDEFINED> instruction: 0xffffffff
    e398:	ffff ffff 			; <UNDEFINED> instruction: 0xffffffff
    e39c:	ffff ffff 			; <UNDEFINED> instruction: 0xffffffff
    e3a0:	ffff ffff 			; <UNDEFINED> instruction: 0xffffffff
    e3a4:	ffff ffff 			; <UNDEFINED> instruction: 0xffffffff
    e3a8:	ffff ffff 			; <UNDEFINED> instruction: 0xffffffff
    e3ac:	ffff ffff 			; <UNDEFINED> instruction: 0xffffffff
    e3b0:	ffff ffff 			; <UNDEFINED> instruction: 0xffffffff
    e3b4:	ffff ffff 			; <UNDEFINED> instruction: 0xffffffff
    e3b8:	ffff ffff 			; <UNDEFINED> instruction: 0xffffffff
    e3bc:	ffff ffff 			; <UNDEFINED> instruction: 0xffffffff
    e3c0:	ffff ffff 			; <UNDEFINED> instruction: 0xffffffff
    e3c4:	ffff ffff 			; <UNDEFINED> instruction: 0xffffffff
    e3c8:	ffff ffff 			; <UNDEFINED> instruction: 0xffffffff
    e3cc:	ffff ffff 			; <UNDEFINED> instruction: 0xffffffff
    e3d0:	ffff ffff 			; <UNDEFINED> instruction: 0xffffffff
    e3d4:	ffff ffff 			; <UNDEFINED> instruction: 0xffffffff
    e3d8:	ffff ffff 			; <UNDEFINED> instruction: 0xffffffff
    e3dc:	ffff ffff 			; <UNDEFINED> instruction: 0xffffffff
    e3e0:	ffff ffff 			; <UNDEFINED> instruction: 0xffffffff
    e3e4:	ffff ffff 			; <UNDEFINED> instruction: 0xffffffff
    e3e8:	ffff ffff 			; <UNDEFINED> instruction: 0xffffffff
    e3ec:	ffff ffff 			; <UNDEFINED> instruction: 0xffffffff
    e3f0:	ffff ffff 			; <UNDEFINED> instruction: 0xffffffff
    e3f4:	ffff ffff 			; <UNDEFINED> instruction: 0xffffffff
    e3f8:	ffff ffff 			; <UNDEFINED> instruction: 0xffffffff
    e3fc:	ffff ffff 			; <UNDEFINED> instruction: 0xffffffff
    e400:	ffff ffff 			; <UNDEFINED> instruction: 0xffffffff
    e404:	ffff ffff 			; <UNDEFINED> instruction: 0xffffffff
    e408:	ffff ffff 			; <UNDEFINED> instruction: 0xffffffff
    e40c:	ffff ffff 			; <UNDEFINED> instruction: 0xffffffff
    e410:	ffff ffff 			; <UNDEFINED> instruction: 0xffffffff
    e414:	ffff ffff 			; <UNDEFINED> instruction: 0xffffffff
    e418:	ffff ffff 			; <UNDEFINED> instruction: 0xffffffff
    e41c:	ffff ffff 			; <UNDEFINED> instruction: 0xffffffff
    e420:	ffff ffff 			; <UNDEFINED> instruction: 0xffffffff
    e424:	ffff ffff 			; <UNDEFINED> instruction: 0xffffffff
    e428:	ffff ffff 			; <UNDEFINED> instruction: 0xffffffff
    e42c:	ffff ffff 			; <UNDEFINED> instruction: 0xffffffff
    e430:	ffff ffff 			; <UNDEFINED> instruction: 0xffffffff
    e434:	ffff ffff 			; <UNDEFINED> instruction: 0xffffffff
    e438:	ffff ffff 			; <UNDEFINED> instruction: 0xffffffff
    e43c:	ffff ffff 			; <UNDEFINED> instruction: 0xffffffff
    e440:	ffff ffff 			; <UNDEFINED> instruction: 0xffffffff
    e444:	ffff ffff 			; <UNDEFINED> instruction: 0xffffffff
    e448:	ffff ffff 			; <UNDEFINED> instruction: 0xffffffff
    e44c:	ffff ffff 			; <UNDEFINED> instruction: 0xffffffff
    e450:	ffff ffff 			; <UNDEFINED> instruction: 0xffffffff
    e454:	ffff ffff 			; <UNDEFINED> instruction: 0xffffffff
    e458:	ffff ffff 			; <UNDEFINED> instruction: 0xffffffff
    e45c:	ffff ffff 			; <UNDEFINED> instruction: 0xffffffff
    e460:	ffff ffff 			; <UNDEFINED> instruction: 0xffffffff
    e464:	ffff ffff 			; <UNDEFINED> instruction: 0xffffffff
    e468:	ffff ffff 			; <UNDEFINED> instruction: 0xffffffff
    e46c:	ffff ffff 			; <UNDEFINED> instruction: 0xffffffff
    e470:	ffff ffff 			; <UNDEFINED> instruction: 0xffffffff
    e474:	ffff ffff 			; <UNDEFINED> instruction: 0xffffffff
    e478:	ffff ffff 			; <UNDEFINED> instruction: 0xffffffff
    e47c:	ffff ffff 			; <UNDEFINED> instruction: 0xffffffff
    e480:	ffff ffff 			; <UNDEFINED> instruction: 0xffffffff
    e484:	ffff ffff 			; <UNDEFINED> instruction: 0xffffffff
    e488:	ffff ffff 			; <UNDEFINED> instruction: 0xffffffff
    e48c:	ffff ffff 			; <UNDEFINED> instruction: 0xffffffff
    e490:	ffff ffff 			; <UNDEFINED> instruction: 0xffffffff
    e494:	ffff ffff 			; <UNDEFINED> instruction: 0xffffffff
    e498:	ffff ffff 			; <UNDEFINED> instruction: 0xffffffff
    e49c:	ffff ffff 			; <UNDEFINED> instruction: 0xffffffff
    e4a0:	ffff ffff 			; <UNDEFINED> instruction: 0xffffffff
    e4a4:	ffff ffff 			; <UNDEFINED> instruction: 0xffffffff
    e4a8:	ffff ffff 			; <UNDEFINED> instruction: 0xffffffff
    e4ac:	ffff ffff 			; <UNDEFINED> instruction: 0xffffffff
    e4b0:	ffff ffff 			; <UNDEFINED> instruction: 0xffffffff
    e4b4:	ffff ffff 			; <UNDEFINED> instruction: 0xffffffff
    e4b8:	ffff ffff 			; <UNDEFINED> instruction: 0xffffffff
    e4bc:	ffff ffff 			; <UNDEFINED> instruction: 0xffffffff
    e4c0:	ffff ffff 			; <UNDEFINED> instruction: 0xffffffff
    e4c4:	ffff ffff 			; <UNDEFINED> instruction: 0xffffffff
    e4c8:	ffff ffff 			; <UNDEFINED> instruction: 0xffffffff
    e4cc:	ffff ffff 			; <UNDEFINED> instruction: 0xffffffff
    e4d0:	ffff ffff 			; <UNDEFINED> instruction: 0xffffffff
    e4d4:	ffff ffff 			; <UNDEFINED> instruction: 0xffffffff
    e4d8:	ffff ffff 			; <UNDEFINED> instruction: 0xffffffff
    e4dc:	ffff ffff 			; <UNDEFINED> instruction: 0xffffffff
    e4e0:	ffff ffff 			; <UNDEFINED> instruction: 0xffffffff
    e4e4:	ffff ffff 			; <UNDEFINED> instruction: 0xffffffff
    e4e8:	ffff ffff 			; <UNDEFINED> instruction: 0xffffffff
    e4ec:	ffff ffff 			; <UNDEFINED> instruction: 0xffffffff
    e4f0:	ffff ffff 			; <UNDEFINED> instruction: 0xffffffff
    e4f4:	ffff ffff 			; <UNDEFINED> instruction: 0xffffffff
    e4f8:	ffff ffff 			; <UNDEFINED> instruction: 0xffffffff
    e4fc:	ffff ffff 			; <UNDEFINED> instruction: 0xffffffff
    e500:	ffff ffff 			; <UNDEFINED> instruction: 0xffffffff
    e504:	ffff ffff 			; <UNDEFINED> instruction: 0xffffffff
    e508:	ffff ffff 			; <UNDEFINED> instruction: 0xffffffff
    e50c:	ffff ffff 			; <UNDEFINED> instruction: 0xffffffff
    e510:	ffff ffff 			; <UNDEFINED> instruction: 0xffffffff
    e514:	ffff ffff 			; <UNDEFINED> instruction: 0xffffffff
    e518:	ffff ffff 			; <UNDEFINED> instruction: 0xffffffff
    e51c:	ffff ffff 			; <UNDEFINED> instruction: 0xffffffff
    e520:	ffff ffff 			; <UNDEFINED> instruction: 0xffffffff
    e524:	ffff ffff 			; <UNDEFINED> instruction: 0xffffffff
    e528:	ffff ffff 			; <UNDEFINED> instruction: 0xffffffff
    e52c:	ffff ffff 			; <UNDEFINED> instruction: 0xffffffff
    e530:	ffff ffff 			; <UNDEFINED> instruction: 0xffffffff
    e534:	ffff ffff 			; <UNDEFINED> instruction: 0xffffffff
    e538:	ffff ffff 			; <UNDEFINED> instruction: 0xffffffff
    e53c:	ffff ffff 			; <UNDEFINED> instruction: 0xffffffff
    e540:	ffff ffff 			; <UNDEFINED> instruction: 0xffffffff
    e544:	ffff ffff 			; <UNDEFINED> instruction: 0xffffffff
    e548:	ffff ffff 			; <UNDEFINED> instruction: 0xffffffff
    e54c:	ffff ffff 			; <UNDEFINED> instruction: 0xffffffff
    e550:	ffff ffff 			; <UNDEFINED> instruction: 0xffffffff
    e554:	ffff ffff 			; <UNDEFINED> instruction: 0xffffffff
    e558:	ffff ffff 			; <UNDEFINED> instruction: 0xffffffff
    e55c:	ffff ffff 			; <UNDEFINED> instruction: 0xffffffff
    e560:	ffff ffff 			; <UNDEFINED> instruction: 0xffffffff
    e564:	ffff ffff 			; <UNDEFINED> instruction: 0xffffffff
    e568:	ffff ffff 			; <UNDEFINED> instruction: 0xffffffff
    e56c:	ffff ffff 			; <UNDEFINED> instruction: 0xffffffff
    e570:	ffff ffff 			; <UNDEFINED> instruction: 0xffffffff
    e574:	ffff ffff 			; <UNDEFINED> instruction: 0xffffffff
    e578:	ffff ffff 			; <UNDEFINED> instruction: 0xffffffff
    e57c:	ffff ffff 			; <UNDEFINED> instruction: 0xffffffff
    e580:	ffff ffff 			; <UNDEFINED> instruction: 0xffffffff
    e584:	ffff ffff 			; <UNDEFINED> instruction: 0xffffffff
    e588:	ffff ffff 			; <UNDEFINED> instruction: 0xffffffff
    e58c:	ffff ffff 			; <UNDEFINED> instruction: 0xffffffff
    e590:	ffff ffff 			; <UNDEFINED> instruction: 0xffffffff
    e594:	ffff ffff 			; <UNDEFINED> instruction: 0xffffffff
    e598:	ffff ffff 			; <UNDEFINED> instruction: 0xffffffff
    e59c:	ffff ffff 			; <UNDEFINED> instruction: 0xffffffff
    e5a0:	ffff ffff 			; <UNDEFINED> instruction: 0xffffffff
    e5a4:	ffff ffff 			; <UNDEFINED> instruction: 0xffffffff
    e5a8:	ffff ffff 			; <UNDEFINED> instruction: 0xffffffff
    e5ac:	ffff ffff 			; <UNDEFINED> instruction: 0xffffffff
    e5b0:	ffff ffff 			; <UNDEFINED> instruction: 0xffffffff
    e5b4:	ffff ffff 			; <UNDEFINED> instruction: 0xffffffff
    e5b8:	ffff ffff 			; <UNDEFINED> instruction: 0xffffffff
    e5bc:	ffff ffff 			; <UNDEFINED> instruction: 0xffffffff
    e5c0:	ffff ffff 			; <UNDEFINED> instruction: 0xffffffff
    e5c4:	ffff ffff 			; <UNDEFINED> instruction: 0xffffffff
    e5c8:	ffff ffff 			; <UNDEFINED> instruction: 0xffffffff
    e5cc:	ffff ffff 			; <UNDEFINED> instruction: 0xffffffff
    e5d0:	ffff ffff 			; <UNDEFINED> instruction: 0xffffffff
    e5d4:	ffff ffff 			; <UNDEFINED> instruction: 0xffffffff
    e5d8:	ffff ffff 			; <UNDEFINED> instruction: 0xffffffff
    e5dc:	ffff ffff 			; <UNDEFINED> instruction: 0xffffffff
    e5e0:	ffff ffff 			; <UNDEFINED> instruction: 0xffffffff
    e5e4:	ffff ffff 			; <UNDEFINED> instruction: 0xffffffff
    e5e8:	ffff ffff 			; <UNDEFINED> instruction: 0xffffffff
    e5ec:	ffff ffff 			; <UNDEFINED> instruction: 0xffffffff
    e5f0:	ffff ffff 			; <UNDEFINED> instruction: 0xffffffff
    e5f4:	ffff ffff 			; <UNDEFINED> instruction: 0xffffffff
    e5f8:	ffff ffff 			; <UNDEFINED> instruction: 0xffffffff
    e5fc:	ffff ffff 			; <UNDEFINED> instruction: 0xffffffff
    e600:	ffff ffff 			; <UNDEFINED> instruction: 0xffffffff
    e604:	ffff ffff 			; <UNDEFINED> instruction: 0xffffffff
    e608:	ffff ffff 			; <UNDEFINED> instruction: 0xffffffff
    e60c:	ffff ffff 			; <UNDEFINED> instruction: 0xffffffff
    e610:	ffff ffff 			; <UNDEFINED> instruction: 0xffffffff
    e614:	ffff ffff 			; <UNDEFINED> instruction: 0xffffffff
    e618:	ffff ffff 			; <UNDEFINED> instruction: 0xffffffff
    e61c:	ffff ffff 			; <UNDEFINED> instruction: 0xffffffff
    e620:	ffff ffff 			; <UNDEFINED> instruction: 0xffffffff
    e624:	ffff ffff 			; <UNDEFINED> instruction: 0xffffffff
    e628:	ffff ffff 			; <UNDEFINED> instruction: 0xffffffff
    e62c:	ffff ffff 			; <UNDEFINED> instruction: 0xffffffff
    e630:	ffff ffff 			; <UNDEFINED> instruction: 0xffffffff
    e634:	ffff ffff 			; <UNDEFINED> instruction: 0xffffffff
    e638:	ffff ffff 			; <UNDEFINED> instruction: 0xffffffff
    e63c:	ffff ffff 			; <UNDEFINED> instruction: 0xffffffff
    e640:	ffff ffff 			; <UNDEFINED> instruction: 0xffffffff
    e644:	ffff ffff 			; <UNDEFINED> instruction: 0xffffffff
    e648:	ffff ffff 			; <UNDEFINED> instruction: 0xffffffff
    e64c:	ffff ffff 			; <UNDEFINED> instruction: 0xffffffff
    e650:	ffff ffff 			; <UNDEFINED> instruction: 0xffffffff
    e654:	ffff ffff 			; <UNDEFINED> instruction: 0xffffffff
    e658:	ffff ffff 			; <UNDEFINED> instruction: 0xffffffff
    e65c:	ffff ffff 			; <UNDEFINED> instruction: 0xffffffff
    e660:	ffff ffff 			; <UNDEFINED> instruction: 0xffffffff
    e664:	ffff ffff 			; <UNDEFINED> instruction: 0xffffffff
    e668:	ffff ffff 			; <UNDEFINED> instruction: 0xffffffff
    e66c:	ffff ffff 			; <UNDEFINED> instruction: 0xffffffff
    e670:	ffff ffff 			; <UNDEFINED> instruction: 0xffffffff
    e674:	ffff ffff 			; <UNDEFINED> instruction: 0xffffffff
    e678:	ffff ffff 			; <UNDEFINED> instruction: 0xffffffff
    e67c:	ffff ffff 			; <UNDEFINED> instruction: 0xffffffff
    e680:	ffff ffff 			; <UNDEFINED> instruction: 0xffffffff
    e684:	ffff ffff 			; <UNDEFINED> instruction: 0xffffffff
    e688:	ffff ffff 			; <UNDEFINED> instruction: 0xffffffff
    e68c:	ffff ffff 			; <UNDEFINED> instruction: 0xffffffff
    e690:	ffff ffff 			; <UNDEFINED> instruction: 0xffffffff
    e694:	ffff ffff 			; <UNDEFINED> instruction: 0xffffffff
    e698:	ffff ffff 			; <UNDEFINED> instruction: 0xffffffff
    e69c:	ffff ffff 			; <UNDEFINED> instruction: 0xffffffff
    e6a0:	ffff ffff 			; <UNDEFINED> instruction: 0xffffffff
    e6a4:	ffff ffff 			; <UNDEFINED> instruction: 0xffffffff
    e6a8:	ffff ffff 			; <UNDEFINED> instruction: 0xffffffff
    e6ac:	ffff ffff 			; <UNDEFINED> instruction: 0xffffffff
    e6b0:	ffff ffff 			; <UNDEFINED> instruction: 0xffffffff
    e6b4:	ffff ffff 			; <UNDEFINED> instruction: 0xffffffff
    e6b8:	ffff ffff 			; <UNDEFINED> instruction: 0xffffffff
    e6bc:	ffff ffff 			; <UNDEFINED> instruction: 0xffffffff
    e6c0:	ffff ffff 			; <UNDEFINED> instruction: 0xffffffff
    e6c4:	ffff ffff 			; <UNDEFINED> instruction: 0xffffffff
    e6c8:	ffff ffff 			; <UNDEFINED> instruction: 0xffffffff
    e6cc:	ffff ffff 			; <UNDEFINED> instruction: 0xffffffff
    e6d0:	ffff ffff 			; <UNDEFINED> instruction: 0xffffffff
    e6d4:	ffff ffff 			; <UNDEFINED> instruction: 0xffffffff
    e6d8:	ffff ffff 			; <UNDEFINED> instruction: 0xffffffff
    e6dc:	ffff ffff 			; <UNDEFINED> instruction: 0xffffffff
    e6e0:	ffff ffff 			; <UNDEFINED> instruction: 0xffffffff
    e6e4:	ffff ffff 			; <UNDEFINED> instruction: 0xffffffff
    e6e8:	ffff ffff 			; <UNDEFINED> instruction: 0xffffffff
    e6ec:	ffff ffff 			; <UNDEFINED> instruction: 0xffffffff
    e6f0:	ffff ffff 			; <UNDEFINED> instruction: 0xffffffff
    e6f4:	ffff ffff 			; <UNDEFINED> instruction: 0xffffffff
    e6f8:	ffff ffff 			; <UNDEFINED> instruction: 0xffffffff
    e6fc:	ffff ffff 			; <UNDEFINED> instruction: 0xffffffff
    e700:	ffff ffff 			; <UNDEFINED> instruction: 0xffffffff
    e704:	ffff ffff 			; <UNDEFINED> instruction: 0xffffffff
    e708:	ffff ffff 			; <UNDEFINED> instruction: 0xffffffff
    e70c:	ffff ffff 			; <UNDEFINED> instruction: 0xffffffff
    e710:	ffff ffff 			; <UNDEFINED> instruction: 0xffffffff
    e714:	ffff ffff 			; <UNDEFINED> instruction: 0xffffffff
    e718:	ffff ffff 			; <UNDEFINED> instruction: 0xffffffff
    e71c:	ffff ffff 			; <UNDEFINED> instruction: 0xffffffff
    e720:	ffff ffff 			; <UNDEFINED> instruction: 0xffffffff
    e724:	ffff ffff 			; <UNDEFINED> instruction: 0xffffffff
    e728:	ffff ffff 			; <UNDEFINED> instruction: 0xffffffff
    e72c:	ffff ffff 			; <UNDEFINED> instruction: 0xffffffff
    e730:	ffff ffff 			; <UNDEFINED> instruction: 0xffffffff
    e734:	ffff ffff 			; <UNDEFINED> instruction: 0xffffffff
    e738:	ffff ffff 			; <UNDEFINED> instruction: 0xffffffff
    e73c:	ffff ffff 			; <UNDEFINED> instruction: 0xffffffff
    e740:	ffff ffff 			; <UNDEFINED> instruction: 0xffffffff
    e744:	ffff ffff 			; <UNDEFINED> instruction: 0xffffffff
    e748:	ffff ffff 			; <UNDEFINED> instruction: 0xffffffff
    e74c:	ffff ffff 			; <UNDEFINED> instruction: 0xffffffff
    e750:	ffff ffff 			; <UNDEFINED> instruction: 0xffffffff
    e754:	ffff ffff 			; <UNDEFINED> instruction: 0xffffffff
    e758:	ffff ffff 			; <UNDEFINED> instruction: 0xffffffff
    e75c:	ffff ffff 			; <UNDEFINED> instruction: 0xffffffff
    e760:	ffff ffff 			; <UNDEFINED> instruction: 0xffffffff
    e764:	ffff ffff 			; <UNDEFINED> instruction: 0xffffffff
    e768:	ffff ffff 			; <UNDEFINED> instruction: 0xffffffff
    e76c:	ffff ffff 			; <UNDEFINED> instruction: 0xffffffff
    e770:	ffff ffff 			; <UNDEFINED> instruction: 0xffffffff
    e774:	ffff ffff 			; <UNDEFINED> instruction: 0xffffffff
    e778:	ffff ffff 			; <UNDEFINED> instruction: 0xffffffff
    e77c:	ffff ffff 			; <UNDEFINED> instruction: 0xffffffff
    e780:	ffff ffff 			; <UNDEFINED> instruction: 0xffffffff
    e784:	ffff ffff 			; <UNDEFINED> instruction: 0xffffffff
    e788:	ffff ffff 			; <UNDEFINED> instruction: 0xffffffff
    e78c:	ffff ffff 			; <UNDEFINED> instruction: 0xffffffff
    e790:	ffff ffff 			; <UNDEFINED> instruction: 0xffffffff
    e794:	ffff ffff 			; <UNDEFINED> instruction: 0xffffffff
    e798:	ffff ffff 			; <UNDEFINED> instruction: 0xffffffff
    e79c:	ffff ffff 			; <UNDEFINED> instruction: 0xffffffff
    e7a0:	ffff ffff 			; <UNDEFINED> instruction: 0xffffffff
    e7a4:	ffff ffff 			; <UNDEFINED> instruction: 0xffffffff
    e7a8:	ffff ffff 			; <UNDEFINED> instruction: 0xffffffff
    e7ac:	ffff ffff 			; <UNDEFINED> instruction: 0xffffffff
    e7b0:	ffff ffff 			; <UNDEFINED> instruction: 0xffffffff
    e7b4:	ffff ffff 			; <UNDEFINED> instruction: 0xffffffff
    e7b8:	ffff ffff 			; <UNDEFINED> instruction: 0xffffffff
    e7bc:	ffff ffff 			; <UNDEFINED> instruction: 0xffffffff
    e7c0:	ffff ffff 			; <UNDEFINED> instruction: 0xffffffff
    e7c4:	ffff ffff 			; <UNDEFINED> instruction: 0xffffffff
    e7c8:	ffff ffff 			; <UNDEFINED> instruction: 0xffffffff
    e7cc:	ffff ffff 			; <UNDEFINED> instruction: 0xffffffff
    e7d0:	ffff ffff 			; <UNDEFINED> instruction: 0xffffffff
    e7d4:	ffff ffff 			; <UNDEFINED> instruction: 0xffffffff
    e7d8:	ffff ffff 			; <UNDEFINED> instruction: 0xffffffff
    e7dc:	ffff ffff 			; <UNDEFINED> instruction: 0xffffffff
    e7e0:	ffff ffff 			; <UNDEFINED> instruction: 0xffffffff
    e7e4:	ffff ffff 			; <UNDEFINED> instruction: 0xffffffff
    e7e8:	ffff ffff 			; <UNDEFINED> instruction: 0xffffffff
    e7ec:	ffff ffff 			; <UNDEFINED> instruction: 0xffffffff
    e7f0:	ffff ffff 			; <UNDEFINED> instruction: 0xffffffff
    e7f4:	ffff ffff 			; <UNDEFINED> instruction: 0xffffffff
    e7f8:	ffff ffff 			; <UNDEFINED> instruction: 0xffffffff
    e7fc:	ffff ffff 			; <UNDEFINED> instruction: 0xffffffff
    e800:	ffff ffff 			; <UNDEFINED> instruction: 0xffffffff
    e804:	ffff ffff 			; <UNDEFINED> instruction: 0xffffffff
    e808:	ffff ffff 			; <UNDEFINED> instruction: 0xffffffff
    e80c:	ffff ffff 			; <UNDEFINED> instruction: 0xffffffff
    e810:	ffff ffff 			; <UNDEFINED> instruction: 0xffffffff
    e814:	ffff ffff 			; <UNDEFINED> instruction: 0xffffffff
    e818:	ffff ffff 			; <UNDEFINED> instruction: 0xffffffff
    e81c:	ffff ffff 			; <UNDEFINED> instruction: 0xffffffff
    e820:	ffff ffff 			; <UNDEFINED> instruction: 0xffffffff
    e824:	ffff ffff 			; <UNDEFINED> instruction: 0xffffffff
    e828:	ffff ffff 			; <UNDEFINED> instruction: 0xffffffff
    e82c:	ffff ffff 			; <UNDEFINED> instruction: 0xffffffff
    e830:	ffff ffff 			; <UNDEFINED> instruction: 0xffffffff
    e834:	ffff ffff 			; <UNDEFINED> instruction: 0xffffffff
    e838:	ffff ffff 			; <UNDEFINED> instruction: 0xffffffff
    e83c:	ffff ffff 			; <UNDEFINED> instruction: 0xffffffff
    e840:	ffff ffff 			; <UNDEFINED> instruction: 0xffffffff
    e844:	ffff ffff 			; <UNDEFINED> instruction: 0xffffffff
    e848:	ffff ffff 			; <UNDEFINED> instruction: 0xffffffff
    e84c:	ffff ffff 			; <UNDEFINED> instruction: 0xffffffff
    e850:	ffff ffff 			; <UNDEFINED> instruction: 0xffffffff
    e854:	ffff ffff 			; <UNDEFINED> instruction: 0xffffffff
    e858:	ffff ffff 			; <UNDEFINED> instruction: 0xffffffff
    e85c:	ffff ffff 			; <UNDEFINED> instruction: 0xffffffff
    e860:	ffff ffff 			; <UNDEFINED> instruction: 0xffffffff
    e864:	ffff ffff 			; <UNDEFINED> instruction: 0xffffffff
    e868:	ffff ffff 			; <UNDEFINED> instruction: 0xffffffff
    e86c:	ffff ffff 			; <UNDEFINED> instruction: 0xffffffff
    e870:	ffff ffff 			; <UNDEFINED> instruction: 0xffffffff
    e874:	ffff ffff 			; <UNDEFINED> instruction: 0xffffffff
    e878:	ffff ffff 			; <UNDEFINED> instruction: 0xffffffff
    e87c:	ffff ffff 			; <UNDEFINED> instruction: 0xffffffff
    e880:	ffff ffff 			; <UNDEFINED> instruction: 0xffffffff
    e884:	ffff ffff 			; <UNDEFINED> instruction: 0xffffffff
    e888:	ffff ffff 			; <UNDEFINED> instruction: 0xffffffff
    e88c:	ffff ffff 			; <UNDEFINED> instruction: 0xffffffff
    e890:	ffff ffff 			; <UNDEFINED> instruction: 0xffffffff
    e894:	ffff ffff 			; <UNDEFINED> instruction: 0xffffffff
    e898:	ffff ffff 			; <UNDEFINED> instruction: 0xffffffff
    e89c:	ffff ffff 			; <UNDEFINED> instruction: 0xffffffff
    e8a0:	ffff ffff 			; <UNDEFINED> instruction: 0xffffffff
    e8a4:	ffff ffff 			; <UNDEFINED> instruction: 0xffffffff
    e8a8:	ffff ffff 			; <UNDEFINED> instruction: 0xffffffff
    e8ac:	ffff ffff 			; <UNDEFINED> instruction: 0xffffffff
    e8b0:	ffff ffff 			; <UNDEFINED> instruction: 0xffffffff
    e8b4:	ffff ffff 			; <UNDEFINED> instruction: 0xffffffff
    e8b8:	ffff ffff 			; <UNDEFINED> instruction: 0xffffffff
    e8bc:	ffff ffff 			; <UNDEFINED> instruction: 0xffffffff
    e8c0:	ffff ffff 			; <UNDEFINED> instruction: 0xffffffff
    e8c4:	ffff ffff 			; <UNDEFINED> instruction: 0xffffffff
    e8c8:	ffff ffff 			; <UNDEFINED> instruction: 0xffffffff
    e8cc:	ffff ffff 			; <UNDEFINED> instruction: 0xffffffff
    e8d0:	ffff ffff 			; <UNDEFINED> instruction: 0xffffffff
    e8d4:	ffff ffff 			; <UNDEFINED> instruction: 0xffffffff
    e8d8:	ffff ffff 			; <UNDEFINED> instruction: 0xffffffff
    e8dc:	ffff ffff 			; <UNDEFINED> instruction: 0xffffffff
    e8e0:	ffff ffff 			; <UNDEFINED> instruction: 0xffffffff
    e8e4:	ffff ffff 			; <UNDEFINED> instruction: 0xffffffff
    e8e8:	ffff ffff 			; <UNDEFINED> instruction: 0xffffffff
    e8ec:	ffff ffff 			; <UNDEFINED> instruction: 0xffffffff
    e8f0:	ffff ffff 			; <UNDEFINED> instruction: 0xffffffff
    e8f4:	ffff ffff 			; <UNDEFINED> instruction: 0xffffffff
    e8f8:	ffff ffff 			; <UNDEFINED> instruction: 0xffffffff
    e8fc:	ffff ffff 			; <UNDEFINED> instruction: 0xffffffff
    e900:	ffff ffff 			; <UNDEFINED> instruction: 0xffffffff
    e904:	ffff ffff 			; <UNDEFINED> instruction: 0xffffffff
    e908:	ffff ffff 			; <UNDEFINED> instruction: 0xffffffff
    e90c:	ffff ffff 			; <UNDEFINED> instruction: 0xffffffff
    e910:	ffff ffff 			; <UNDEFINED> instruction: 0xffffffff
    e914:	ffff ffff 			; <UNDEFINED> instruction: 0xffffffff
    e918:	ffff ffff 			; <UNDEFINED> instruction: 0xffffffff
    e91c:	ffff ffff 			; <UNDEFINED> instruction: 0xffffffff
    e920:	ffff ffff 			; <UNDEFINED> instruction: 0xffffffff
    e924:	ffff ffff 			; <UNDEFINED> instruction: 0xffffffff
    e928:	ffff ffff 			; <UNDEFINED> instruction: 0xffffffff
    e92c:	ffff ffff 			; <UNDEFINED> instruction: 0xffffffff
    e930:	ffff ffff 			; <UNDEFINED> instruction: 0xffffffff
    e934:	ffff ffff 			; <UNDEFINED> instruction: 0xffffffff
    e938:	ffff ffff 			; <UNDEFINED> instruction: 0xffffffff
    e93c:	ffff ffff 			; <UNDEFINED> instruction: 0xffffffff
    e940:	ffff ffff 			; <UNDEFINED> instruction: 0xffffffff
    e944:	ffff ffff 			; <UNDEFINED> instruction: 0xffffffff
    e948:	ffff ffff 			; <UNDEFINED> instruction: 0xffffffff
    e94c:	ffff ffff 			; <UNDEFINED> instruction: 0xffffffff
    e950:	ffff ffff 			; <UNDEFINED> instruction: 0xffffffff
    e954:	ffff ffff 			; <UNDEFINED> instruction: 0xffffffff
    e958:	ffff ffff 			; <UNDEFINED> instruction: 0xffffffff
    e95c:	ffff ffff 			; <UNDEFINED> instruction: 0xffffffff
    e960:	ffff ffff 			; <UNDEFINED> instruction: 0xffffffff
    e964:	ffff ffff 			; <UNDEFINED> instruction: 0xffffffff
    e968:	ffff ffff 			; <UNDEFINED> instruction: 0xffffffff
    e96c:	ffff ffff 			; <UNDEFINED> instruction: 0xffffffff
    e970:	ffff ffff 			; <UNDEFINED> instruction: 0xffffffff
    e974:	ffff ffff 			; <UNDEFINED> instruction: 0xffffffff
    e978:	ffff ffff 			; <UNDEFINED> instruction: 0xffffffff
    e97c:	ffff ffff 			; <UNDEFINED> instruction: 0xffffffff
    e980:	ffff ffff 			; <UNDEFINED> instruction: 0xffffffff
    e984:	ffff ffff 			; <UNDEFINED> instruction: 0xffffffff
    e988:	ffff ffff 			; <UNDEFINED> instruction: 0xffffffff
    e98c:	ffff ffff 			; <UNDEFINED> instruction: 0xffffffff
    e990:	ffff ffff 			; <UNDEFINED> instruction: 0xffffffff
    e994:	ffff ffff 			; <UNDEFINED> instruction: 0xffffffff
    e998:	ffff ffff 			; <UNDEFINED> instruction: 0xffffffff
    e99c:	ffff ffff 			; <UNDEFINED> instruction: 0xffffffff
    e9a0:	ffff ffff 			; <UNDEFINED> instruction: 0xffffffff
    e9a4:	ffff ffff 			; <UNDEFINED> instruction: 0xffffffff
    e9a8:	ffff ffff 			; <UNDEFINED> instruction: 0xffffffff
    e9ac:	ffff ffff 			; <UNDEFINED> instruction: 0xffffffff
    e9b0:	ffff ffff 			; <UNDEFINED> instruction: 0xffffffff
    e9b4:	ffff ffff 			; <UNDEFINED> instruction: 0xffffffff
    e9b8:	ffff ffff 			; <UNDEFINED> instruction: 0xffffffff
    e9bc:	ffff ffff 			; <UNDEFINED> instruction: 0xffffffff
    e9c0:	ffff ffff 			; <UNDEFINED> instruction: 0xffffffff
    e9c4:	ffff ffff 			; <UNDEFINED> instruction: 0xffffffff
    e9c8:	ffff ffff 			; <UNDEFINED> instruction: 0xffffffff
    e9cc:	ffff ffff 			; <UNDEFINED> instruction: 0xffffffff
    e9d0:	ffff ffff 			; <UNDEFINED> instruction: 0xffffffff
    e9d4:	ffff ffff 			; <UNDEFINED> instruction: 0xffffffff
    e9d8:	ffff ffff 			; <UNDEFINED> instruction: 0xffffffff
    e9dc:	ffff ffff 			; <UNDEFINED> instruction: 0xffffffff
    e9e0:	ffff ffff 			; <UNDEFINED> instruction: 0xffffffff
    e9e4:	ffff ffff 			; <UNDEFINED> instruction: 0xffffffff
    e9e8:	ffff ffff 			; <UNDEFINED> instruction: 0xffffffff
    e9ec:	ffff ffff 			; <UNDEFINED> instruction: 0xffffffff
    e9f0:	ffff ffff 			; <UNDEFINED> instruction: 0xffffffff
    e9f4:	ffff ffff 			; <UNDEFINED> instruction: 0xffffffff
    e9f8:	ffff ffff 			; <UNDEFINED> instruction: 0xffffffff
    e9fc:	ffff ffff 			; <UNDEFINED> instruction: 0xffffffff
    ea00:	ffff ffff 			; <UNDEFINED> instruction: 0xffffffff
    ea04:	ffff ffff 			; <UNDEFINED> instruction: 0xffffffff
    ea08:	ffff ffff 			; <UNDEFINED> instruction: 0xffffffff
    ea0c:	ffff ffff 			; <UNDEFINED> instruction: 0xffffffff
    ea10:	ffff ffff 			; <UNDEFINED> instruction: 0xffffffff
    ea14:	ffff ffff 			; <UNDEFINED> instruction: 0xffffffff
    ea18:	ffff ffff 			; <UNDEFINED> instruction: 0xffffffff
    ea1c:	ffff ffff 			; <UNDEFINED> instruction: 0xffffffff
    ea20:	ffff ffff 			; <UNDEFINED> instruction: 0xffffffff
    ea24:	ffff ffff 			; <UNDEFINED> instruction: 0xffffffff
    ea28:	ffff ffff 			; <UNDEFINED> instruction: 0xffffffff
    ea2c:	ffff ffff 			; <UNDEFINED> instruction: 0xffffffff
    ea30:	ffff ffff 			; <UNDEFINED> instruction: 0xffffffff
    ea34:	ffff ffff 			; <UNDEFINED> instruction: 0xffffffff
    ea38:	ffff ffff 			; <UNDEFINED> instruction: 0xffffffff
    ea3c:	ffff ffff 			; <UNDEFINED> instruction: 0xffffffff
    ea40:	ffff ffff 			; <UNDEFINED> instruction: 0xffffffff
    ea44:	ffff ffff 			; <UNDEFINED> instruction: 0xffffffff
    ea48:	ffff ffff 			; <UNDEFINED> instruction: 0xffffffff
    ea4c:	ffff ffff 			; <UNDEFINED> instruction: 0xffffffff
    ea50:	ffff ffff 			; <UNDEFINED> instruction: 0xffffffff
    ea54:	ffff ffff 			; <UNDEFINED> instruction: 0xffffffff
    ea58:	ffff ffff 			; <UNDEFINED> instruction: 0xffffffff
    ea5c:	ffff ffff 			; <UNDEFINED> instruction: 0xffffffff
    ea60:	ffff ffff 			; <UNDEFINED> instruction: 0xffffffff
    ea64:	ffff ffff 			; <UNDEFINED> instruction: 0xffffffff
    ea68:	ffff ffff 			; <UNDEFINED> instruction: 0xffffffff
    ea6c:	ffff ffff 			; <UNDEFINED> instruction: 0xffffffff
    ea70:	ffff ffff 			; <UNDEFINED> instruction: 0xffffffff
    ea74:	ffff ffff 			; <UNDEFINED> instruction: 0xffffffff
    ea78:	ffff ffff 			; <UNDEFINED> instruction: 0xffffffff
    ea7c:	ffff ffff 			; <UNDEFINED> instruction: 0xffffffff
    ea80:	ffff ffff 			; <UNDEFINED> instruction: 0xffffffff
    ea84:	ffff ffff 			; <UNDEFINED> instruction: 0xffffffff
    ea88:	ffff ffff 			; <UNDEFINED> instruction: 0xffffffff
    ea8c:	ffff ffff 			; <UNDEFINED> instruction: 0xffffffff
    ea90:	ffff ffff 			; <UNDEFINED> instruction: 0xffffffff
    ea94:	ffff ffff 			; <UNDEFINED> instruction: 0xffffffff
    ea98:	ffff ffff 			; <UNDEFINED> instruction: 0xffffffff
    ea9c:	ffff ffff 			; <UNDEFINED> instruction: 0xffffffff
    eaa0:	ffff ffff 			; <UNDEFINED> instruction: 0xffffffff
    eaa4:	ffff ffff 			; <UNDEFINED> instruction: 0xffffffff
    eaa8:	ffff ffff 			; <UNDEFINED> instruction: 0xffffffff
    eaac:	ffff ffff 			; <UNDEFINED> instruction: 0xffffffff
    eab0:	ffff ffff 			; <UNDEFINED> instruction: 0xffffffff
    eab4:	ffff ffff 			; <UNDEFINED> instruction: 0xffffffff
    eab8:	ffff ffff 			; <UNDEFINED> instruction: 0xffffffff
    eabc:	ffff ffff 			; <UNDEFINED> instruction: 0xffffffff
    eac0:	ffff ffff 			; <UNDEFINED> instruction: 0xffffffff
    eac4:	ffff ffff 			; <UNDEFINED> instruction: 0xffffffff
    eac8:	ffff ffff 			; <UNDEFINED> instruction: 0xffffffff
    eacc:	ffff ffff 			; <UNDEFINED> instruction: 0xffffffff
    ead0:	ffff ffff 			; <UNDEFINED> instruction: 0xffffffff
    ead4:	ffff ffff 			; <UNDEFINED> instruction: 0xffffffff
    ead8:	ffff ffff 			; <UNDEFINED> instruction: 0xffffffff
    eadc:	ffff ffff 			; <UNDEFINED> instruction: 0xffffffff
    eae0:	ffff ffff 			; <UNDEFINED> instruction: 0xffffffff
    eae4:	ffff ffff 			; <UNDEFINED> instruction: 0xffffffff
    eae8:	ffff ffff 			; <UNDEFINED> instruction: 0xffffffff
    eaec:	ffff ffff 			; <UNDEFINED> instruction: 0xffffffff
    eaf0:	ffff ffff 			; <UNDEFINED> instruction: 0xffffffff
    eaf4:	ffff ffff 			; <UNDEFINED> instruction: 0xffffffff
    eaf8:	ffff ffff 			; <UNDEFINED> instruction: 0xffffffff
    eafc:	ffff ffff 			; <UNDEFINED> instruction: 0xffffffff
    eb00:	ffff ffff 			; <UNDEFINED> instruction: 0xffffffff
    eb04:	ffff ffff 			; <UNDEFINED> instruction: 0xffffffff
    eb08:	ffff ffff 			; <UNDEFINED> instruction: 0xffffffff
    eb0c:	ffff ffff 			; <UNDEFINED> instruction: 0xffffffff
    eb10:	ffff ffff 			; <UNDEFINED> instruction: 0xffffffff
    eb14:	ffff ffff 			; <UNDEFINED> instruction: 0xffffffff
    eb18:	ffff ffff 			; <UNDEFINED> instruction: 0xffffffff
    eb1c:	ffff ffff 			; <UNDEFINED> instruction: 0xffffffff
    eb20:	ffff ffff 			; <UNDEFINED> instruction: 0xffffffff
    eb24:	ffff ffff 			; <UNDEFINED> instruction: 0xffffffff
    eb28:	ffff ffff 			; <UNDEFINED> instruction: 0xffffffff
    eb2c:	ffff ffff 			; <UNDEFINED> instruction: 0xffffffff
    eb30:	ffff ffff 			; <UNDEFINED> instruction: 0xffffffff
    eb34:	ffff ffff 			; <UNDEFINED> instruction: 0xffffffff
    eb38:	ffff ffff 			; <UNDEFINED> instruction: 0xffffffff
    eb3c:	ffff ffff 			; <UNDEFINED> instruction: 0xffffffff
    eb40:	ffff ffff 			; <UNDEFINED> instruction: 0xffffffff
    eb44:	ffff ffff 			; <UNDEFINED> instruction: 0xffffffff
    eb48:	ffff ffff 			; <UNDEFINED> instruction: 0xffffffff
    eb4c:	ffff ffff 			; <UNDEFINED> instruction: 0xffffffff
    eb50:	ffff ffff 			; <UNDEFINED> instruction: 0xffffffff
    eb54:	ffff ffff 			; <UNDEFINED> instruction: 0xffffffff
    eb58:	ffff ffff 			; <UNDEFINED> instruction: 0xffffffff
    eb5c:	ffff ffff 			; <UNDEFINED> instruction: 0xffffffff
    eb60:	ffff ffff 			; <UNDEFINED> instruction: 0xffffffff
    eb64:	ffff ffff 			; <UNDEFINED> instruction: 0xffffffff
    eb68:	ffff ffff 			; <UNDEFINED> instruction: 0xffffffff
    eb6c:	ffff ffff 			; <UNDEFINED> instruction: 0xffffffff
    eb70:	ffff ffff 			; <UNDEFINED> instruction: 0xffffffff
    eb74:	ffff ffff 			; <UNDEFINED> instruction: 0xffffffff
    eb78:	ffff ffff 			; <UNDEFINED> instruction: 0xffffffff
    eb7c:	ffff ffff 			; <UNDEFINED> instruction: 0xffffffff
    eb80:	ffff ffff 			; <UNDEFINED> instruction: 0xffffffff
    eb84:	ffff ffff 			; <UNDEFINED> instruction: 0xffffffff
    eb88:	ffff ffff 			; <UNDEFINED> instruction: 0xffffffff
    eb8c:	ffff ffff 			; <UNDEFINED> instruction: 0xffffffff
    eb90:	ffff ffff 			; <UNDEFINED> instruction: 0xffffffff
    eb94:	ffff ffff 			; <UNDEFINED> instruction: 0xffffffff
    eb98:	ffff ffff 			; <UNDEFINED> instruction: 0xffffffff
    eb9c:	ffff ffff 			; <UNDEFINED> instruction: 0xffffffff
    eba0:	ffff ffff 			; <UNDEFINED> instruction: 0xffffffff
    eba4:	ffff ffff 			; <UNDEFINED> instruction: 0xffffffff
    eba8:	ffff ffff 			; <UNDEFINED> instruction: 0xffffffff
    ebac:	ffff ffff 			; <UNDEFINED> instruction: 0xffffffff
    ebb0:	ffff ffff 			; <UNDEFINED> instruction: 0xffffffff
    ebb4:	ffff ffff 			; <UNDEFINED> instruction: 0xffffffff
    ebb8:	ffff ffff 			; <UNDEFINED> instruction: 0xffffffff
    ebbc:	ffff ffff 			; <UNDEFINED> instruction: 0xffffffff
    ebc0:	ffff ffff 			; <UNDEFINED> instruction: 0xffffffff
    ebc4:	ffff ffff 			; <UNDEFINED> instruction: 0xffffffff
    ebc8:	ffff ffff 			; <UNDEFINED> instruction: 0xffffffff
    ebcc:	ffff ffff 			; <UNDEFINED> instruction: 0xffffffff
    ebd0:	ffff ffff 			; <UNDEFINED> instruction: 0xffffffff
    ebd4:	ffff ffff 			; <UNDEFINED> instruction: 0xffffffff
    ebd8:	ffff ffff 			; <UNDEFINED> instruction: 0xffffffff
    ebdc:	ffff ffff 			; <UNDEFINED> instruction: 0xffffffff
    ebe0:	ffff ffff 			; <UNDEFINED> instruction: 0xffffffff
    ebe4:	ffff ffff 			; <UNDEFINED> instruction: 0xffffffff
    ebe8:	ffff ffff 			; <UNDEFINED> instruction: 0xffffffff
    ebec:	ffff ffff 			; <UNDEFINED> instruction: 0xffffffff
    ebf0:	ffff ffff 			; <UNDEFINED> instruction: 0xffffffff
    ebf4:	ffff ffff 			; <UNDEFINED> instruction: 0xffffffff
    ebf8:	ffff ffff 			; <UNDEFINED> instruction: 0xffffffff
    ebfc:	ffff ffff 			; <UNDEFINED> instruction: 0xffffffff
    ec00:	ffff ffff 			; <UNDEFINED> instruction: 0xffffffff
    ec04:	ffff ffff 			; <UNDEFINED> instruction: 0xffffffff
    ec08:	ffff ffff 			; <UNDEFINED> instruction: 0xffffffff
    ec0c:	ffff ffff 			; <UNDEFINED> instruction: 0xffffffff
    ec10:	ffff ffff 			; <UNDEFINED> instruction: 0xffffffff
    ec14:	ffff ffff 			; <UNDEFINED> instruction: 0xffffffff
    ec18:	ffff ffff 			; <UNDEFINED> instruction: 0xffffffff
    ec1c:	ffff ffff 			; <UNDEFINED> instruction: 0xffffffff
    ec20:	ffff ffff 			; <UNDEFINED> instruction: 0xffffffff
    ec24:	ffff ffff 			; <UNDEFINED> instruction: 0xffffffff
    ec28:	ffff ffff 			; <UNDEFINED> instruction: 0xffffffff
    ec2c:	ffff ffff 			; <UNDEFINED> instruction: 0xffffffff
    ec30:	ffff ffff 			; <UNDEFINED> instruction: 0xffffffff
    ec34:	ffff ffff 			; <UNDEFINED> instruction: 0xffffffff
    ec38:	ffff ffff 			; <UNDEFINED> instruction: 0xffffffff
    ec3c:	ffff ffff 			; <UNDEFINED> instruction: 0xffffffff
    ec40:	ffff ffff 			; <UNDEFINED> instruction: 0xffffffff
    ec44:	ffff ffff 			; <UNDEFINED> instruction: 0xffffffff
    ec48:	ffff ffff 			; <UNDEFINED> instruction: 0xffffffff
    ec4c:	ffff ffff 			; <UNDEFINED> instruction: 0xffffffff
    ec50:	ffff ffff 			; <UNDEFINED> instruction: 0xffffffff
    ec54:	ffff ffff 			; <UNDEFINED> instruction: 0xffffffff
    ec58:	ffff ffff 			; <UNDEFINED> instruction: 0xffffffff
    ec5c:	ffff ffff 			; <UNDEFINED> instruction: 0xffffffff
    ec60:	ffff ffff 			; <UNDEFINED> instruction: 0xffffffff
    ec64:	ffff ffff 			; <UNDEFINED> instruction: 0xffffffff
    ec68:	ffff ffff 			; <UNDEFINED> instruction: 0xffffffff
    ec6c:	ffff ffff 			; <UNDEFINED> instruction: 0xffffffff
    ec70:	ffff ffff 			; <UNDEFINED> instruction: 0xffffffff
    ec74:	ffff ffff 			; <UNDEFINED> instruction: 0xffffffff
    ec78:	ffff ffff 			; <UNDEFINED> instruction: 0xffffffff
    ec7c:	ffff ffff 			; <UNDEFINED> instruction: 0xffffffff
    ec80:	ffff ffff 			; <UNDEFINED> instruction: 0xffffffff
    ec84:	ffff ffff 			; <UNDEFINED> instruction: 0xffffffff
    ec88:	ffff ffff 			; <UNDEFINED> instruction: 0xffffffff
    ec8c:	ffff ffff 			; <UNDEFINED> instruction: 0xffffffff
    ec90:	ffff ffff 			; <UNDEFINED> instruction: 0xffffffff
    ec94:	ffff ffff 			; <UNDEFINED> instruction: 0xffffffff
    ec98:	ffff ffff 			; <UNDEFINED> instruction: 0xffffffff
    ec9c:	ffff ffff 			; <UNDEFINED> instruction: 0xffffffff
    eca0:	ffff ffff 			; <UNDEFINED> instruction: 0xffffffff
    eca4:	ffff ffff 			; <UNDEFINED> instruction: 0xffffffff
    eca8:	ffff ffff 			; <UNDEFINED> instruction: 0xffffffff
    ecac:	ffff ffff 			; <UNDEFINED> instruction: 0xffffffff
    ecb0:	ffff ffff 			; <UNDEFINED> instruction: 0xffffffff
    ecb4:	ffff ffff 			; <UNDEFINED> instruction: 0xffffffff
    ecb8:	ffff ffff 			; <UNDEFINED> instruction: 0xffffffff
    ecbc:	ffff ffff 			; <UNDEFINED> instruction: 0xffffffff
    ecc0:	ffff ffff 			; <UNDEFINED> instruction: 0xffffffff
    ecc4:	ffff ffff 			; <UNDEFINED> instruction: 0xffffffff
    ecc8:	ffff ffff 			; <UNDEFINED> instruction: 0xffffffff
    eccc:	ffff ffff 			; <UNDEFINED> instruction: 0xffffffff
    ecd0:	ffff ffff 			; <UNDEFINED> instruction: 0xffffffff
    ecd4:	ffff ffff 			; <UNDEFINED> instruction: 0xffffffff
    ecd8:	ffff ffff 			; <UNDEFINED> instruction: 0xffffffff
    ecdc:	ffff ffff 			; <UNDEFINED> instruction: 0xffffffff
    ece0:	ffff ffff 			; <UNDEFINED> instruction: 0xffffffff
    ece4:	ffff ffff 			; <UNDEFINED> instruction: 0xffffffff
    ece8:	ffff ffff 			; <UNDEFINED> instruction: 0xffffffff
    ecec:	ffff ffff 			; <UNDEFINED> instruction: 0xffffffff
    ecf0:	ffff ffff 			; <UNDEFINED> instruction: 0xffffffff
    ecf4:	ffff ffff 			; <UNDEFINED> instruction: 0xffffffff
    ecf8:	ffff ffff 			; <UNDEFINED> instruction: 0xffffffff
    ecfc:	ffff ffff 			; <UNDEFINED> instruction: 0xffffffff
    ed00:	ffff ffff 			; <UNDEFINED> instruction: 0xffffffff
    ed04:	ffff ffff 			; <UNDEFINED> instruction: 0xffffffff
    ed08:	ffff ffff 			; <UNDEFINED> instruction: 0xffffffff
    ed0c:	ffff ffff 			; <UNDEFINED> instruction: 0xffffffff
    ed10:	ffff ffff 			; <UNDEFINED> instruction: 0xffffffff
    ed14:	ffff ffff 			; <UNDEFINED> instruction: 0xffffffff
    ed18:	ffff ffff 			; <UNDEFINED> instruction: 0xffffffff
    ed1c:	ffff ffff 			; <UNDEFINED> instruction: 0xffffffff
    ed20:	ffff ffff 			; <UNDEFINED> instruction: 0xffffffff
    ed24:	ffff ffff 			; <UNDEFINED> instruction: 0xffffffff
    ed28:	ffff ffff 			; <UNDEFINED> instruction: 0xffffffff
    ed2c:	ffff ffff 			; <UNDEFINED> instruction: 0xffffffff
    ed30:	ffff ffff 			; <UNDEFINED> instruction: 0xffffffff
    ed34:	ffff ffff 			; <UNDEFINED> instruction: 0xffffffff
    ed38:	ffff ffff 			; <UNDEFINED> instruction: 0xffffffff
    ed3c:	ffff ffff 			; <UNDEFINED> instruction: 0xffffffff
    ed40:	ffff ffff 			; <UNDEFINED> instruction: 0xffffffff
    ed44:	ffff ffff 			; <UNDEFINED> instruction: 0xffffffff
    ed48:	ffff ffff 			; <UNDEFINED> instruction: 0xffffffff
    ed4c:	ffff ffff 			; <UNDEFINED> instruction: 0xffffffff
    ed50:	ffff ffff 			; <UNDEFINED> instruction: 0xffffffff
    ed54:	ffff ffff 			; <UNDEFINED> instruction: 0xffffffff
    ed58:	ffff ffff 			; <UNDEFINED> instruction: 0xffffffff
    ed5c:	ffff ffff 			; <UNDEFINED> instruction: 0xffffffff
    ed60:	ffff ffff 			; <UNDEFINED> instruction: 0xffffffff
    ed64:	ffff ffff 			; <UNDEFINED> instruction: 0xffffffff
    ed68:	ffff ffff 			; <UNDEFINED> instruction: 0xffffffff
    ed6c:	ffff ffff 			; <UNDEFINED> instruction: 0xffffffff
    ed70:	ffff ffff 			; <UNDEFINED> instruction: 0xffffffff
    ed74:	ffff ffff 			; <UNDEFINED> instruction: 0xffffffff
    ed78:	ffff ffff 			; <UNDEFINED> instruction: 0xffffffff
    ed7c:	ffff ffff 			; <UNDEFINED> instruction: 0xffffffff
    ed80:	ffff ffff 			; <UNDEFINED> instruction: 0xffffffff
    ed84:	ffff ffff 			; <UNDEFINED> instruction: 0xffffffff
    ed88:	ffff ffff 			; <UNDEFINED> instruction: 0xffffffff
    ed8c:	ffff ffff 			; <UNDEFINED> instruction: 0xffffffff
    ed90:	ffff ffff 			; <UNDEFINED> instruction: 0xffffffff
    ed94:	ffff ffff 			; <UNDEFINED> instruction: 0xffffffff
    ed98:	ffff ffff 			; <UNDEFINED> instruction: 0xffffffff
    ed9c:	ffff ffff 			; <UNDEFINED> instruction: 0xffffffff
    eda0:	ffff ffff 			; <UNDEFINED> instruction: 0xffffffff
    eda4:	ffff ffff 			; <UNDEFINED> instruction: 0xffffffff
    eda8:	ffff ffff 			; <UNDEFINED> instruction: 0xffffffff
    edac:	ffff ffff 			; <UNDEFINED> instruction: 0xffffffff
    edb0:	ffff ffff 			; <UNDEFINED> instruction: 0xffffffff
    edb4:	ffff ffff 			; <UNDEFINED> instruction: 0xffffffff
    edb8:	ffff ffff 			; <UNDEFINED> instruction: 0xffffffff
    edbc:	ffff ffff 			; <UNDEFINED> instruction: 0xffffffff
    edc0:	ffff ffff 			; <UNDEFINED> instruction: 0xffffffff
    edc4:	ffff ffff 			; <UNDEFINED> instruction: 0xffffffff
    edc8:	ffff ffff 			; <UNDEFINED> instruction: 0xffffffff
    edcc:	ffff ffff 			; <UNDEFINED> instruction: 0xffffffff
    edd0:	ffff ffff 			; <UNDEFINED> instruction: 0xffffffff
    edd4:	ffff ffff 			; <UNDEFINED> instruction: 0xffffffff
    edd8:	ffff ffff 			; <UNDEFINED> instruction: 0xffffffff
    eddc:	ffff ffff 			; <UNDEFINED> instruction: 0xffffffff
    ede0:	ffff ffff 			; <UNDEFINED> instruction: 0xffffffff
    ede4:	ffff ffff 			; <UNDEFINED> instruction: 0xffffffff
    ede8:	ffff ffff 			; <UNDEFINED> instruction: 0xffffffff
    edec:	ffff ffff 			; <UNDEFINED> instruction: 0xffffffff
    edf0:	ffff ffff 			; <UNDEFINED> instruction: 0xffffffff
    edf4:	ffff ffff 			; <UNDEFINED> instruction: 0xffffffff
    edf8:	ffff ffff 			; <UNDEFINED> instruction: 0xffffffff
    edfc:	ffff ffff 			; <UNDEFINED> instruction: 0xffffffff
    ee00:	ffff ffff 			; <UNDEFINED> instruction: 0xffffffff
    ee04:	ffff ffff 			; <UNDEFINED> instruction: 0xffffffff
    ee08:	ffff ffff 			; <UNDEFINED> instruction: 0xffffffff
    ee0c:	ffff ffff 			; <UNDEFINED> instruction: 0xffffffff
    ee10:	ffff ffff 			; <UNDEFINED> instruction: 0xffffffff
    ee14:	ffff ffff 			; <UNDEFINED> instruction: 0xffffffff
    ee18:	ffff ffff 			; <UNDEFINED> instruction: 0xffffffff
    ee1c:	ffff ffff 			; <UNDEFINED> instruction: 0xffffffff
    ee20:	ffff ffff 			; <UNDEFINED> instruction: 0xffffffff
    ee24:	ffff ffff 			; <UNDEFINED> instruction: 0xffffffff
    ee28:	ffff ffff 			; <UNDEFINED> instruction: 0xffffffff
    ee2c:	ffff ffff 			; <UNDEFINED> instruction: 0xffffffff
    ee30:	ffff ffff 			; <UNDEFINED> instruction: 0xffffffff
    ee34:	ffff ffff 			; <UNDEFINED> instruction: 0xffffffff
    ee38:	ffff ffff 			; <UNDEFINED> instruction: 0xffffffff
    ee3c:	ffff ffff 			; <UNDEFINED> instruction: 0xffffffff
    ee40:	ffff ffff 			; <UNDEFINED> instruction: 0xffffffff
    ee44:	ffff ffff 			; <UNDEFINED> instruction: 0xffffffff
    ee48:	ffff ffff 			; <UNDEFINED> instruction: 0xffffffff
    ee4c:	ffff ffff 			; <UNDEFINED> instruction: 0xffffffff
    ee50:	ffff ffff 			; <UNDEFINED> instruction: 0xffffffff
    ee54:	ffff ffff 			; <UNDEFINED> instruction: 0xffffffff
    ee58:	ffff ffff 			; <UNDEFINED> instruction: 0xffffffff
    ee5c:	ffff ffff 			; <UNDEFINED> instruction: 0xffffffff
    ee60:	ffff ffff 			; <UNDEFINED> instruction: 0xffffffff
    ee64:	ffff ffff 			; <UNDEFINED> instruction: 0xffffffff
    ee68:	ffff ffff 			; <UNDEFINED> instruction: 0xffffffff
    ee6c:	ffff ffff 			; <UNDEFINED> instruction: 0xffffffff
    ee70:	ffff ffff 			; <UNDEFINED> instruction: 0xffffffff
    ee74:	ffff ffff 			; <UNDEFINED> instruction: 0xffffffff
    ee78:	ffff ffff 			; <UNDEFINED> instruction: 0xffffffff
    ee7c:	ffff ffff 			; <UNDEFINED> instruction: 0xffffffff
    ee80:	ffff ffff 			; <UNDEFINED> instruction: 0xffffffff
    ee84:	ffff ffff 			; <UNDEFINED> instruction: 0xffffffff
    ee88:	ffff ffff 			; <UNDEFINED> instruction: 0xffffffff
    ee8c:	ffff ffff 			; <UNDEFINED> instruction: 0xffffffff
    ee90:	ffff ffff 			; <UNDEFINED> instruction: 0xffffffff
    ee94:	ffff ffff 			; <UNDEFINED> instruction: 0xffffffff
    ee98:	ffff ffff 			; <UNDEFINED> instruction: 0xffffffff
    ee9c:	ffff ffff 			; <UNDEFINED> instruction: 0xffffffff
    eea0:	ffff ffff 			; <UNDEFINED> instruction: 0xffffffff
    eea4:	ffff ffff 			; <UNDEFINED> instruction: 0xffffffff
    eea8:	ffff ffff 			; <UNDEFINED> instruction: 0xffffffff
    eeac:	ffff ffff 			; <UNDEFINED> instruction: 0xffffffff
    eeb0:	ffff ffff 			; <UNDEFINED> instruction: 0xffffffff
    eeb4:	ffff ffff 			; <UNDEFINED> instruction: 0xffffffff
    eeb8:	ffff ffff 			; <UNDEFINED> instruction: 0xffffffff
    eebc:	ffff ffff 			; <UNDEFINED> instruction: 0xffffffff
    eec0:	ffff ffff 			; <UNDEFINED> instruction: 0xffffffff
    eec4:	ffff ffff 			; <UNDEFINED> instruction: 0xffffffff
    eec8:	ffff ffff 			; <UNDEFINED> instruction: 0xffffffff
    eecc:	ffff ffff 			; <UNDEFINED> instruction: 0xffffffff
    eed0:	ffff ffff 			; <UNDEFINED> instruction: 0xffffffff
    eed4:	ffff ffff 			; <UNDEFINED> instruction: 0xffffffff
    eed8:	ffff ffff 			; <UNDEFINED> instruction: 0xffffffff
    eedc:	ffff ffff 			; <UNDEFINED> instruction: 0xffffffff
    eee0:	ffff ffff 			; <UNDEFINED> instruction: 0xffffffff
    eee4:	ffff ffff 			; <UNDEFINED> instruction: 0xffffffff
    eee8:	ffff ffff 			; <UNDEFINED> instruction: 0xffffffff
    eeec:	ffff ffff 			; <UNDEFINED> instruction: 0xffffffff
    eef0:	ffff ffff 			; <UNDEFINED> instruction: 0xffffffff
    eef4:	ffff ffff 			; <UNDEFINED> instruction: 0xffffffff
    eef8:	ffff ffff 			; <UNDEFINED> instruction: 0xffffffff
    eefc:	ffff ffff 			; <UNDEFINED> instruction: 0xffffffff
    ef00:	ffff ffff 			; <UNDEFINED> instruction: 0xffffffff
    ef04:	ffff ffff 			; <UNDEFINED> instruction: 0xffffffff
    ef08:	ffff ffff 			; <UNDEFINED> instruction: 0xffffffff
    ef0c:	ffff ffff 			; <UNDEFINED> instruction: 0xffffffff
    ef10:	ffff ffff 			; <UNDEFINED> instruction: 0xffffffff
    ef14:	ffff ffff 			; <UNDEFINED> instruction: 0xffffffff
    ef18:	ffff ffff 			; <UNDEFINED> instruction: 0xffffffff
    ef1c:	ffff ffff 			; <UNDEFINED> instruction: 0xffffffff
    ef20:	ffff ffff 			; <UNDEFINED> instruction: 0xffffffff
    ef24:	ffff ffff 			; <UNDEFINED> instruction: 0xffffffff
    ef28:	ffff ffff 			; <UNDEFINED> instruction: 0xffffffff
    ef2c:	ffff ffff 			; <UNDEFINED> instruction: 0xffffffff
    ef30:	ffff ffff 			; <UNDEFINED> instruction: 0xffffffff
    ef34:	ffff ffff 			; <UNDEFINED> instruction: 0xffffffff
    ef38:	ffff ffff 			; <UNDEFINED> instruction: 0xffffffff
    ef3c:	ffff ffff 			; <UNDEFINED> instruction: 0xffffffff
    ef40:	ffff ffff 			; <UNDEFINED> instruction: 0xffffffff
    ef44:	ffff ffff 			; <UNDEFINED> instruction: 0xffffffff
    ef48:	ffff ffff 			; <UNDEFINED> instruction: 0xffffffff
    ef4c:	ffff ffff 			; <UNDEFINED> instruction: 0xffffffff
    ef50:	ffff ffff 			; <UNDEFINED> instruction: 0xffffffff
    ef54:	ffff ffff 			; <UNDEFINED> instruction: 0xffffffff
    ef58:	ffff ffff 			; <UNDEFINED> instruction: 0xffffffff
    ef5c:	ffff ffff 			; <UNDEFINED> instruction: 0xffffffff
    ef60:	ffff ffff 			; <UNDEFINED> instruction: 0xffffffff
    ef64:	ffff ffff 			; <UNDEFINED> instruction: 0xffffffff
    ef68:	ffff ffff 			; <UNDEFINED> instruction: 0xffffffff
    ef6c:	ffff ffff 			; <UNDEFINED> instruction: 0xffffffff
    ef70:	ffff ffff 			; <UNDEFINED> instruction: 0xffffffff
    ef74:	ffff ffff 			; <UNDEFINED> instruction: 0xffffffff
    ef78:	ffff ffff 			; <UNDEFINED> instruction: 0xffffffff
    ef7c:	ffff ffff 			; <UNDEFINED> instruction: 0xffffffff
    ef80:	ffff ffff 			; <UNDEFINED> instruction: 0xffffffff
    ef84:	ffff ffff 			; <UNDEFINED> instruction: 0xffffffff
    ef88:	ffff ffff 			; <UNDEFINED> instruction: 0xffffffff
    ef8c:	ffff ffff 			; <UNDEFINED> instruction: 0xffffffff
    ef90:	ffff ffff 			; <UNDEFINED> instruction: 0xffffffff
    ef94:	ffff ffff 			; <UNDEFINED> instruction: 0xffffffff
    ef98:	ffff ffff 			; <UNDEFINED> instruction: 0xffffffff
    ef9c:	ffff ffff 			; <UNDEFINED> instruction: 0xffffffff
    efa0:	ffff ffff 			; <UNDEFINED> instruction: 0xffffffff
    efa4:	ffff ffff 			; <UNDEFINED> instruction: 0xffffffff
    efa8:	ffff ffff 			; <UNDEFINED> instruction: 0xffffffff
    efac:	ffff ffff 			; <UNDEFINED> instruction: 0xffffffff
    efb0:	ffff ffff 			; <UNDEFINED> instruction: 0xffffffff
    efb4:	ffff ffff 			; <UNDEFINED> instruction: 0xffffffff
    efb8:	ffff ffff 			; <UNDEFINED> instruction: 0xffffffff
    efbc:	ffff ffff 			; <UNDEFINED> instruction: 0xffffffff
    efc0:	ffff ffff 			; <UNDEFINED> instruction: 0xffffffff
    efc4:	ffff ffff 			; <UNDEFINED> instruction: 0xffffffff
    efc8:	ffff ffff 			; <UNDEFINED> instruction: 0xffffffff
    efcc:	ffff ffff 			; <UNDEFINED> instruction: 0xffffffff
    efd0:	ffff ffff 			; <UNDEFINED> instruction: 0xffffffff
    efd4:	ffff ffff 			; <UNDEFINED> instruction: 0xffffffff
    efd8:	ffff ffff 			; <UNDEFINED> instruction: 0xffffffff
    efdc:	ffff ffff 			; <UNDEFINED> instruction: 0xffffffff
    efe0:	ffff ffff 			; <UNDEFINED> instruction: 0xffffffff
    efe4:	ffff ffff 			; <UNDEFINED> instruction: 0xffffffff
    efe8:	ffff ffff 			; <UNDEFINED> instruction: 0xffffffff
    efec:	ffff ffff 			; <UNDEFINED> instruction: 0xffffffff
    eff0:	ffff ffff 			; <UNDEFINED> instruction: 0xffffffff
    eff4:	ffff ffff 			; <UNDEFINED> instruction: 0xffffffff
    eff8:	ffff ffff 			; <UNDEFINED> instruction: 0xffffffff
    effc:	ffff ffff 			; <UNDEFINED> instruction: 0xffffffff
    f000:	ffff ffff 			; <UNDEFINED> instruction: 0xffffffff
    f004:	ffff ffff 			; <UNDEFINED> instruction: 0xffffffff
    f008:	ffff ffff 			; <UNDEFINED> instruction: 0xffffffff
    f00c:	ffff ffff 			; <UNDEFINED> instruction: 0xffffffff
    f010:	ffff ffff 			; <UNDEFINED> instruction: 0xffffffff
    f014:	ffff ffff 			; <UNDEFINED> instruction: 0xffffffff
    f018:	ffff ffff 			; <UNDEFINED> instruction: 0xffffffff
    f01c:	ffff ffff 			; <UNDEFINED> instruction: 0xffffffff
    f020:	ffff ffff 			; <UNDEFINED> instruction: 0xffffffff
    f024:	ffff ffff 			; <UNDEFINED> instruction: 0xffffffff
    f028:	ffff ffff 			; <UNDEFINED> instruction: 0xffffffff
    f02c:	ffff ffff 			; <UNDEFINED> instruction: 0xffffffff
    f030:	ffff ffff 			; <UNDEFINED> instruction: 0xffffffff
    f034:	ffff ffff 			; <UNDEFINED> instruction: 0xffffffff
    f038:	ffff ffff 			; <UNDEFINED> instruction: 0xffffffff
    f03c:	ffff ffff 			; <UNDEFINED> instruction: 0xffffffff
    f040:	ffff ffff 			; <UNDEFINED> instruction: 0xffffffff
    f044:	ffff ffff 			; <UNDEFINED> instruction: 0xffffffff
    f048:	ffff ffff 			; <UNDEFINED> instruction: 0xffffffff
    f04c:	ffff ffff 			; <UNDEFINED> instruction: 0xffffffff
    f050:	ffff ffff 			; <UNDEFINED> instruction: 0xffffffff
    f054:	ffff ffff 			; <UNDEFINED> instruction: 0xffffffff
    f058:	ffff ffff 			; <UNDEFINED> instruction: 0xffffffff
    f05c:	ffff ffff 			; <UNDEFINED> instruction: 0xffffffff
    f060:	ffff ffff 			; <UNDEFINED> instruction: 0xffffffff
    f064:	ffff ffff 			; <UNDEFINED> instruction: 0xffffffff
    f068:	ffff ffff 			; <UNDEFINED> instruction: 0xffffffff
    f06c:	ffff ffff 			; <UNDEFINED> instruction: 0xffffffff
    f070:	ffff ffff 			; <UNDEFINED> instruction: 0xffffffff
    f074:	ffff ffff 			; <UNDEFINED> instruction: 0xffffffff
    f078:	ffff ffff 			; <UNDEFINED> instruction: 0xffffffff
    f07c:	ffff ffff 			; <UNDEFINED> instruction: 0xffffffff
    f080:	ffff ffff 			; <UNDEFINED> instruction: 0xffffffff
    f084:	ffff ffff 			; <UNDEFINED> instruction: 0xffffffff
    f088:	ffff ffff 			; <UNDEFINED> instruction: 0xffffffff
    f08c:	ffff ffff 			; <UNDEFINED> instruction: 0xffffffff
    f090:	ffff ffff 			; <UNDEFINED> instruction: 0xffffffff
    f094:	ffff ffff 			; <UNDEFINED> instruction: 0xffffffff
    f098:	ffff ffff 			; <UNDEFINED> instruction: 0xffffffff
    f09c:	ffff ffff 			; <UNDEFINED> instruction: 0xffffffff
    f0a0:	ffff ffff 			; <UNDEFINED> instruction: 0xffffffff
    f0a4:	ffff ffff 			; <UNDEFINED> instruction: 0xffffffff
    f0a8:	ffff ffff 			; <UNDEFINED> instruction: 0xffffffff
    f0ac:	ffff ffff 			; <UNDEFINED> instruction: 0xffffffff
    f0b0:	ffff ffff 			; <UNDEFINED> instruction: 0xffffffff
    f0b4:	ffff ffff 			; <UNDEFINED> instruction: 0xffffffff
    f0b8:	ffff ffff 			; <UNDEFINED> instruction: 0xffffffff
    f0bc:	ffff ffff 			; <UNDEFINED> instruction: 0xffffffff
    f0c0:	ffff ffff 			; <UNDEFINED> instruction: 0xffffffff
    f0c4:	ffff ffff 			; <UNDEFINED> instruction: 0xffffffff
    f0c8:	ffff ffff 			; <UNDEFINED> instruction: 0xffffffff
    f0cc:	ffff ffff 			; <UNDEFINED> instruction: 0xffffffff
    f0d0:	ffff ffff 			; <UNDEFINED> instruction: 0xffffffff
    f0d4:	ffff ffff 			; <UNDEFINED> instruction: 0xffffffff
    f0d8:	ffff ffff 			; <UNDEFINED> instruction: 0xffffffff
    f0dc:	ffff ffff 			; <UNDEFINED> instruction: 0xffffffff
    f0e0:	ffff ffff 			; <UNDEFINED> instruction: 0xffffffff
    f0e4:	ffff ffff 			; <UNDEFINED> instruction: 0xffffffff
    f0e8:	ffff ffff 			; <UNDEFINED> instruction: 0xffffffff
    f0ec:	ffff ffff 			; <UNDEFINED> instruction: 0xffffffff
    f0f0:	ffff ffff 			; <UNDEFINED> instruction: 0xffffffff
    f0f4:	ffff ffff 			; <UNDEFINED> instruction: 0xffffffff
    f0f8:	ffff ffff 			; <UNDEFINED> instruction: 0xffffffff
    f0fc:	ffff ffff 			; <UNDEFINED> instruction: 0xffffffff
    f100:	ffff ffff 			; <UNDEFINED> instruction: 0xffffffff
    f104:	ffff ffff 			; <UNDEFINED> instruction: 0xffffffff
    f108:	ffff ffff 			; <UNDEFINED> instruction: 0xffffffff
    f10c:	ffff ffff 			; <UNDEFINED> instruction: 0xffffffff
    f110:	ffff ffff 			; <UNDEFINED> instruction: 0xffffffff
    f114:	ffff ffff 			; <UNDEFINED> instruction: 0xffffffff
    f118:	ffff ffff 			; <UNDEFINED> instruction: 0xffffffff
    f11c:	ffff ffff 			; <UNDEFINED> instruction: 0xffffffff
    f120:	ffff ffff 			; <UNDEFINED> instruction: 0xffffffff
    f124:	ffff ffff 			; <UNDEFINED> instruction: 0xffffffff
    f128:	ffff ffff 			; <UNDEFINED> instruction: 0xffffffff
    f12c:	ffff ffff 			; <UNDEFINED> instruction: 0xffffffff
    f130:	ffff ffff 			; <UNDEFINED> instruction: 0xffffffff
    f134:	ffff ffff 			; <UNDEFINED> instruction: 0xffffffff
    f138:	ffff ffff 			; <UNDEFINED> instruction: 0xffffffff
    f13c:	ffff ffff 			; <UNDEFINED> instruction: 0xffffffff
    f140:	ffff ffff 			; <UNDEFINED> instruction: 0xffffffff
    f144:	ffff ffff 			; <UNDEFINED> instruction: 0xffffffff
    f148:	ffff ffff 			; <UNDEFINED> instruction: 0xffffffff
    f14c:	ffff ffff 			; <UNDEFINED> instruction: 0xffffffff
    f150:	ffff ffff 			; <UNDEFINED> instruction: 0xffffffff
    f154:	ffff ffff 			; <UNDEFINED> instruction: 0xffffffff
    f158:	ffff ffff 			; <UNDEFINED> instruction: 0xffffffff
    f15c:	ffff ffff 			; <UNDEFINED> instruction: 0xffffffff
    f160:	ffff ffff 			; <UNDEFINED> instruction: 0xffffffff
    f164:	ffff ffff 			; <UNDEFINED> instruction: 0xffffffff
    f168:	ffff ffff 			; <UNDEFINED> instruction: 0xffffffff
    f16c:	ffff ffff 			; <UNDEFINED> instruction: 0xffffffff
    f170:	ffff ffff 			; <UNDEFINED> instruction: 0xffffffff
    f174:	ffff ffff 			; <UNDEFINED> instruction: 0xffffffff
    f178:	ffff ffff 			; <UNDEFINED> instruction: 0xffffffff
    f17c:	ffff ffff 			; <UNDEFINED> instruction: 0xffffffff
    f180:	ffff ffff 			; <UNDEFINED> instruction: 0xffffffff
    f184:	ffff ffff 			; <UNDEFINED> instruction: 0xffffffff
    f188:	ffff ffff 			; <UNDEFINED> instruction: 0xffffffff
    f18c:	ffff ffff 			; <UNDEFINED> instruction: 0xffffffff
    f190:	ffff ffff 			; <UNDEFINED> instruction: 0xffffffff
    f194:	ffff ffff 			; <UNDEFINED> instruction: 0xffffffff
    f198:	ffff ffff 			; <UNDEFINED> instruction: 0xffffffff
    f19c:	ffff ffff 			; <UNDEFINED> instruction: 0xffffffff
    f1a0:	ffff ffff 			; <UNDEFINED> instruction: 0xffffffff
    f1a4:	ffff ffff 			; <UNDEFINED> instruction: 0xffffffff
    f1a8:	ffff ffff 			; <UNDEFINED> instruction: 0xffffffff
    f1ac:	ffff ffff 			; <UNDEFINED> instruction: 0xffffffff
    f1b0:	ffff ffff 			; <UNDEFINED> instruction: 0xffffffff
    f1b4:	ffff ffff 			; <UNDEFINED> instruction: 0xffffffff
    f1b8:	ffff ffff 			; <UNDEFINED> instruction: 0xffffffff
    f1bc:	ffff ffff 			; <UNDEFINED> instruction: 0xffffffff
    f1c0:	ffff ffff 			; <UNDEFINED> instruction: 0xffffffff
    f1c4:	ffff ffff 			; <UNDEFINED> instruction: 0xffffffff
    f1c8:	ffff ffff 			; <UNDEFINED> instruction: 0xffffffff
    f1cc:	ffff ffff 			; <UNDEFINED> instruction: 0xffffffff
    f1d0:	ffff ffff 			; <UNDEFINED> instruction: 0xffffffff
    f1d4:	ffff ffff 			; <UNDEFINED> instruction: 0xffffffff
    f1d8:	ffff ffff 			; <UNDEFINED> instruction: 0xffffffff
    f1dc:	ffff ffff 			; <UNDEFINED> instruction: 0xffffffff
    f1e0:	ffff ffff 			; <UNDEFINED> instruction: 0xffffffff
    f1e4:	ffff ffff 			; <UNDEFINED> instruction: 0xffffffff
    f1e8:	ffff ffff 			; <UNDEFINED> instruction: 0xffffffff
    f1ec:	ffff ffff 			; <UNDEFINED> instruction: 0xffffffff
    f1f0:	ffff ffff 			; <UNDEFINED> instruction: 0xffffffff
    f1f4:	ffff ffff 			; <UNDEFINED> instruction: 0xffffffff
    f1f8:	ffff ffff 			; <UNDEFINED> instruction: 0xffffffff
    f1fc:	ffff ffff 			; <UNDEFINED> instruction: 0xffffffff
    f200:	ffff ffff 			; <UNDEFINED> instruction: 0xffffffff
    f204:	ffff ffff 			; <UNDEFINED> instruction: 0xffffffff
    f208:	ffff ffff 			; <UNDEFINED> instruction: 0xffffffff
    f20c:	ffff ffff 			; <UNDEFINED> instruction: 0xffffffff
    f210:	ffff ffff 			; <UNDEFINED> instruction: 0xffffffff
    f214:	ffff ffff 			; <UNDEFINED> instruction: 0xffffffff
    f218:	ffff ffff 			; <UNDEFINED> instruction: 0xffffffff
    f21c:	ffff ffff 			; <UNDEFINED> instruction: 0xffffffff
    f220:	ffff ffff 			; <UNDEFINED> instruction: 0xffffffff
    f224:	ffff ffff 			; <UNDEFINED> instruction: 0xffffffff
    f228:	ffff ffff 			; <UNDEFINED> instruction: 0xffffffff
    f22c:	ffff ffff 			; <UNDEFINED> instruction: 0xffffffff
    f230:	ffff ffff 			; <UNDEFINED> instruction: 0xffffffff
    f234:	ffff ffff 			; <UNDEFINED> instruction: 0xffffffff
    f238:	ffff ffff 			; <UNDEFINED> instruction: 0xffffffff
    f23c:	ffff ffff 			; <UNDEFINED> instruction: 0xffffffff
    f240:	ffff ffff 			; <UNDEFINED> instruction: 0xffffffff
    f244:	ffff ffff 			; <UNDEFINED> instruction: 0xffffffff
    f248:	ffff ffff 			; <UNDEFINED> instruction: 0xffffffff
    f24c:	ffff ffff 			; <UNDEFINED> instruction: 0xffffffff
    f250:	ffff ffff 			; <UNDEFINED> instruction: 0xffffffff
    f254:	ffff ffff 			; <UNDEFINED> instruction: 0xffffffff
    f258:	ffff ffff 			; <UNDEFINED> instruction: 0xffffffff
    f25c:	ffff ffff 			; <UNDEFINED> instruction: 0xffffffff
    f260:	ffff ffff 			; <UNDEFINED> instruction: 0xffffffff
    f264:	ffff ffff 			; <UNDEFINED> instruction: 0xffffffff
    f268:	ffff ffff 			; <UNDEFINED> instruction: 0xffffffff
    f26c:	ffff ffff 			; <UNDEFINED> instruction: 0xffffffff
    f270:	ffff ffff 			; <UNDEFINED> instruction: 0xffffffff
    f274:	ffff ffff 			; <UNDEFINED> instruction: 0xffffffff
    f278:	ffff ffff 			; <UNDEFINED> instruction: 0xffffffff
    f27c:	ffff ffff 			; <UNDEFINED> instruction: 0xffffffff
    f280:	ffff ffff 			; <UNDEFINED> instruction: 0xffffffff
    f284:	ffff ffff 			; <UNDEFINED> instruction: 0xffffffff
    f288:	ffff ffff 			; <UNDEFINED> instruction: 0xffffffff
    f28c:	ffff ffff 			; <UNDEFINED> instruction: 0xffffffff
    f290:	ffff ffff 			; <UNDEFINED> instruction: 0xffffffff
    f294:	ffff ffff 			; <UNDEFINED> instruction: 0xffffffff
    f298:	ffff ffff 			; <UNDEFINED> instruction: 0xffffffff
    f29c:	ffff ffff 			; <UNDEFINED> instruction: 0xffffffff
    f2a0:	ffff ffff 			; <UNDEFINED> instruction: 0xffffffff
    f2a4:	ffff ffff 			; <UNDEFINED> instruction: 0xffffffff
    f2a8:	ffff ffff 			; <UNDEFINED> instruction: 0xffffffff
    f2ac:	ffff ffff 			; <UNDEFINED> instruction: 0xffffffff
    f2b0:	ffff ffff 			; <UNDEFINED> instruction: 0xffffffff
    f2b4:	ffff ffff 			; <UNDEFINED> instruction: 0xffffffff
    f2b8:	ffff ffff 			; <UNDEFINED> instruction: 0xffffffff
    f2bc:	ffff ffff 			; <UNDEFINED> instruction: 0xffffffff
    f2c0:	ffff ffff 			; <UNDEFINED> instruction: 0xffffffff
    f2c4:	ffff ffff 			; <UNDEFINED> instruction: 0xffffffff
    f2c8:	ffff ffff 			; <UNDEFINED> instruction: 0xffffffff
    f2cc:	ffff ffff 			; <UNDEFINED> instruction: 0xffffffff
    f2d0:	ffff ffff 			; <UNDEFINED> instruction: 0xffffffff
    f2d4:	ffff ffff 			; <UNDEFINED> instruction: 0xffffffff
    f2d8:	ffff ffff 			; <UNDEFINED> instruction: 0xffffffff
    f2dc:	ffff ffff 			; <UNDEFINED> instruction: 0xffffffff
    f2e0:	ffff ffff 			; <UNDEFINED> instruction: 0xffffffff
    f2e4:	ffff ffff 			; <UNDEFINED> instruction: 0xffffffff
    f2e8:	ffff ffff 			; <UNDEFINED> instruction: 0xffffffff
    f2ec:	ffff ffff 			; <UNDEFINED> instruction: 0xffffffff
    f2f0:	ffff ffff 			; <UNDEFINED> instruction: 0xffffffff
    f2f4:	ffff ffff 			; <UNDEFINED> instruction: 0xffffffff
    f2f8:	ffff ffff 			; <UNDEFINED> instruction: 0xffffffff
    f2fc:	ffff ffff 			; <UNDEFINED> instruction: 0xffffffff
    f300:	ffff ffff 			; <UNDEFINED> instruction: 0xffffffff
    f304:	ffff ffff 			; <UNDEFINED> instruction: 0xffffffff
    f308:	ffff ffff 			; <UNDEFINED> instruction: 0xffffffff
    f30c:	ffff ffff 			; <UNDEFINED> instruction: 0xffffffff
    f310:	ffff ffff 			; <UNDEFINED> instruction: 0xffffffff
    f314:	ffff ffff 			; <UNDEFINED> instruction: 0xffffffff
    f318:	ffff ffff 			; <UNDEFINED> instruction: 0xffffffff
    f31c:	ffff ffff 			; <UNDEFINED> instruction: 0xffffffff
    f320:	ffff ffff 			; <UNDEFINED> instruction: 0xffffffff
    f324:	ffff ffff 			; <UNDEFINED> instruction: 0xffffffff
    f328:	ffff ffff 			; <UNDEFINED> instruction: 0xffffffff
    f32c:	ffff ffff 			; <UNDEFINED> instruction: 0xffffffff
    f330:	ffff ffff 			; <UNDEFINED> instruction: 0xffffffff
    f334:	ffff ffff 			; <UNDEFINED> instruction: 0xffffffff
    f338:	ffff ffff 			; <UNDEFINED> instruction: 0xffffffff
    f33c:	ffff ffff 			; <UNDEFINED> instruction: 0xffffffff
    f340:	ffff ffff 			; <UNDEFINED> instruction: 0xffffffff
    f344:	ffff ffff 			; <UNDEFINED> instruction: 0xffffffff
    f348:	ffff ffff 			; <UNDEFINED> instruction: 0xffffffff
    f34c:	ffff ffff 			; <UNDEFINED> instruction: 0xffffffff
    f350:	ffff ffff 			; <UNDEFINED> instruction: 0xffffffff
    f354:	ffff ffff 			; <UNDEFINED> instruction: 0xffffffff
    f358:	ffff ffff 			; <UNDEFINED> instruction: 0xffffffff
    f35c:	ffff ffff 			; <UNDEFINED> instruction: 0xffffffff
    f360:	ffff ffff 			; <UNDEFINED> instruction: 0xffffffff
    f364:	ffff ffff 			; <UNDEFINED> instruction: 0xffffffff
    f368:	ffff ffff 			; <UNDEFINED> instruction: 0xffffffff
    f36c:	ffff ffff 			; <UNDEFINED> instruction: 0xffffffff
    f370:	ffff ffff 			; <UNDEFINED> instruction: 0xffffffff
    f374:	ffff ffff 			; <UNDEFINED> instruction: 0xffffffff
    f378:	ffff ffff 			; <UNDEFINED> instruction: 0xffffffff
    f37c:	ffff ffff 			; <UNDEFINED> instruction: 0xffffffff
    f380:	ffff ffff 			; <UNDEFINED> instruction: 0xffffffff
    f384:	ffff ffff 			; <UNDEFINED> instruction: 0xffffffff
    f388:	ffff ffff 			; <UNDEFINED> instruction: 0xffffffff
    f38c:	ffff ffff 			; <UNDEFINED> instruction: 0xffffffff
    f390:	ffff ffff 			; <UNDEFINED> instruction: 0xffffffff
    f394:	ffff ffff 			; <UNDEFINED> instruction: 0xffffffff
    f398:	ffff ffff 			; <UNDEFINED> instruction: 0xffffffff
    f39c:	ffff ffff 			; <UNDEFINED> instruction: 0xffffffff
    f3a0:	ffff ffff 			; <UNDEFINED> instruction: 0xffffffff
    f3a4:	ffff ffff 			; <UNDEFINED> instruction: 0xffffffff
    f3a8:	ffff ffff 			; <UNDEFINED> instruction: 0xffffffff
    f3ac:	ffff ffff 			; <UNDEFINED> instruction: 0xffffffff
    f3b0:	ffff ffff 			; <UNDEFINED> instruction: 0xffffffff
    f3b4:	ffff ffff 			; <UNDEFINED> instruction: 0xffffffff
    f3b8:	ffff ffff 			; <UNDEFINED> instruction: 0xffffffff
    f3bc:	ffff ffff 			; <UNDEFINED> instruction: 0xffffffff
    f3c0:	ffff ffff 			; <UNDEFINED> instruction: 0xffffffff
    f3c4:	ffff ffff 			; <UNDEFINED> instruction: 0xffffffff
    f3c8:	ffff ffff 			; <UNDEFINED> instruction: 0xffffffff
    f3cc:	ffff ffff 			; <UNDEFINED> instruction: 0xffffffff
    f3d0:	ffff ffff 			; <UNDEFINED> instruction: 0xffffffff
    f3d4:	ffff ffff 			; <UNDEFINED> instruction: 0xffffffff
    f3d8:	ffff ffff 			; <UNDEFINED> instruction: 0xffffffff
    f3dc:	ffff ffff 			; <UNDEFINED> instruction: 0xffffffff
    f3e0:	ffff ffff 			; <UNDEFINED> instruction: 0xffffffff
    f3e4:	ffff ffff 			; <UNDEFINED> instruction: 0xffffffff
    f3e8:	ffff ffff 			; <UNDEFINED> instruction: 0xffffffff
    f3ec:	ffff ffff 			; <UNDEFINED> instruction: 0xffffffff
    f3f0:	ffff ffff 			; <UNDEFINED> instruction: 0xffffffff
    f3f4:	ffff ffff 			; <UNDEFINED> instruction: 0xffffffff
    f3f8:	ffff ffff 			; <UNDEFINED> instruction: 0xffffffff
    f3fc:	ffff ffff 			; <UNDEFINED> instruction: 0xffffffff
    f400:	ffff ffff 			; <UNDEFINED> instruction: 0xffffffff
    f404:	ffff ffff 			; <UNDEFINED> instruction: 0xffffffff
    f408:	ffff ffff 			; <UNDEFINED> instruction: 0xffffffff
    f40c:	ffff ffff 			; <UNDEFINED> instruction: 0xffffffff
    f410:	ffff ffff 			; <UNDEFINED> instruction: 0xffffffff
    f414:	ffff ffff 			; <UNDEFINED> instruction: 0xffffffff
    f418:	ffff ffff 			; <UNDEFINED> instruction: 0xffffffff
    f41c:	ffff ffff 			; <UNDEFINED> instruction: 0xffffffff
    f420:	ffff ffff 			; <UNDEFINED> instruction: 0xffffffff
    f424:	ffff ffff 			; <UNDEFINED> instruction: 0xffffffff
    f428:	ffff ffff 			; <UNDEFINED> instruction: 0xffffffff
    f42c:	ffff ffff 			; <UNDEFINED> instruction: 0xffffffff
    f430:	ffff ffff 			; <UNDEFINED> instruction: 0xffffffff
    f434:	ffff ffff 			; <UNDEFINED> instruction: 0xffffffff
    f438:	ffff ffff 			; <UNDEFINED> instruction: 0xffffffff
    f43c:	ffff ffff 			; <UNDEFINED> instruction: 0xffffffff
    f440:	ffff ffff 			; <UNDEFINED> instruction: 0xffffffff
    f444:	ffff ffff 			; <UNDEFINED> instruction: 0xffffffff
    f448:	ffff ffff 			; <UNDEFINED> instruction: 0xffffffff
    f44c:	ffff ffff 			; <UNDEFINED> instruction: 0xffffffff
    f450:	ffff ffff 			; <UNDEFINED> instruction: 0xffffffff
    f454:	ffff ffff 			; <UNDEFINED> instruction: 0xffffffff
    f458:	ffff ffff 			; <UNDEFINED> instruction: 0xffffffff
    f45c:	ffff ffff 			; <UNDEFINED> instruction: 0xffffffff
    f460:	ffff ffff 			; <UNDEFINED> instruction: 0xffffffff
    f464:	ffff ffff 			; <UNDEFINED> instruction: 0xffffffff
    f468:	ffff ffff 			; <UNDEFINED> instruction: 0xffffffff
    f46c:	ffff ffff 			; <UNDEFINED> instruction: 0xffffffff
    f470:	ffff ffff 			; <UNDEFINED> instruction: 0xffffffff
    f474:	ffff ffff 			; <UNDEFINED> instruction: 0xffffffff
    f478:	ffff ffff 			; <UNDEFINED> instruction: 0xffffffff
    f47c:	ffff ffff 			; <UNDEFINED> instruction: 0xffffffff
    f480:	ffff ffff 			; <UNDEFINED> instruction: 0xffffffff
    f484:	ffff ffff 			; <UNDEFINED> instruction: 0xffffffff
    f488:	ffff ffff 			; <UNDEFINED> instruction: 0xffffffff
    f48c:	ffff ffff 			; <UNDEFINED> instruction: 0xffffffff
    f490:	ffff ffff 			; <UNDEFINED> instruction: 0xffffffff
    f494:	ffff ffff 			; <UNDEFINED> instruction: 0xffffffff
    f498:	ffff ffff 			; <UNDEFINED> instruction: 0xffffffff
    f49c:	ffff ffff 			; <UNDEFINED> instruction: 0xffffffff
    f4a0:	ffff ffff 			; <UNDEFINED> instruction: 0xffffffff
    f4a4:	ffff ffff 			; <UNDEFINED> instruction: 0xffffffff
    f4a8:	ffff ffff 			; <UNDEFINED> instruction: 0xffffffff
    f4ac:	ffff ffff 			; <UNDEFINED> instruction: 0xffffffff
    f4b0:	ffff ffff 			; <UNDEFINED> instruction: 0xffffffff
    f4b4:	ffff ffff 			; <UNDEFINED> instruction: 0xffffffff
    f4b8:	ffff ffff 			; <UNDEFINED> instruction: 0xffffffff
    f4bc:	ffff ffff 			; <UNDEFINED> instruction: 0xffffffff
    f4c0:	ffff ffff 			; <UNDEFINED> instruction: 0xffffffff
    f4c4:	ffff ffff 			; <UNDEFINED> instruction: 0xffffffff
    f4c8:	ffff ffff 			; <UNDEFINED> instruction: 0xffffffff
    f4cc:	ffff ffff 			; <UNDEFINED> instruction: 0xffffffff
    f4d0:	ffff ffff 			; <UNDEFINED> instruction: 0xffffffff
    f4d4:	ffff ffff 			; <UNDEFINED> instruction: 0xffffffff
    f4d8:	ffff ffff 			; <UNDEFINED> instruction: 0xffffffff
    f4dc:	ffff ffff 			; <UNDEFINED> instruction: 0xffffffff
    f4e0:	ffff ffff 			; <UNDEFINED> instruction: 0xffffffff
    f4e4:	ffff ffff 			; <UNDEFINED> instruction: 0xffffffff
    f4e8:	ffff ffff 			; <UNDEFINED> instruction: 0xffffffff
    f4ec:	ffff ffff 			; <UNDEFINED> instruction: 0xffffffff
    f4f0:	ffff ffff 			; <UNDEFINED> instruction: 0xffffffff
    f4f4:	ffff ffff 			; <UNDEFINED> instruction: 0xffffffff
    f4f8:	ffff ffff 			; <UNDEFINED> instruction: 0xffffffff
    f4fc:	ffff ffff 			; <UNDEFINED> instruction: 0xffffffff
    f500:	ffff ffff 			; <UNDEFINED> instruction: 0xffffffff
    f504:	ffff ffff 			; <UNDEFINED> instruction: 0xffffffff
    f508:	ffff ffff 			; <UNDEFINED> instruction: 0xffffffff
    f50c:	ffff ffff 			; <UNDEFINED> instruction: 0xffffffff
    f510:	ffff ffff 			; <UNDEFINED> instruction: 0xffffffff
    f514:	ffff ffff 			; <UNDEFINED> instruction: 0xffffffff
    f518:	ffff ffff 			; <UNDEFINED> instruction: 0xffffffff
    f51c:	ffff ffff 			; <UNDEFINED> instruction: 0xffffffff
    f520:	ffff ffff 			; <UNDEFINED> instruction: 0xffffffff
    f524:	ffff ffff 			; <UNDEFINED> instruction: 0xffffffff
    f528:	ffff ffff 			; <UNDEFINED> instruction: 0xffffffff
    f52c:	ffff ffff 			; <UNDEFINED> instruction: 0xffffffff
    f530:	ffff ffff 			; <UNDEFINED> instruction: 0xffffffff
    f534:	ffff ffff 			; <UNDEFINED> instruction: 0xffffffff
    f538:	ffff ffff 			; <UNDEFINED> instruction: 0xffffffff
    f53c:	ffff ffff 			; <UNDEFINED> instruction: 0xffffffff
    f540:	ffff ffff 			; <UNDEFINED> instruction: 0xffffffff
    f544:	ffff ffff 			; <UNDEFINED> instruction: 0xffffffff
    f548:	ffff ffff 			; <UNDEFINED> instruction: 0xffffffff
    f54c:	ffff ffff 			; <UNDEFINED> instruction: 0xffffffff
    f550:	ffff ffff 			; <UNDEFINED> instruction: 0xffffffff
    f554:	ffff ffff 			; <UNDEFINED> instruction: 0xffffffff
    f558:	ffff ffff 			; <UNDEFINED> instruction: 0xffffffff
    f55c:	ffff ffff 			; <UNDEFINED> instruction: 0xffffffff
    f560:	ffff ffff 			; <UNDEFINED> instruction: 0xffffffff
    f564:	ffff ffff 			; <UNDEFINED> instruction: 0xffffffff
    f568:	ffff ffff 			; <UNDEFINED> instruction: 0xffffffff
    f56c:	ffff ffff 			; <UNDEFINED> instruction: 0xffffffff
    f570:	ffff ffff 			; <UNDEFINED> instruction: 0xffffffff
    f574:	ffff ffff 			; <UNDEFINED> instruction: 0xffffffff
    f578:	ffff ffff 			; <UNDEFINED> instruction: 0xffffffff
    f57c:	ffff ffff 			; <UNDEFINED> instruction: 0xffffffff
    f580:	ffff ffff 			; <UNDEFINED> instruction: 0xffffffff
    f584:	ffff ffff 			; <UNDEFINED> instruction: 0xffffffff
    f588:	ffff ffff 			; <UNDEFINED> instruction: 0xffffffff
    f58c:	ffff ffff 			; <UNDEFINED> instruction: 0xffffffff
    f590:	ffff ffff 			; <UNDEFINED> instruction: 0xffffffff
    f594:	ffff ffff 			; <UNDEFINED> instruction: 0xffffffff
    f598:	ffff ffff 			; <UNDEFINED> instruction: 0xffffffff
    f59c:	ffff ffff 			; <UNDEFINED> instruction: 0xffffffff
    f5a0:	ffff ffff 			; <UNDEFINED> instruction: 0xffffffff
    f5a4:	ffff ffff 			; <UNDEFINED> instruction: 0xffffffff
    f5a8:	ffff ffff 			; <UNDEFINED> instruction: 0xffffffff
    f5ac:	ffff ffff 			; <UNDEFINED> instruction: 0xffffffff
    f5b0:	ffff ffff 			; <UNDEFINED> instruction: 0xffffffff
    f5b4:	ffff ffff 			; <UNDEFINED> instruction: 0xffffffff
    f5b8:	ffff ffff 			; <UNDEFINED> instruction: 0xffffffff
    f5bc:	ffff ffff 			; <UNDEFINED> instruction: 0xffffffff
    f5c0:	ffff ffff 			; <UNDEFINED> instruction: 0xffffffff
    f5c4:	ffff ffff 			; <UNDEFINED> instruction: 0xffffffff
    f5c8:	ffff ffff 			; <UNDEFINED> instruction: 0xffffffff
    f5cc:	ffff ffff 			; <UNDEFINED> instruction: 0xffffffff
    f5d0:	ffff ffff 			; <UNDEFINED> instruction: 0xffffffff
    f5d4:	ffff ffff 			; <UNDEFINED> instruction: 0xffffffff
    f5d8:	ffff ffff 			; <UNDEFINED> instruction: 0xffffffff
    f5dc:	ffff ffff 			; <UNDEFINED> instruction: 0xffffffff
    f5e0:	ffff ffff 			; <UNDEFINED> instruction: 0xffffffff
    f5e4:	ffff ffff 			; <UNDEFINED> instruction: 0xffffffff
    f5e8:	ffff ffff 			; <UNDEFINED> instruction: 0xffffffff
    f5ec:	ffff ffff 			; <UNDEFINED> instruction: 0xffffffff
    f5f0:	ffff ffff 			; <UNDEFINED> instruction: 0xffffffff
    f5f4:	ffff ffff 			; <UNDEFINED> instruction: 0xffffffff
    f5f8:	ffff ffff 			; <UNDEFINED> instruction: 0xffffffff
    f5fc:	ffff ffff 			; <UNDEFINED> instruction: 0xffffffff
    f600:	ffff ffff 			; <UNDEFINED> instruction: 0xffffffff
    f604:	ffff ffff 			; <UNDEFINED> instruction: 0xffffffff
    f608:	ffff ffff 			; <UNDEFINED> instruction: 0xffffffff
    f60c:	ffff ffff 			; <UNDEFINED> instruction: 0xffffffff
    f610:	ffff ffff 			; <UNDEFINED> instruction: 0xffffffff
    f614:	ffff ffff 			; <UNDEFINED> instruction: 0xffffffff
    f618:	ffff ffff 			; <UNDEFINED> instruction: 0xffffffff
    f61c:	ffff ffff 			; <UNDEFINED> instruction: 0xffffffff
    f620:	ffff ffff 			; <UNDEFINED> instruction: 0xffffffff
    f624:	ffff ffff 			; <UNDEFINED> instruction: 0xffffffff
    f628:	ffff ffff 			; <UNDEFINED> instruction: 0xffffffff
    f62c:	ffff ffff 			; <UNDEFINED> instruction: 0xffffffff
    f630:	ffff ffff 			; <UNDEFINED> instruction: 0xffffffff
    f634:	ffff ffff 			; <UNDEFINED> instruction: 0xffffffff
    f638:	ffff ffff 			; <UNDEFINED> instruction: 0xffffffff
    f63c:	ffff ffff 			; <UNDEFINED> instruction: 0xffffffff
    f640:	ffff ffff 			; <UNDEFINED> instruction: 0xffffffff
    f644:	ffff ffff 			; <UNDEFINED> instruction: 0xffffffff
    f648:	ffff ffff 			; <UNDEFINED> instruction: 0xffffffff
    f64c:	ffff ffff 			; <UNDEFINED> instruction: 0xffffffff
    f650:	ffff ffff 			; <UNDEFINED> instruction: 0xffffffff
    f654:	ffff ffff 			; <UNDEFINED> instruction: 0xffffffff
    f658:	ffff ffff 			; <UNDEFINED> instruction: 0xffffffff
    f65c:	ffff ffff 			; <UNDEFINED> instruction: 0xffffffff
    f660:	ffff ffff 			; <UNDEFINED> instruction: 0xffffffff
    f664:	ffff ffff 			; <UNDEFINED> instruction: 0xffffffff
    f668:	ffff ffff 			; <UNDEFINED> instruction: 0xffffffff
    f66c:	ffff ffff 			; <UNDEFINED> instruction: 0xffffffff
    f670:	ffff ffff 			; <UNDEFINED> instruction: 0xffffffff
    f674:	ffff ffff 			; <UNDEFINED> instruction: 0xffffffff
    f678:	ffff ffff 			; <UNDEFINED> instruction: 0xffffffff
    f67c:	ffff ffff 			; <UNDEFINED> instruction: 0xffffffff
    f680:	ffff ffff 			; <UNDEFINED> instruction: 0xffffffff
    f684:	ffff ffff 			; <UNDEFINED> instruction: 0xffffffff
    f688:	ffff ffff 			; <UNDEFINED> instruction: 0xffffffff
    f68c:	ffff ffff 			; <UNDEFINED> instruction: 0xffffffff
    f690:	ffff ffff 			; <UNDEFINED> instruction: 0xffffffff
    f694:	ffff ffff 			; <UNDEFINED> instruction: 0xffffffff
    f698:	ffff ffff 			; <UNDEFINED> instruction: 0xffffffff
    f69c:	ffff ffff 			; <UNDEFINED> instruction: 0xffffffff
    f6a0:	ffff ffff 			; <UNDEFINED> instruction: 0xffffffff
    f6a4:	ffff ffff 			; <UNDEFINED> instruction: 0xffffffff
    f6a8:	ffff ffff 			; <UNDEFINED> instruction: 0xffffffff
    f6ac:	ffff ffff 			; <UNDEFINED> instruction: 0xffffffff
    f6b0:	ffff ffff 			; <UNDEFINED> instruction: 0xffffffff
    f6b4:	ffff ffff 			; <UNDEFINED> instruction: 0xffffffff
    f6b8:	ffff ffff 			; <UNDEFINED> instruction: 0xffffffff
    f6bc:	ffff ffff 			; <UNDEFINED> instruction: 0xffffffff
    f6c0:	ffff ffff 			; <UNDEFINED> instruction: 0xffffffff
    f6c4:	ffff ffff 			; <UNDEFINED> instruction: 0xffffffff
    f6c8:	ffff ffff 			; <UNDEFINED> instruction: 0xffffffff
    f6cc:	ffff ffff 			; <UNDEFINED> instruction: 0xffffffff
    f6d0:	ffff ffff 			; <UNDEFINED> instruction: 0xffffffff
    f6d4:	ffff ffff 			; <UNDEFINED> instruction: 0xffffffff
    f6d8:	ffff ffff 			; <UNDEFINED> instruction: 0xffffffff
    f6dc:	ffff ffff 			; <UNDEFINED> instruction: 0xffffffff
    f6e0:	ffff ffff 			; <UNDEFINED> instruction: 0xffffffff
    f6e4:	ffff ffff 			; <UNDEFINED> instruction: 0xffffffff
    f6e8:	ffff ffff 			; <UNDEFINED> instruction: 0xffffffff
    f6ec:	ffff ffff 			; <UNDEFINED> instruction: 0xffffffff
    f6f0:	ffff ffff 			; <UNDEFINED> instruction: 0xffffffff
    f6f4:	ffff ffff 			; <UNDEFINED> instruction: 0xffffffff
    f6f8:	ffff ffff 			; <UNDEFINED> instruction: 0xffffffff
    f6fc:	ffff ffff 			; <UNDEFINED> instruction: 0xffffffff
    f700:	ffff ffff 			; <UNDEFINED> instruction: 0xffffffff
    f704:	ffff ffff 			; <UNDEFINED> instruction: 0xffffffff
    f708:	ffff ffff 			; <UNDEFINED> instruction: 0xffffffff
    f70c:	ffff ffff 			; <UNDEFINED> instruction: 0xffffffff
    f710:	ffff ffff 			; <UNDEFINED> instruction: 0xffffffff
    f714:	ffff ffff 			; <UNDEFINED> instruction: 0xffffffff
    f718:	ffff ffff 			; <UNDEFINED> instruction: 0xffffffff
    f71c:	ffff ffff 			; <UNDEFINED> instruction: 0xffffffff
    f720:	ffff ffff 			; <UNDEFINED> instruction: 0xffffffff
    f724:	ffff ffff 			; <UNDEFINED> instruction: 0xffffffff
    f728:	ffff ffff 			; <UNDEFINED> instruction: 0xffffffff
    f72c:	ffff ffff 			; <UNDEFINED> instruction: 0xffffffff
    f730:	ffff ffff 			; <UNDEFINED> instruction: 0xffffffff
    f734:	ffff ffff 			; <UNDEFINED> instruction: 0xffffffff
    f738:	ffff ffff 			; <UNDEFINED> instruction: 0xffffffff
    f73c:	ffff ffff 			; <UNDEFINED> instruction: 0xffffffff
    f740:	ffff ffff 			; <UNDEFINED> instruction: 0xffffffff
    f744:	ffff ffff 			; <UNDEFINED> instruction: 0xffffffff
    f748:	ffff ffff 			; <UNDEFINED> instruction: 0xffffffff
    f74c:	ffff ffff 			; <UNDEFINED> instruction: 0xffffffff
    f750:	ffff ffff 			; <UNDEFINED> instruction: 0xffffffff
    f754:	ffff ffff 			; <UNDEFINED> instruction: 0xffffffff
    f758:	ffff ffff 			; <UNDEFINED> instruction: 0xffffffff
    f75c:	ffff ffff 			; <UNDEFINED> instruction: 0xffffffff
    f760:	ffff ffff 			; <UNDEFINED> instruction: 0xffffffff
    f764:	ffff ffff 			; <UNDEFINED> instruction: 0xffffffff
    f768:	ffff ffff 			; <UNDEFINED> instruction: 0xffffffff
    f76c:	ffff ffff 			; <UNDEFINED> instruction: 0xffffffff
    f770:	ffff ffff 			; <UNDEFINED> instruction: 0xffffffff
    f774:	ffff ffff 			; <UNDEFINED> instruction: 0xffffffff
    f778:	ffff ffff 			; <UNDEFINED> instruction: 0xffffffff
    f77c:	ffff ffff 			; <UNDEFINED> instruction: 0xffffffff
    f780:	ffff ffff 			; <UNDEFINED> instruction: 0xffffffff
    f784:	ffff ffff 			; <UNDEFINED> instruction: 0xffffffff
    f788:	ffff ffff 			; <UNDEFINED> instruction: 0xffffffff
    f78c:	ffff ffff 			; <UNDEFINED> instruction: 0xffffffff
    f790:	ffff ffff 			; <UNDEFINED> instruction: 0xffffffff
    f794:	ffff ffff 			; <UNDEFINED> instruction: 0xffffffff
    f798:	ffff ffff 			; <UNDEFINED> instruction: 0xffffffff
    f79c:	ffff ffff 			; <UNDEFINED> instruction: 0xffffffff
    f7a0:	ffff ffff 			; <UNDEFINED> instruction: 0xffffffff
    f7a4:	ffff ffff 			; <UNDEFINED> instruction: 0xffffffff
    f7a8:	ffff ffff 			; <UNDEFINED> instruction: 0xffffffff
    f7ac:	ffff ffff 			; <UNDEFINED> instruction: 0xffffffff
    f7b0:	ffff ffff 			; <UNDEFINED> instruction: 0xffffffff
    f7b4:	ffff ffff 			; <UNDEFINED> instruction: 0xffffffff
    f7b8:	ffff ffff 			; <UNDEFINED> instruction: 0xffffffff
    f7bc:	ffff ffff 			; <UNDEFINED> instruction: 0xffffffff
    f7c0:	ffff ffff 			; <UNDEFINED> instruction: 0xffffffff
    f7c4:	ffff ffff 			; <UNDEFINED> instruction: 0xffffffff
    f7c8:	ffff ffff 			; <UNDEFINED> instruction: 0xffffffff
    f7cc:	ffff ffff 			; <UNDEFINED> instruction: 0xffffffff
    f7d0:	ffff ffff 			; <UNDEFINED> instruction: 0xffffffff
    f7d4:	ffff ffff 			; <UNDEFINED> instruction: 0xffffffff
    f7d8:	ffff ffff 			; <UNDEFINED> instruction: 0xffffffff
    f7dc:	ffff ffff 			; <UNDEFINED> instruction: 0xffffffff
    f7e0:	ffff ffff 			; <UNDEFINED> instruction: 0xffffffff
    f7e4:	ffff ffff 			; <UNDEFINED> instruction: 0xffffffff
    f7e8:	ffff ffff 			; <UNDEFINED> instruction: 0xffffffff
    f7ec:	ffff ffff 			; <UNDEFINED> instruction: 0xffffffff
    f7f0:	ffff ffff 			; <UNDEFINED> instruction: 0xffffffff
    f7f4:	ffff ffff 			; <UNDEFINED> instruction: 0xffffffff
    f7f8:	ffff ffff 			; <UNDEFINED> instruction: 0xffffffff
    f7fc:	ffff ffff 			; <UNDEFINED> instruction: 0xffffffff
    f800:	ffff ffff 			; <UNDEFINED> instruction: 0xffffffff
    f804:	ffff ffff 			; <UNDEFINED> instruction: 0xffffffff
    f808:	ffff ffff 			; <UNDEFINED> instruction: 0xffffffff
    f80c:	ffff ffff 			; <UNDEFINED> instruction: 0xffffffff
    f810:	ffff ffff 			; <UNDEFINED> instruction: 0xffffffff
    f814:	ffff ffff 			; <UNDEFINED> instruction: 0xffffffff
    f818:	ffff ffff 			; <UNDEFINED> instruction: 0xffffffff
    f81c:	ffff ffff 			; <UNDEFINED> instruction: 0xffffffff
    f820:	ffff ffff 			; <UNDEFINED> instruction: 0xffffffff
    f824:	ffff ffff 			; <UNDEFINED> instruction: 0xffffffff
    f828:	ffff ffff 			; <UNDEFINED> instruction: 0xffffffff
    f82c:	ffff ffff 			; <UNDEFINED> instruction: 0xffffffff
    f830:	ffff ffff 			; <UNDEFINED> instruction: 0xffffffff
    f834:	ffff ffff 			; <UNDEFINED> instruction: 0xffffffff
    f838:	ffff ffff 			; <UNDEFINED> instruction: 0xffffffff
    f83c:	ffff ffff 			; <UNDEFINED> instruction: 0xffffffff
    f840:	ffff ffff 			; <UNDEFINED> instruction: 0xffffffff
    f844:	ffff ffff 			; <UNDEFINED> instruction: 0xffffffff
    f848:	ffff ffff 			; <UNDEFINED> instruction: 0xffffffff
    f84c:	ffff ffff 			; <UNDEFINED> instruction: 0xffffffff
    f850:	ffff ffff 			; <UNDEFINED> instruction: 0xffffffff
    f854:	ffff ffff 			; <UNDEFINED> instruction: 0xffffffff
    f858:	ffff ffff 			; <UNDEFINED> instruction: 0xffffffff
    f85c:	ffff ffff 			; <UNDEFINED> instruction: 0xffffffff
    f860:	ffff ffff 			; <UNDEFINED> instruction: 0xffffffff
    f864:	ffff ffff 			; <UNDEFINED> instruction: 0xffffffff
    f868:	ffff ffff 			; <UNDEFINED> instruction: 0xffffffff
    f86c:	ffff ffff 			; <UNDEFINED> instruction: 0xffffffff
    f870:	ffff ffff 			; <UNDEFINED> instruction: 0xffffffff
    f874:	ffff ffff 			; <UNDEFINED> instruction: 0xffffffff
    f878:	ffff ffff 			; <UNDEFINED> instruction: 0xffffffff
    f87c:	ffff ffff 			; <UNDEFINED> instruction: 0xffffffff
    f880:	ffff ffff 			; <UNDEFINED> instruction: 0xffffffff
    f884:	ffff ffff 			; <UNDEFINED> instruction: 0xffffffff
    f888:	ffff ffff 			; <UNDEFINED> instruction: 0xffffffff
    f88c:	ffff ffff 			; <UNDEFINED> instruction: 0xffffffff
    f890:	ffff ffff 			; <UNDEFINED> instruction: 0xffffffff
    f894:	ffff ffff 			; <UNDEFINED> instruction: 0xffffffff
    f898:	ffff ffff 			; <UNDEFINED> instruction: 0xffffffff
    f89c:	ffff ffff 			; <UNDEFINED> instruction: 0xffffffff
    f8a0:	ffff ffff 			; <UNDEFINED> instruction: 0xffffffff
    f8a4:	ffff ffff 			; <UNDEFINED> instruction: 0xffffffff
    f8a8:	ffff ffff 			; <UNDEFINED> instruction: 0xffffffff
    f8ac:	ffff ffff 			; <UNDEFINED> instruction: 0xffffffff
    f8b0:	ffff ffff 			; <UNDEFINED> instruction: 0xffffffff
    f8b4:	ffff ffff 			; <UNDEFINED> instruction: 0xffffffff
    f8b8:	ffff ffff 			; <UNDEFINED> instruction: 0xffffffff
    f8bc:	ffff ffff 			; <UNDEFINED> instruction: 0xffffffff
    f8c0:	ffff ffff 			; <UNDEFINED> instruction: 0xffffffff
    f8c4:	ffff ffff 			; <UNDEFINED> instruction: 0xffffffff
    f8c8:	ffff ffff 			; <UNDEFINED> instruction: 0xffffffff
    f8cc:	ffff ffff 			; <UNDEFINED> instruction: 0xffffffff
    f8d0:	ffff ffff 			; <UNDEFINED> instruction: 0xffffffff
    f8d4:	ffff ffff 			; <UNDEFINED> instruction: 0xffffffff
    f8d8:	ffff ffff 			; <UNDEFINED> instruction: 0xffffffff
    f8dc:	ffff ffff 			; <UNDEFINED> instruction: 0xffffffff
    f8e0:	ffff ffff 			; <UNDEFINED> instruction: 0xffffffff
    f8e4:	ffff ffff 			; <UNDEFINED> instruction: 0xffffffff
    f8e8:	ffff ffff 			; <UNDEFINED> instruction: 0xffffffff
    f8ec:	ffff ffff 			; <UNDEFINED> instruction: 0xffffffff
    f8f0:	ffff ffff 			; <UNDEFINED> instruction: 0xffffffff
    f8f4:	ffff ffff 			; <UNDEFINED> instruction: 0xffffffff
    f8f8:	ffff ffff 			; <UNDEFINED> instruction: 0xffffffff
    f8fc:	ffff ffff 			; <UNDEFINED> instruction: 0xffffffff
    f900:	ffff ffff 			; <UNDEFINED> instruction: 0xffffffff
    f904:	ffff ffff 			; <UNDEFINED> instruction: 0xffffffff
    f908:	ffff ffff 			; <UNDEFINED> instruction: 0xffffffff
    f90c:	ffff ffff 			; <UNDEFINED> instruction: 0xffffffff
    f910:	ffff ffff 			; <UNDEFINED> instruction: 0xffffffff
    f914:	ffff ffff 			; <UNDEFINED> instruction: 0xffffffff
    f918:	ffff ffff 			; <UNDEFINED> instruction: 0xffffffff
    f91c:	ffff ffff 			; <UNDEFINED> instruction: 0xffffffff
    f920:	ffff ffff 			; <UNDEFINED> instruction: 0xffffffff
    f924:	ffff ffff 			; <UNDEFINED> instruction: 0xffffffff
    f928:	ffff ffff 			; <UNDEFINED> instruction: 0xffffffff
    f92c:	ffff ffff 			; <UNDEFINED> instruction: 0xffffffff
    f930:	ffff ffff 			; <UNDEFINED> instruction: 0xffffffff
    f934:	ffff ffff 			; <UNDEFINED> instruction: 0xffffffff
    f938:	ffff ffff 			; <UNDEFINED> instruction: 0xffffffff
    f93c:	ffff ffff 			; <UNDEFINED> instruction: 0xffffffff
    f940:	ffff ffff 			; <UNDEFINED> instruction: 0xffffffff
    f944:	ffff ffff 			; <UNDEFINED> instruction: 0xffffffff
    f948:	ffff ffff 			; <UNDEFINED> instruction: 0xffffffff
    f94c:	ffff ffff 			; <UNDEFINED> instruction: 0xffffffff
    f950:	ffff ffff 			; <UNDEFINED> instruction: 0xffffffff
    f954:	ffff ffff 			; <UNDEFINED> instruction: 0xffffffff
    f958:	ffff ffff 			; <UNDEFINED> instruction: 0xffffffff
    f95c:	ffff ffff 			; <UNDEFINED> instruction: 0xffffffff
    f960:	ffff ffff 			; <UNDEFINED> instruction: 0xffffffff
    f964:	ffff ffff 			; <UNDEFINED> instruction: 0xffffffff
    f968:	ffff ffff 			; <UNDEFINED> instruction: 0xffffffff
    f96c:	ffff ffff 			; <UNDEFINED> instruction: 0xffffffff
    f970:	ffff ffff 			; <UNDEFINED> instruction: 0xffffffff
    f974:	ffff ffff 			; <UNDEFINED> instruction: 0xffffffff
    f978:	ffff ffff 			; <UNDEFINED> instruction: 0xffffffff
    f97c:	ffff ffff 			; <UNDEFINED> instruction: 0xffffffff
    f980:	ffff ffff 			; <UNDEFINED> instruction: 0xffffffff
    f984:	ffff ffff 			; <UNDEFINED> instruction: 0xffffffff
    f988:	ffff ffff 			; <UNDEFINED> instruction: 0xffffffff
    f98c:	ffff ffff 			; <UNDEFINED> instruction: 0xffffffff
    f990:	ffff ffff 			; <UNDEFINED> instruction: 0xffffffff
    f994:	ffff ffff 			; <UNDEFINED> instruction: 0xffffffff
    f998:	ffff ffff 			; <UNDEFINED> instruction: 0xffffffff
    f99c:	ffff ffff 			; <UNDEFINED> instruction: 0xffffffff
    f9a0:	ffff ffff 			; <UNDEFINED> instruction: 0xffffffff
    f9a4:	ffff ffff 			; <UNDEFINED> instruction: 0xffffffff
    f9a8:	ffff ffff 			; <UNDEFINED> instruction: 0xffffffff
    f9ac:	ffff ffff 			; <UNDEFINED> instruction: 0xffffffff
    f9b0:	ffff ffff 			; <UNDEFINED> instruction: 0xffffffff
    f9b4:	ffff ffff 			; <UNDEFINED> instruction: 0xffffffff
    f9b8:	ffff ffff 			; <UNDEFINED> instruction: 0xffffffff
    f9bc:	ffff ffff 			; <UNDEFINED> instruction: 0xffffffff
    f9c0:	ffff ffff 			; <UNDEFINED> instruction: 0xffffffff
    f9c4:	ffff ffff 			; <UNDEFINED> instruction: 0xffffffff
    f9c8:	ffff ffff 			; <UNDEFINED> instruction: 0xffffffff
    f9cc:	ffff ffff 			; <UNDEFINED> instruction: 0xffffffff
    f9d0:	ffff ffff 			; <UNDEFINED> instruction: 0xffffffff
    f9d4:	ffff ffff 			; <UNDEFINED> instruction: 0xffffffff
    f9d8:	ffff ffff 			; <UNDEFINED> instruction: 0xffffffff
    f9dc:	ffff ffff 			; <UNDEFINED> instruction: 0xffffffff
    f9e0:	ffff ffff 			; <UNDEFINED> instruction: 0xffffffff
    f9e4:	ffff ffff 			; <UNDEFINED> instruction: 0xffffffff
    f9e8:	ffff ffff 			; <UNDEFINED> instruction: 0xffffffff
    f9ec:	ffff ffff 			; <UNDEFINED> instruction: 0xffffffff
    f9f0:	ffff ffff 			; <UNDEFINED> instruction: 0xffffffff
    f9f4:	ffff ffff 			; <UNDEFINED> instruction: 0xffffffff
    f9f8:	ffff ffff 			; <UNDEFINED> instruction: 0xffffffff
    f9fc:	ffff ffff 			; <UNDEFINED> instruction: 0xffffffff
    fa00:	ffff ffff 			; <UNDEFINED> instruction: 0xffffffff
    fa04:	ffff ffff 			; <UNDEFINED> instruction: 0xffffffff
    fa08:	ffff ffff 			; <UNDEFINED> instruction: 0xffffffff
    fa0c:	ffff ffff 			; <UNDEFINED> instruction: 0xffffffff
    fa10:	ffff ffff 			; <UNDEFINED> instruction: 0xffffffff
    fa14:	ffff ffff 			; <UNDEFINED> instruction: 0xffffffff
    fa18:	ffff ffff 			; <UNDEFINED> instruction: 0xffffffff
    fa1c:	ffff ffff 			; <UNDEFINED> instruction: 0xffffffff
    fa20:	ffff ffff 			; <UNDEFINED> instruction: 0xffffffff
    fa24:	ffff ffff 			; <UNDEFINED> instruction: 0xffffffff
    fa28:	ffff ffff 			; <UNDEFINED> instruction: 0xffffffff
    fa2c:	ffff ffff 			; <UNDEFINED> instruction: 0xffffffff
    fa30:	ffff ffff 			; <UNDEFINED> instruction: 0xffffffff
    fa34:	ffff ffff 			; <UNDEFINED> instruction: 0xffffffff
    fa38:	ffff ffff 			; <UNDEFINED> instruction: 0xffffffff
    fa3c:	ffff ffff 			; <UNDEFINED> instruction: 0xffffffff
    fa40:	ffff ffff 			; <UNDEFINED> instruction: 0xffffffff
    fa44:	ffff ffff 			; <UNDEFINED> instruction: 0xffffffff
    fa48:	ffff ffff 			; <UNDEFINED> instruction: 0xffffffff
    fa4c:	ffff ffff 			; <UNDEFINED> instruction: 0xffffffff
    fa50:	ffff ffff 			; <UNDEFINED> instruction: 0xffffffff
    fa54:	ffff ffff 			; <UNDEFINED> instruction: 0xffffffff
    fa58:	ffff ffff 			; <UNDEFINED> instruction: 0xffffffff
    fa5c:	ffff ffff 			; <UNDEFINED> instruction: 0xffffffff
    fa60:	ffff ffff 			; <UNDEFINED> instruction: 0xffffffff
    fa64:	ffff ffff 			; <UNDEFINED> instruction: 0xffffffff
    fa68:	ffff ffff 			; <UNDEFINED> instruction: 0xffffffff
    fa6c:	ffff ffff 			; <UNDEFINED> instruction: 0xffffffff
    fa70:	ffff ffff 			; <UNDEFINED> instruction: 0xffffffff
    fa74:	ffff ffff 			; <UNDEFINED> instruction: 0xffffffff
    fa78:	ffff ffff 			; <UNDEFINED> instruction: 0xffffffff
    fa7c:	ffff ffff 			; <UNDEFINED> instruction: 0xffffffff
    fa80:	ffff ffff 			; <UNDEFINED> instruction: 0xffffffff
    fa84:	ffff ffff 			; <UNDEFINED> instruction: 0xffffffff
    fa88:	ffff ffff 			; <UNDEFINED> instruction: 0xffffffff
    fa8c:	ffff ffff 			; <UNDEFINED> instruction: 0xffffffff
    fa90:	ffff ffff 			; <UNDEFINED> instruction: 0xffffffff
    fa94:	ffff ffff 			; <UNDEFINED> instruction: 0xffffffff
    fa98:	ffff ffff 			; <UNDEFINED> instruction: 0xffffffff
    fa9c:	ffff ffff 			; <UNDEFINED> instruction: 0xffffffff
    faa0:	ffff ffff 			; <UNDEFINED> instruction: 0xffffffff
    faa4:	ffff ffff 			; <UNDEFINED> instruction: 0xffffffff
    faa8:	ffff ffff 			; <UNDEFINED> instruction: 0xffffffff
    faac:	ffff ffff 			; <UNDEFINED> instruction: 0xffffffff
    fab0:	ffff ffff 			; <UNDEFINED> instruction: 0xffffffff
    fab4:	ffff ffff 			; <UNDEFINED> instruction: 0xffffffff
    fab8:	ffff ffff 			; <UNDEFINED> instruction: 0xffffffff
    fabc:	ffff ffff 			; <UNDEFINED> instruction: 0xffffffff
    fac0:	ffff ffff 			; <UNDEFINED> instruction: 0xffffffff
    fac4:	ffff ffff 			; <UNDEFINED> instruction: 0xffffffff
    fac8:	ffff ffff 			; <UNDEFINED> instruction: 0xffffffff
    facc:	ffff ffff 			; <UNDEFINED> instruction: 0xffffffff
    fad0:	ffff ffff 			; <UNDEFINED> instruction: 0xffffffff
    fad4:	ffff ffff 			; <UNDEFINED> instruction: 0xffffffff
    fad8:	ffff ffff 			; <UNDEFINED> instruction: 0xffffffff
    fadc:	ffff ffff 			; <UNDEFINED> instruction: 0xffffffff
    fae0:	ffff ffff 			; <UNDEFINED> instruction: 0xffffffff
    fae4:	ffff ffff 			; <UNDEFINED> instruction: 0xffffffff
    fae8:	ffff ffff 			; <UNDEFINED> instruction: 0xffffffff
    faec:	ffff ffff 			; <UNDEFINED> instruction: 0xffffffff
    faf0:	ffff ffff 			; <UNDEFINED> instruction: 0xffffffff
    faf4:	ffff ffff 			; <UNDEFINED> instruction: 0xffffffff
    faf8:	ffff ffff 			; <UNDEFINED> instruction: 0xffffffff
    fafc:	ffff ffff 			; <UNDEFINED> instruction: 0xffffffff
    fb00:	ffff ffff 			; <UNDEFINED> instruction: 0xffffffff
    fb04:	ffff ffff 			; <UNDEFINED> instruction: 0xffffffff
    fb08:	ffff ffff 			; <UNDEFINED> instruction: 0xffffffff
    fb0c:	ffff ffff 			; <UNDEFINED> instruction: 0xffffffff
    fb10:	ffff ffff 			; <UNDEFINED> instruction: 0xffffffff
    fb14:	ffff ffff 			; <UNDEFINED> instruction: 0xffffffff
    fb18:	ffff ffff 			; <UNDEFINED> instruction: 0xffffffff
    fb1c:	ffff ffff 			; <UNDEFINED> instruction: 0xffffffff
    fb20:	ffff ffff 			; <UNDEFINED> instruction: 0xffffffff
    fb24:	ffff ffff 			; <UNDEFINED> instruction: 0xffffffff
    fb28:	ffff ffff 			; <UNDEFINED> instruction: 0xffffffff
    fb2c:	ffff ffff 			; <UNDEFINED> instruction: 0xffffffff
    fb30:	ffff ffff 			; <UNDEFINED> instruction: 0xffffffff
    fb34:	ffff ffff 			; <UNDEFINED> instruction: 0xffffffff
    fb38:	ffff ffff 			; <UNDEFINED> instruction: 0xffffffff
    fb3c:	ffff ffff 			; <UNDEFINED> instruction: 0xffffffff
    fb40:	ffff ffff 			; <UNDEFINED> instruction: 0xffffffff
    fb44:	ffff ffff 			; <UNDEFINED> instruction: 0xffffffff
    fb48:	ffff ffff 			; <UNDEFINED> instruction: 0xffffffff
    fb4c:	ffff ffff 			; <UNDEFINED> instruction: 0xffffffff
    fb50:	ffff ffff 			; <UNDEFINED> instruction: 0xffffffff
    fb54:	ffff ffff 			; <UNDEFINED> instruction: 0xffffffff
    fb58:	ffff ffff 			; <UNDEFINED> instruction: 0xffffffff
    fb5c:	ffff ffff 			; <UNDEFINED> instruction: 0xffffffff
    fb60:	ffff ffff 			; <UNDEFINED> instruction: 0xffffffff
    fb64:	ffff ffff 			; <UNDEFINED> instruction: 0xffffffff
    fb68:	ffff ffff 			; <UNDEFINED> instruction: 0xffffffff
    fb6c:	ffff ffff 			; <UNDEFINED> instruction: 0xffffffff
    fb70:	ffff ffff 			; <UNDEFINED> instruction: 0xffffffff
    fb74:	ffff ffff 			; <UNDEFINED> instruction: 0xffffffff
    fb78:	ffff ffff 			; <UNDEFINED> instruction: 0xffffffff
    fb7c:	ffff ffff 			; <UNDEFINED> instruction: 0xffffffff
    fb80:	ffff ffff 			; <UNDEFINED> instruction: 0xffffffff
    fb84:	ffff ffff 			; <UNDEFINED> instruction: 0xffffffff
    fb88:	ffff ffff 			; <UNDEFINED> instruction: 0xffffffff
    fb8c:	ffff ffff 			; <UNDEFINED> instruction: 0xffffffff
    fb90:	ffff ffff 			; <UNDEFINED> instruction: 0xffffffff
    fb94:	ffff ffff 			; <UNDEFINED> instruction: 0xffffffff
    fb98:	ffff ffff 			; <UNDEFINED> instruction: 0xffffffff
    fb9c:	ffff ffff 			; <UNDEFINED> instruction: 0xffffffff
    fba0:	ffff ffff 			; <UNDEFINED> instruction: 0xffffffff
    fba4:	ffff ffff 			; <UNDEFINED> instruction: 0xffffffff
    fba8:	ffff ffff 			; <UNDEFINED> instruction: 0xffffffff
    fbac:	ffff ffff 			; <UNDEFINED> instruction: 0xffffffff
    fbb0:	ffff ffff 			; <UNDEFINED> instruction: 0xffffffff
    fbb4:	ffff ffff 			; <UNDEFINED> instruction: 0xffffffff
    fbb8:	ffff ffff 			; <UNDEFINED> instruction: 0xffffffff
    fbbc:	ffff ffff 			; <UNDEFINED> instruction: 0xffffffff
    fbc0:	ffff ffff 			; <UNDEFINED> instruction: 0xffffffff
    fbc4:	ffff ffff 			; <UNDEFINED> instruction: 0xffffffff
    fbc8:	ffff ffff 			; <UNDEFINED> instruction: 0xffffffff
    fbcc:	ffff ffff 			; <UNDEFINED> instruction: 0xffffffff
    fbd0:	ffff ffff 			; <UNDEFINED> instruction: 0xffffffff
    fbd4:	ffff ffff 			; <UNDEFINED> instruction: 0xffffffff
    fbd8:	ffff ffff 			; <UNDEFINED> instruction: 0xffffffff
    fbdc:	ffff ffff 			; <UNDEFINED> instruction: 0xffffffff
    fbe0:	ffff ffff 			; <UNDEFINED> instruction: 0xffffffff
    fbe4:	ffff ffff 			; <UNDEFINED> instruction: 0xffffffff
    fbe8:	ffff ffff 			; <UNDEFINED> instruction: 0xffffffff
    fbec:	ffff ffff 			; <UNDEFINED> instruction: 0xffffffff
    fbf0:	ffff ffff 			; <UNDEFINED> instruction: 0xffffffff
    fbf4:	ffff ffff 			; <UNDEFINED> instruction: 0xffffffff
    fbf8:	ffff ffff 			; <UNDEFINED> instruction: 0xffffffff
    fbfc:	ffff ffff 			; <UNDEFINED> instruction: 0xffffffff
    fc00:	ffff ffff 			; <UNDEFINED> instruction: 0xffffffff
    fc04:	ffff ffff 			; <UNDEFINED> instruction: 0xffffffff
    fc08:	ffff ffff 			; <UNDEFINED> instruction: 0xffffffff
    fc0c:	ffff ffff 			; <UNDEFINED> instruction: 0xffffffff
    fc10:	ffff ffff 			; <UNDEFINED> instruction: 0xffffffff
    fc14:	ffff ffff 			; <UNDEFINED> instruction: 0xffffffff
    fc18:	ffff ffff 			; <UNDEFINED> instruction: 0xffffffff
    fc1c:	ffff ffff 			; <UNDEFINED> instruction: 0xffffffff
    fc20:	ffff ffff 			; <UNDEFINED> instruction: 0xffffffff
    fc24:	ffff ffff 			; <UNDEFINED> instruction: 0xffffffff
    fc28:	ffff ffff 			; <UNDEFINED> instruction: 0xffffffff
    fc2c:	ffff ffff 			; <UNDEFINED> instruction: 0xffffffff
    fc30:	ffff ffff 			; <UNDEFINED> instruction: 0xffffffff
    fc34:	ffff ffff 			; <UNDEFINED> instruction: 0xffffffff
    fc38:	ffff ffff 			; <UNDEFINED> instruction: 0xffffffff
    fc3c:	ffff ffff 			; <UNDEFINED> instruction: 0xffffffff
    fc40:	ffff ffff 			; <UNDEFINED> instruction: 0xffffffff
    fc44:	ffff ffff 			; <UNDEFINED> instruction: 0xffffffff
    fc48:	ffff ffff 			; <UNDEFINED> instruction: 0xffffffff
    fc4c:	ffff ffff 			; <UNDEFINED> instruction: 0xffffffff
    fc50:	ffff ffff 			; <UNDEFINED> instruction: 0xffffffff
    fc54:	ffff ffff 			; <UNDEFINED> instruction: 0xffffffff
    fc58:	ffff ffff 			; <UNDEFINED> instruction: 0xffffffff
    fc5c:	ffff ffff 			; <UNDEFINED> instruction: 0xffffffff
    fc60:	ffff ffff 			; <UNDEFINED> instruction: 0xffffffff
    fc64:	ffff ffff 			; <UNDEFINED> instruction: 0xffffffff
    fc68:	ffff ffff 			; <UNDEFINED> instruction: 0xffffffff
    fc6c:	ffff ffff 			; <UNDEFINED> instruction: 0xffffffff
    fc70:	ffff ffff 			; <UNDEFINED> instruction: 0xffffffff
    fc74:	ffff ffff 			; <UNDEFINED> instruction: 0xffffffff
    fc78:	ffff ffff 			; <UNDEFINED> instruction: 0xffffffff
    fc7c:	ffff ffff 			; <UNDEFINED> instruction: 0xffffffff
    fc80:	ffff ffff 			; <UNDEFINED> instruction: 0xffffffff
    fc84:	ffff ffff 			; <UNDEFINED> instruction: 0xffffffff
    fc88:	ffff ffff 			; <UNDEFINED> instruction: 0xffffffff
    fc8c:	ffff ffff 			; <UNDEFINED> instruction: 0xffffffff
    fc90:	ffff ffff 			; <UNDEFINED> instruction: 0xffffffff
    fc94:	ffff ffff 			; <UNDEFINED> instruction: 0xffffffff
    fc98:	ffff ffff 			; <UNDEFINED> instruction: 0xffffffff
    fc9c:	ffff ffff 			; <UNDEFINED> instruction: 0xffffffff
    fca0:	ffff ffff 			; <UNDEFINED> instruction: 0xffffffff
    fca4:	ffff ffff 			; <UNDEFINED> instruction: 0xffffffff
    fca8:	ffff ffff 			; <UNDEFINED> instruction: 0xffffffff
    fcac:	ffff ffff 			; <UNDEFINED> instruction: 0xffffffff
    fcb0:	ffff ffff 			; <UNDEFINED> instruction: 0xffffffff
    fcb4:	ffff ffff 			; <UNDEFINED> instruction: 0xffffffff
    fcb8:	ffff ffff 			; <UNDEFINED> instruction: 0xffffffff
    fcbc:	ffff ffff 			; <UNDEFINED> instruction: 0xffffffff
    fcc0:	ffff ffff 			; <UNDEFINED> instruction: 0xffffffff
    fcc4:	ffff ffff 			; <UNDEFINED> instruction: 0xffffffff
    fcc8:	ffff ffff 			; <UNDEFINED> instruction: 0xffffffff
    fccc:	ffff ffff 			; <UNDEFINED> instruction: 0xffffffff
    fcd0:	ffff ffff 			; <UNDEFINED> instruction: 0xffffffff
    fcd4:	ffff ffff 			; <UNDEFINED> instruction: 0xffffffff
    fcd8:	ffff ffff 			; <UNDEFINED> instruction: 0xffffffff
    fcdc:	ffff ffff 			; <UNDEFINED> instruction: 0xffffffff
    fce0:	ffff ffff 			; <UNDEFINED> instruction: 0xffffffff
    fce4:	ffff ffff 			; <UNDEFINED> instruction: 0xffffffff
    fce8:	ffff ffff 			; <UNDEFINED> instruction: 0xffffffff
    fcec:	ffff ffff 			; <UNDEFINED> instruction: 0xffffffff
    fcf0:	ffff ffff 			; <UNDEFINED> instruction: 0xffffffff
    fcf4:	ffff ffff 			; <UNDEFINED> instruction: 0xffffffff
    fcf8:	ffff ffff 			; <UNDEFINED> instruction: 0xffffffff
    fcfc:	ffff ffff 			; <UNDEFINED> instruction: 0xffffffff
    fd00:	ffff ffff 			; <UNDEFINED> instruction: 0xffffffff
    fd04:	ffff ffff 			; <UNDEFINED> instruction: 0xffffffff
    fd08:	ffff ffff 			; <UNDEFINED> instruction: 0xffffffff
    fd0c:	ffff ffff 			; <UNDEFINED> instruction: 0xffffffff
    fd10:	ffff ffff 			; <UNDEFINED> instruction: 0xffffffff
    fd14:	ffff ffff 			; <UNDEFINED> instruction: 0xffffffff
    fd18:	ffff ffff 			; <UNDEFINED> instruction: 0xffffffff
    fd1c:	ffff ffff 			; <UNDEFINED> instruction: 0xffffffff
    fd20:	ffff ffff 			; <UNDEFINED> instruction: 0xffffffff
    fd24:	ffff ffff 			; <UNDEFINED> instruction: 0xffffffff
    fd28:	ffff ffff 			; <UNDEFINED> instruction: 0xffffffff
    fd2c:	ffff ffff 			; <UNDEFINED> instruction: 0xffffffff
    fd30:	ffff ffff 			; <UNDEFINED> instruction: 0xffffffff
    fd34:	ffff ffff 			; <UNDEFINED> instruction: 0xffffffff
    fd38:	ffff ffff 			; <UNDEFINED> instruction: 0xffffffff
    fd3c:	ffff ffff 			; <UNDEFINED> instruction: 0xffffffff
    fd40:	ffff ffff 			; <UNDEFINED> instruction: 0xffffffff
    fd44:	ffff ffff 			; <UNDEFINED> instruction: 0xffffffff
    fd48:	ffff ffff 			; <UNDEFINED> instruction: 0xffffffff
    fd4c:	ffff ffff 			; <UNDEFINED> instruction: 0xffffffff
    fd50:	ffff ffff 			; <UNDEFINED> instruction: 0xffffffff
    fd54:	ffff ffff 			; <UNDEFINED> instruction: 0xffffffff
    fd58:	ffff ffff 			; <UNDEFINED> instruction: 0xffffffff
    fd5c:	ffff ffff 			; <UNDEFINED> instruction: 0xffffffff
    fd60:	ffff ffff 			; <UNDEFINED> instruction: 0xffffffff
    fd64:	ffff ffff 			; <UNDEFINED> instruction: 0xffffffff
    fd68:	ffff ffff 			; <UNDEFINED> instruction: 0xffffffff
    fd6c:	ffff ffff 			; <UNDEFINED> instruction: 0xffffffff
    fd70:	ffff ffff 			; <UNDEFINED> instruction: 0xffffffff
    fd74:	ffff ffff 			; <UNDEFINED> instruction: 0xffffffff
    fd78:	ffff ffff 			; <UNDEFINED> instruction: 0xffffffff
    fd7c:	ffff ffff 			; <UNDEFINED> instruction: 0xffffffff
    fd80:	ffff ffff 			; <UNDEFINED> instruction: 0xffffffff
    fd84:	ffff ffff 			; <UNDEFINED> instruction: 0xffffffff
    fd88:	ffff ffff 			; <UNDEFINED> instruction: 0xffffffff
    fd8c:	ffff ffff 			; <UNDEFINED> instruction: 0xffffffff
    fd90:	ffff ffff 			; <UNDEFINED> instruction: 0xffffffff
    fd94:	ffff ffff 			; <UNDEFINED> instruction: 0xffffffff
    fd98:	ffff ffff 			; <UNDEFINED> instruction: 0xffffffff
    fd9c:	ffff ffff 			; <UNDEFINED> instruction: 0xffffffff
    fda0:	ffff ffff 			; <UNDEFINED> instruction: 0xffffffff
    fda4:	ffff ffff 			; <UNDEFINED> instruction: 0xffffffff
    fda8:	ffff ffff 			; <UNDEFINED> instruction: 0xffffffff
    fdac:	ffff ffff 			; <UNDEFINED> instruction: 0xffffffff
    fdb0:	ffff ffff 			; <UNDEFINED> instruction: 0xffffffff
    fdb4:	ffff ffff 			; <UNDEFINED> instruction: 0xffffffff
    fdb8:	ffff ffff 			; <UNDEFINED> instruction: 0xffffffff
    fdbc:	ffff ffff 			; <UNDEFINED> instruction: 0xffffffff
    fdc0:	ffff ffff 			; <UNDEFINED> instruction: 0xffffffff
    fdc4:	ffff ffff 			; <UNDEFINED> instruction: 0xffffffff
    fdc8:	ffff ffff 			; <UNDEFINED> instruction: 0xffffffff
    fdcc:	ffff ffff 			; <UNDEFINED> instruction: 0xffffffff
    fdd0:	ffff ffff 			; <UNDEFINED> instruction: 0xffffffff
    fdd4:	ffff ffff 			; <UNDEFINED> instruction: 0xffffffff
    fdd8:	ffff ffff 			; <UNDEFINED> instruction: 0xffffffff
    fddc:	ffff ffff 			; <UNDEFINED> instruction: 0xffffffff
    fde0:	ffff ffff 			; <UNDEFINED> instruction: 0xffffffff
    fde4:	ffff ffff 			; <UNDEFINED> instruction: 0xffffffff
    fde8:	ffff ffff 			; <UNDEFINED> instruction: 0xffffffff
    fdec:	ffff ffff 			; <UNDEFINED> instruction: 0xffffffff
    fdf0:	ffff ffff 			; <UNDEFINED> instruction: 0xffffffff
    fdf4:	ffff ffff 			; <UNDEFINED> instruction: 0xffffffff
    fdf8:	ffff ffff 			; <UNDEFINED> instruction: 0xffffffff
    fdfc:	ffff ffff 			; <UNDEFINED> instruction: 0xffffffff
    fe00:	ffff ffff 			; <UNDEFINED> instruction: 0xffffffff
    fe04:	ffff ffff 			; <UNDEFINED> instruction: 0xffffffff
    fe08:	ffff ffff 			; <UNDEFINED> instruction: 0xffffffff
    fe0c:	ffff ffff 			; <UNDEFINED> instruction: 0xffffffff
    fe10:	ffff ffff 			; <UNDEFINED> instruction: 0xffffffff
    fe14:	ffff ffff 			; <UNDEFINED> instruction: 0xffffffff
    fe18:	ffff ffff 			; <UNDEFINED> instruction: 0xffffffff
    fe1c:	ffff ffff 			; <UNDEFINED> instruction: 0xffffffff
    fe20:	ffff ffff 			; <UNDEFINED> instruction: 0xffffffff
    fe24:	ffff ffff 			; <UNDEFINED> instruction: 0xffffffff
    fe28:	ffff ffff 			; <UNDEFINED> instruction: 0xffffffff
    fe2c:	ffff ffff 			; <UNDEFINED> instruction: 0xffffffff
    fe30:	ffff ffff 			; <UNDEFINED> instruction: 0xffffffff
    fe34:	ffff ffff 			; <UNDEFINED> instruction: 0xffffffff
    fe38:	ffff ffff 			; <UNDEFINED> instruction: 0xffffffff
    fe3c:	ffff ffff 			; <UNDEFINED> instruction: 0xffffffff
    fe40:	ffff ffff 			; <UNDEFINED> instruction: 0xffffffff
    fe44:	ffff ffff 			; <UNDEFINED> instruction: 0xffffffff
    fe48:	ffff ffff 			; <UNDEFINED> instruction: 0xffffffff
    fe4c:	ffff ffff 			; <UNDEFINED> instruction: 0xffffffff
    fe50:	ffff ffff 			; <UNDEFINED> instruction: 0xffffffff
    fe54:	ffff ffff 			; <UNDEFINED> instruction: 0xffffffff
    fe58:	ffff ffff 			; <UNDEFINED> instruction: 0xffffffff
    fe5c:	ffff ffff 			; <UNDEFINED> instruction: 0xffffffff
    fe60:	ffff ffff 			; <UNDEFINED> instruction: 0xffffffff
    fe64:	ffff ffff 			; <UNDEFINED> instruction: 0xffffffff
    fe68:	ffff ffff 			; <UNDEFINED> instruction: 0xffffffff
    fe6c:	ffff ffff 			; <UNDEFINED> instruction: 0xffffffff
    fe70:	ffff ffff 			; <UNDEFINED> instruction: 0xffffffff
    fe74:	ffff ffff 			; <UNDEFINED> instruction: 0xffffffff
    fe78:	ffff ffff 			; <UNDEFINED> instruction: 0xffffffff
    fe7c:	ffff ffff 			; <UNDEFINED> instruction: 0xffffffff
    fe80:	ffff ffff 			; <UNDEFINED> instruction: 0xffffffff
    fe84:	ffff ffff 			; <UNDEFINED> instruction: 0xffffffff
    fe88:	ffff ffff 			; <UNDEFINED> instruction: 0xffffffff
    fe8c:	ffff ffff 			; <UNDEFINED> instruction: 0xffffffff
    fe90:	ffff ffff 			; <UNDEFINED> instruction: 0xffffffff
    fe94:	ffff ffff 			; <UNDEFINED> instruction: 0xffffffff
    fe98:	ffff ffff 			; <UNDEFINED> instruction: 0xffffffff
    fe9c:	ffff ffff 			; <UNDEFINED> instruction: 0xffffffff
    fea0:	ffff ffff 			; <UNDEFINED> instruction: 0xffffffff
    fea4:	ffff ffff 			; <UNDEFINED> instruction: 0xffffffff
    fea8:	ffff ffff 			; <UNDEFINED> instruction: 0xffffffff
    feac:	ffff ffff 			; <UNDEFINED> instruction: 0xffffffff
    feb0:	ffff ffff 			; <UNDEFINED> instruction: 0xffffffff
    feb4:	ffff ffff 			; <UNDEFINED> instruction: 0xffffffff
    feb8:	ffff ffff 			; <UNDEFINED> instruction: 0xffffffff
    febc:	ffff ffff 			; <UNDEFINED> instruction: 0xffffffff
    fec0:	ffff ffff 			; <UNDEFINED> instruction: 0xffffffff
    fec4:	ffff ffff 			; <UNDEFINED> instruction: 0xffffffff
    fec8:	ffff ffff 			; <UNDEFINED> instruction: 0xffffffff
    fecc:	ffff ffff 			; <UNDEFINED> instruction: 0xffffffff
    fed0:	ffff ffff 			; <UNDEFINED> instruction: 0xffffffff
    fed4:	ffff ffff 			; <UNDEFINED> instruction: 0xffffffff
    fed8:	ffff ffff 			; <UNDEFINED> instruction: 0xffffffff
    fedc:	ffff ffff 			; <UNDEFINED> instruction: 0xffffffff
    fee0:	ffff ffff 			; <UNDEFINED> instruction: 0xffffffff
    fee4:	ffff ffff 			; <UNDEFINED> instruction: 0xffffffff
    fee8:	ffff ffff 			; <UNDEFINED> instruction: 0xffffffff
    feec:	ffff ffff 			; <UNDEFINED> instruction: 0xffffffff
    fef0:	ffff ffff 			; <UNDEFINED> instruction: 0xffffffff
    fef4:	ffff ffff 			; <UNDEFINED> instruction: 0xffffffff
    fef8:	ffff ffff 			; <UNDEFINED> instruction: 0xffffffff
    fefc:	ffff ffff 			; <UNDEFINED> instruction: 0xffffffff
    ff00:	ffff ffff 			; <UNDEFINED> instruction: 0xffffffff
    ff04:	ffff ffff 			; <UNDEFINED> instruction: 0xffffffff
    ff08:	ffff ffff 			; <UNDEFINED> instruction: 0xffffffff
    ff0c:	ffff ffff 			; <UNDEFINED> instruction: 0xffffffff
    ff10:	ffff ffff 			; <UNDEFINED> instruction: 0xffffffff
    ff14:	ffff ffff 			; <UNDEFINED> instruction: 0xffffffff
    ff18:	ffff ffff 			; <UNDEFINED> instruction: 0xffffffff
    ff1c:	ffff ffff 			; <UNDEFINED> instruction: 0xffffffff
    ff20:	ffff ffff 			; <UNDEFINED> instruction: 0xffffffff
    ff24:	ffff ffff 			; <UNDEFINED> instruction: 0xffffffff
    ff28:	ffff ffff 			; <UNDEFINED> instruction: 0xffffffff
    ff2c:	ffff ffff 			; <UNDEFINED> instruction: 0xffffffff
    ff30:	ffff ffff 			; <UNDEFINED> instruction: 0xffffffff
    ff34:	ffff ffff 			; <UNDEFINED> instruction: 0xffffffff
    ff38:	ffff ffff 			; <UNDEFINED> instruction: 0xffffffff
    ff3c:	ffff ffff 			; <UNDEFINED> instruction: 0xffffffff
    ff40:	ffff ffff 			; <UNDEFINED> instruction: 0xffffffff
    ff44:	ffff ffff 			; <UNDEFINED> instruction: 0xffffffff
    ff48:	ffff ffff 			; <UNDEFINED> instruction: 0xffffffff
    ff4c:	ffff ffff 			; <UNDEFINED> instruction: 0xffffffff
    ff50:	ffff ffff 			; <UNDEFINED> instruction: 0xffffffff
    ff54:	ffff ffff 			; <UNDEFINED> instruction: 0xffffffff
    ff58:	ffff ffff 			; <UNDEFINED> instruction: 0xffffffff
    ff5c:	ffff ffff 			; <UNDEFINED> instruction: 0xffffffff
    ff60:	ffff ffff 			; <UNDEFINED> instruction: 0xffffffff
    ff64:	ffff ffff 			; <UNDEFINED> instruction: 0xffffffff
    ff68:	ffff ffff 			; <UNDEFINED> instruction: 0xffffffff
    ff6c:	ffff ffff 			; <UNDEFINED> instruction: 0xffffffff
    ff70:	ffff ffff 			; <UNDEFINED> instruction: 0xffffffff
    ff74:	ffff ffff 			; <UNDEFINED> instruction: 0xffffffff
    ff78:	ffff ffff 			; <UNDEFINED> instruction: 0xffffffff
    ff7c:	ffff ffff 			; <UNDEFINED> instruction: 0xffffffff
    ff80:	ffff ffff 			; <UNDEFINED> instruction: 0xffffffff
    ff84:	ffff ffff 			; <UNDEFINED> instruction: 0xffffffff
    ff88:	ffff ffff 			; <UNDEFINED> instruction: 0xffffffff
    ff8c:	ffff ffff 			; <UNDEFINED> instruction: 0xffffffff
    ff90:	ffff ffff 			; <UNDEFINED> instruction: 0xffffffff
    ff94:	ffff ffff 			; <UNDEFINED> instruction: 0xffffffff
    ff98:	ffff ffff 			; <UNDEFINED> instruction: 0xffffffff
    ff9c:	ffff ffff 			; <UNDEFINED> instruction: 0xffffffff
    ffa0:	ffff ffff 			; <UNDEFINED> instruction: 0xffffffff
    ffa4:	ffff ffff 			; <UNDEFINED> instruction: 0xffffffff
    ffa8:	ffff ffff 			; <UNDEFINED> instruction: 0xffffffff
    ffac:	ffff ffff 			; <UNDEFINED> instruction: 0xffffffff
    ffb0:	ffff ffff 			; <UNDEFINED> instruction: 0xffffffff
    ffb4:	ffff ffff 			; <UNDEFINED> instruction: 0xffffffff
    ffb8:	ffff ffff 			; <UNDEFINED> instruction: 0xffffffff
    ffbc:	ffff ffff 			; <UNDEFINED> instruction: 0xffffffff
    ffc0:	ffff ffff 			; <UNDEFINED> instruction: 0xffffffff
    ffc4:	ffff ffff 			; <UNDEFINED> instruction: 0xffffffff
    ffc8:	ffff ffff 			; <UNDEFINED> instruction: 0xffffffff
    ffcc:	ffff ffff 			; <UNDEFINED> instruction: 0xffffffff
    ffd0:	ffff ffff 			; <UNDEFINED> instruction: 0xffffffff
    ffd4:	ffff ffff 			; <UNDEFINED> instruction: 0xffffffff
    ffd8:	ffff ffff 			; <UNDEFINED> instruction: 0xffffffff
    ffdc:	ffff ffff 			; <UNDEFINED> instruction: 0xffffffff
    ffe0:	ffff ffff 			; <UNDEFINED> instruction: 0xffffffff
    ffe4:	ffff ffff 			; <UNDEFINED> instruction: 0xffffffff
    ffe8:	ffff ffff 			; <UNDEFINED> instruction: 0xffffffff
    ffec:	ffff ffff 			; <UNDEFINED> instruction: 0xffffffff
    fff0:	ffff ffff 			; <UNDEFINED> instruction: 0xffffffff
    fff4:	ffff ffff 			; <UNDEFINED> instruction: 0xffffffff
    fff8:	ffff ffff 			; <UNDEFINED> instruction: 0xffffffff
    fffc:	ffff ffff 			; <UNDEFINED> instruction: 0xffffffff
