
Discarded input sections

 .text          0x0000000000000000        0x0 obj/BlueOS_loader.o
 .data          0x0000000000000000        0x0 obj/BlueOS_loader.o
 .bss           0x0000000000000000        0x0 obj/BlueOS_loader.o
 .text.unlock_Flash
                0x0000000000000000       0x28 obj/BlueOS_loader.o
 .text.wait_Flash
                0x0000000000000000       0x10 obj/BlueOS_loader.o
 .text.lock_Flash
                0x0000000000000000       0x18 obj/BlueOS_loader.o
 .text.get_Ihex
                0x0000000000000000      0x174 obj/BlueOS_loader.o
 .text.loader   0x0000000000000000       0xb4 obj/BlueOS_loader.o
 .bss.Task_Bottom
                0x0000000000000000        0x4 obj/BlueOS_loader.o
 .bss.Task_Top  0x0000000000000000        0x4 obj/BlueOS_loader.o
 .rodata.get_Ihex.str1.1
                0x0000000000000000       0x4a obj/BlueOS_loader.o
 .rodata.loader.str1.1
                0x0000000000000000       0x2f obj/BlueOS_loader.o
 .comment       0x0000000000000000       0x32 obj/BlueOS_loader.o
 .ARM.attributes
                0x0000000000000000       0x33 obj/BlueOS_loader.o
 .text          0x0000000000000000        0x0 obj/BlueOS_IO.o
 .data          0x0000000000000000        0x0 obj/BlueOS_IO.o
 .bss           0x0000000000000000        0x0 obj/BlueOS_IO.o
 .text          0x0000000000000000        0x0 obj/BlueOS_console.o
 .data          0x0000000000000000        0x0 obj/BlueOS_console.o
 .bss           0x0000000000000000        0x0 obj/BlueOS_console.o
 .text.console_Startup_8Mhz
                0x0000000000000000       0x50 obj/BlueOS_console.o
 .text.receive_Char
                0x0000000000000000       0x18 obj/BlueOS_console.o
 .text.char_Byte
                0x0000000000000000       0x44 obj/BlueOS_console.o
 .text.send_PC  0x0000000000000000        0x6 obj/BlueOS_console.o
 .text          0x0000000000000000        0x0 obj/BlueOS_queues.o
 .data          0x0000000000000000        0x0 obj/BlueOS_queues.o
 .bss           0x0000000000000000        0x0 obj/BlueOS_queues.o
 .text.queue_Write
                0x0000000000000000       0xf4 obj/BlueOS_queues.o
 .text.queue_Read
                0x0000000000000000       0xc8 obj/BlueOS_queues.o
 .text.queue_Get_Size
                0x0000000000000000       0x60 obj/BlueOS_queues.o
 .text.queue_Get_Num_Unauthorized
                0x0000000000000000       0x60 obj/BlueOS_queues.o
 .text.queue_Get_Num_Overflows
                0x0000000000000000       0x60 obj/BlueOS_queues.o
 .text.queue_Get_Num_Underflows
                0x0000000000000000       0x60 obj/BlueOS_queues.o
 .text.queue_Get_Num_Collisions
                0x0000000000000000       0x60 obj/BlueOS_queues.o
 .text.queue_Get_Max_Usage
                0x0000000000000000       0x64 obj/BlueOS_queues.o
 .text.queue_Get_Num_Reads
                0x0000000000000000       0x60 obj/BlueOS_queues.o
 .text.queue_Get_Num_Writes
                0x0000000000000000       0x60 obj/BlueOS_queues.o
 .text.queue_Get_Used
                0x0000000000000000       0x74 obj/BlueOS_queues.o
 .text.queue_Get_Percent_Used
                0x0000000000000000       0x90 obj/BlueOS_queues.o
 .text          0x0000000000000000        0x0 obj/BlueOS_status.o
 .data          0x0000000000000000        0x0 obj/BlueOS_status.o
 .bss           0x0000000000000000        0x0 obj/BlueOS_status.o
 .text.status_Set_Led_wait
                0x0000000000000000        0xc obj/BlueOS_status.o
 .text          0x0000000000000000        0x0 obj/BlueOS_switcher.o
 .data          0x0000000000000000        0x0 obj/BlueOS_switcher.o
 .bss           0x0000000000000000        0x0 obj/BlueOS_switcher.o
 .text.switcher_Set_Switch_Time
                0x0000000000000000        0xc obj/BlueOS_switcher.o
 .bss.current_task
                0x0000000000000000        0x1 obj/BlueOS_switcher.o
 .text          0x0000000000000000        0x0 obj/BlueOS_startup.o
 .data          0x0000000000000000        0x0 obj/BlueOS_startup.o
 .bss           0x0000000000000000        0x0 obj/BlueOS_startup.o
 .text          0x0000000000000000        0x0 obj/BlueOS_clocks.o
 .data          0x0000000000000000        0x0 obj/BlueOS_clocks.o
 .bss           0x0000000000000000        0x0 obj/BlueOS_clocks.o
 .text          0x0000000000000000        0x0 obj/BlueOS_config.o
 .data          0x0000000000000000        0x0 obj/BlueOS_config.o
 .bss           0x0000000000000000        0x0 obj/BlueOS_config.o
 .text          0x0000000000000000        0x0 obj/BlueOS_queue_table.o
 .data          0x0000000000000000        0x0 obj/BlueOS_queue_table.o
 .bss           0x0000000000000000        0x0 obj/BlueOS_queue_table.o

Memory Configuration

Name             Origin             Length             Attributes
*default*        0x0000000000000000 0xffffffffffffffff

Linker script and memory map

                0x0000000008000000                __Flash_Bottom = 0x8000000
                0x000000000801ffff                __Flash_Top = 0x801ffff
                0x0000000000020000                __Flash_Length = 0x20000
                0x0000000020000000                __RAM_Bottom = 0x20000000
                0x0000000020004fff                __RAM_Top = 0x20004fff
                0x0000000000005000                __RAM_Length = 0x5000
                0x0000000008000000                __Config_F_Bottom = 0x8000000
                0x00000000080003ff                __Config_F_Top = 0x80003ff
                0x0000000000000400                __Config_F_Length = 0x400
                0x0000000008000400                __OS_F_Bottom = 0x8000400
                0x00000000080017ff                __OS_F_Top = 0x80017ff
                0x0000000000001400                __OS_F_Length = 0x1400
                0x0000000020000000                __RAM_Bottom = 0x20000000
                0x00000000200013ff                __RAM_Top = 0x200013ff
                0x0000000000001400                __RAM_Length = 0x1400
                0x00000000200007ff                __StackTop = 0x200007ff

.text           0x0000000008000000     0x1288
                0x0000000008000000                . = ALIGN (0x4)
                0x0000000008000000                __config_start = .
 *(.vector_table)
 .vector_table  0x0000000008000000       0x40 obj/BlueOS_config.o
                0x0000000008000000                vectorTable
 FILL mask 0xaddeadce
                0x0000000000000150                . = 0x150
 *fill*         0x0000000008000040      0x110 addeadce
                0x0000000008000150                __schedule_table_begin = .
 *(.schedule_table)
 .schedule_table
                0x0000000008000150       0x54 obj/BlueOS_config.o
                0x0000000008000150                scheduleTable
                0x00000000080001a4                __schedule_table_end = .
 FILL mask 0xaddeadce
                0x0000000000000360                . = 0x360
 *fill*         0x00000000080001a4      0x1bc addeadce
                0x0000000008000360                __task_table_begin = .
 *(.task_table)
 .task_table    0x0000000008000360       0x30 obj/BlueOS_config.o
                0x0000000008000360                taskTable
                0x0000000008000390                __task_table_end = .
 FILL mask 0xaddeadce
                0x0000000008000390                __config_end = .
                0x0000000008000400                . = ALIGN (0x400)
 *fill*         0x0000000008000390       0x70 addeadce
                0x0000000008000400                __os_start = .
 *(.text*)
 .text.io_Startup
                0x0000000008000400       0x30 obj/BlueOS_IO.o
                0x0000000008000400                io_Startup
 .text.send_Char
                0x0000000008000430       0x2c obj/BlueOS_console.o
                0x0000000008000430                send_Char
 .text.send_Byte
                0x000000000800045c       0x20 obj/BlueOS_console.o
                0x000000000800045c                send_Byte
 .text.send_Uint32
                0x000000000800047c       0x24 obj/BlueOS_console.o
                0x000000000800047c                send_Uint32
 .text.send_Str
                0x00000000080004a0       0x12 obj/BlueOS_console.o
                0x00000000080004a0                send_Str
 *fill*         0x00000000080004b2        0x2 addeadce
 .text.console_Startup_72Mhz
                0x00000000080004b4       0x60 obj/BlueOS_console.o
                0x00000000080004b4                console_Startup_72Mhz
 .text.receive_CharN
                0x0000000008000514       0x1c obj/BlueOS_console.o
                0x0000000008000514                receive_CharN
 .text.console_Task
                0x0000000008000530       0xc8 obj/BlueOS_console.o
                0x0000000008000530                console_Task
 .text.queue_Erase
                0x00000000080005f8       0xa4 obj/BlueOS_queues.o
                0x00000000080005f8                queue_Erase
 .text.queues_Startup
                0x000000000800069c       0x2c obj/BlueOS_queues.o
                0x000000000800069c                queues_Startup
 .text.status_Startup
                0x00000000080006c8       0x34 obj/BlueOS_status.o
                0x00000000080006c8                status_Startup
 .text.status_LED_Task
                0x00000000080006fc       0x4c obj/BlueOS_status.o
                0x00000000080006fc                status_LED_Task
 .text.status_Set_Error
                0x0000000008000748       0x18 obj/BlueOS_status.o
                0x0000000008000748                status_Set_Error
 .text.status_Show_Error
                0x0000000008000760        0xc obj/BlueOS_status.o
                0x0000000008000760                status_Show_Error
 .text.switcher_Startup
                0x000000000800076c       0xa4 obj/BlueOS_switcher.o
                0x000000000800076c                switcher_Startup
 .text.switcher_PendSV_Handler
                0x0000000008000810       0xa0 obj/BlueOS_switcher.o
                0x0000000008000810                switcher_PendSV_Handler
 .text.switcher_SysTick_Handler
                0x00000000080008b0       0x34 obj/BlueOS_switcher.o
                0x00000000080008b0                switcher_SysTick_Handler
 .text.sysTick_sysTime
                0x00000000080008e4        0xc obj/BlueOS_switcher.o
                0x00000000080008e4                sysTick_sysTime
 .text.switcher_Get_Curent_Task
                0x00000000080008f0        0xc obj/BlueOS_switcher.o
                0x00000000080008f0                switcher_Get_Curent_Task
 .text.switcher_Start_Task_Switching
                0x00000000080008fc       0x64 obj/BlueOS_switcher.o
                0x00000000080008fc                switcher_Start_Task_Switching
 .text.switcher_Stop_Task_Switching
                0x0000000008000960        0xc obj/BlueOS_switcher.o
                0x0000000008000960                switcher_Stop_Task_Switching
 .text.startup.main
                0x000000000800096c       0x48 obj/BlueOS_startup.o
                0x000000000800096c                main
 .text.hold_hdlr
                0x00000000080009b4        0x6 obj/BlueOS_startup.o
                0x00000000080009b4                hold_hdlr
 *fill*         0x00000000080009ba        0x2 addeadce
 .text.nm_hdlr  0x00000000080009bc       0x10 obj/BlueOS_startup.o
                0x00000000080009bc                nm_hdlr
 .text.hf_hdlr  0x00000000080009cc        0x6 obj/BlueOS_startup.o
                0x00000000080009cc                hf_hdlr
 .text.mm_hdlr  0x00000000080009d2        0x6 obj/BlueOS_startup.o
                0x00000000080009d2                mm_hdlr
 .text.bf_hdlr  0x00000000080009d8        0x6 obj/BlueOS_startup.o
                0x00000000080009d8                bf_hdlr
 .text.uf_hdlr  0x00000000080009de        0x6 obj/BlueOS_startup.o
                0x00000000080009de                uf_hdlr
 .text.sc_hdlr  0x00000000080009e4       0x10 obj/BlueOS_startup.o
                0x00000000080009e4                sc_hdlr
 .text.dm_hdlr  0x00000000080009f4       0x10 obj/BlueOS_startup.o
                0x00000000080009f4                dm_hdlr
 .text.read_cfsr
                0x0000000008000a04      0x11c obj/BlueOS_startup.o
                0x0000000008000a04                read_cfsr
 .text.unstack_regs
                0x0000000008000b20       0x88 obj/BlueOS_startup.o
                0x0000000008000b20                unstack_regs
 .text.hold_Fault
                0x0000000008000ba8       0x18 obj/BlueOS_startup.o
                0x0000000008000ba8                hold_Fault
 .text.hard_Fault
                0x0000000008000bc0       0x54 obj/BlueOS_startup.o
                0x0000000008000bc0                hard_Fault
 .text.bus_Fault
                0x0000000008000c14       0x1c obj/BlueOS_startup.o
                0x0000000008000c14                bus_Fault
 .text.mem_Fault
                0x0000000008000c30       0x1c obj/BlueOS_startup.o
                0x0000000008000c30                mem_Fault
 .text.usage_Fault
                0x0000000008000c4c       0x1c obj/BlueOS_startup.o
                0x0000000008000c4c                usage_Fault
 .text.clocks_Safe_sysClock
                0x0000000008000c68       0x50 obj/BlueOS_clocks.o
                0x0000000008000c68                clocks_Safe_sysClock
 .text.clocks_Start_sysClock
                0x0000000008000cb8       0xb0 obj/BlueOS_clocks.o
                0x0000000008000cb8                clocks_Start_sysClock
 .text.clocks_Start_periphClocks
                0x0000000008000d68       0x14 obj/BlueOS_clocks.o
                0x0000000008000d68                clocks_Start_periphClocks
 .text.clocks_Start_sysTick
                0x0000000008000d7c       0x38 obj/BlueOS_clocks.o
                0x0000000008000d7c                clocks_Start_sysTick
 *(.rodata*)
 .rodata.Lookup
                0x0000000008000db4       0x11 obj/BlueOS_console.o
 .rodata.console_Startup_8Mhz.str1.1
                0x0000000008000dc5        0xc obj/BlueOS_console.o
 .rodata.console_Task.str1.1
                0x0000000008000dd1       0x4f obj/BlueOS_console.o
 .rodata.status_Set_Error.str1.1
                0x0000000008000e20        0xc obj/BlueOS_status.o
 .rodata.status_Startup.str1.1
                0x0000000008000e2c        0xa obj/BlueOS_status.o
 .rodata.switcher_Start_Task_Switching.str1.1
                0x0000000008000e36       0x14 obj/BlueOS_switcher.o
 .rodata.bus_Fault.str1.1
                0x0000000008000e4a        0xc obj/BlueOS_startup.o
 .rodata.dm_hdlr.str1.1
                0x0000000008000e56       0x1a obj/BlueOS_startup.o
 .rodata.hard_Fault.str1.1
                0x0000000008000e70       0x63 obj/BlueOS_startup.o
 .rodata.hold_Fault.str1.1
                0x0000000008000ed3        0xe obj/BlueOS_startup.o
 .rodata.main.str1.1
                0x0000000008000ee1       0x11 obj/BlueOS_startup.o
                                         0x1d (size before relaxing)
 .rodata.mem_Fault.str1.1
                0x0000000008000ef2       0x1a obj/BlueOS_startup.o
 .rodata.nm_hdlr.str1.1
                0x0000000008000f0c       0x19 obj/BlueOS_startup.o
 .rodata.read_cfsr.str1.1
                0x0000000008000f25      0x282 obj/BlueOS_startup.o
 .rodata.sc_hdlr.str1.1
                0x00000000080011a7       0x20 obj/BlueOS_startup.o
 .rodata.unstack_regs.str1.1
                0x00000000080011c7       0x76 obj/BlueOS_startup.o
 .rodata.usage_Fault.str1.1
                0x000000000800123d        0xe obj/BlueOS_startup.o
 .rodata.clocks_Start_sysClock.str1.1
                0x000000000800124b       0x3a obj/BlueOS_clocks.o
                0x0000000008001288                . = ALIGN (0x4)
 *fill*         0x0000000008001285        0x3 addeadce
                0x0000000008001288                __os_end = .

.glue_7         0x0000000008001288        0x0
 .glue_7        0x0000000008001288        0x0 linker stubs

.glue_7t        0x0000000008001288        0x0
 .glue_7t       0x0000000008001288        0x0 linker stubs

.vfp11_veneer   0x0000000008001288        0x0
 .vfp11_veneer  0x0000000008001288        0x0 linker stubs

.v4_bx          0x0000000008001288        0x0
 .v4_bx         0x0000000008001288        0x0 linker stubs

.iplt           0x0000000008001288        0x0
 .iplt          0x0000000008001288        0x0 obj/BlueOS_loader.o

.rel.dyn        0x0000000008001288        0x0
 .rel.iplt      0x0000000008001288        0x0 obj/BlueOS_loader.o

.data           0x0000000020000000       0x34 load address 0x0000000008001288
                0x0000000020000000                . = ALIGN (0x4)
 *(.data*)
 .data.queue1_header
                0x0000000020000000       0x2c obj/BlueOS_queue_table.o
                0x0000000020000000                queue1_header
 .data.queue_list
                0x000000002000002c        0x8 obj/BlueOS_queue_table.o
                0x000000002000002c                queue_list
                0x0000000020000034                . = ALIGN (0x4)

.igot.plt       0x0000000020000034        0x0 load address 0x00000000080012bc
 .igot.plt      0x0000000020000034        0x0 obj/BlueOS_loader.o

.bss            0x0000000020000000      0x164 load address 0x0000000008001288
 *(.bss*)
 .bss.c_Buff_Index
                0x0000000020000000        0x1 obj/BlueOS_console.o
 .bss.command_Buffer
                0x0000000020000001       0xff obj/BlueOS_console.o
 .bss.console_Timeout
                0x0000000020000100        0x4 obj/BlueOS_console.o
 .bss.num_queues
                0x0000000020000104        0x4 obj/BlueOS_queues.o
                0x0000000020000104                num_queues
 .bss.Last_Error
                0x0000000020000108        0x4 obj/BlueOS_status.o
 .bss.Led_On    0x000000002000010c        0x1 obj/BlueOS_status.o
 *fill*         0x000000002000010d        0x3 
 .bss.Led_Time  0x0000000020000110        0x4 obj/BlueOS_status.o
 .bss.Led_Wait_Time
                0x0000000020000114        0x4 obj/BlueOS_status.o
 .bss.current_task_id
                0x0000000020000118        0x1 obj/BlueOS_switcher.o
 *fill*         0x0000000020000119        0x3 
 .bss.next_Switch_Time
                0x000000002000011c        0x4 obj/BlueOS_switcher.o
 .bss.schedule_Table_Index
                0x0000000020000120        0x4 obj/BlueOS_switcher.o
 .bss.stack_Table
                0x0000000020000124        0xc obj/BlueOS_switcher.o
                0x0000000020000124                stack_Table
 .bss.switch_On
                0x0000000020000130        0x1 obj/BlueOS_switcher.o
 *fill*         0x0000000020000131        0x3 
 .bss.switch_debug
                0x0000000020000134        0x4 obj/BlueOS_switcher.o
                0x0000000020000134                switch_debug
 .bss.sys_Ticks
                0x0000000020000138        0x4 obj/BlueOS_switcher.o
 .bss.queue1_data
                0x000000002000013c       0x28 obj/BlueOS_queue_table.o
                0x000000002000013c                queue1_data
 *(COMMON)
LOAD obj/BlueOS_loader.o
LOAD obj/BlueOS_IO.o
LOAD obj/BlueOS_console.o
LOAD obj/BlueOS_queues.o
LOAD obj/BlueOS_status.o
LOAD obj/BlueOS_switcher.o
LOAD obj/BlueOS_startup.o
LOAD obj/BlueOS_clocks.o
LOAD obj/BlueOS_config.o
LOAD obj/BlueOS_queue_table.o
OUTPUT(bin/BlueOS.elf elf32-littlearm)

.comment        0x0000000000000000       0x31
 .comment       0x0000000000000000       0x31 obj/BlueOS_IO.o
                                         0x32 (size before relaxing)
 .comment       0x0000000000000031       0x32 obj/BlueOS_console.o
 .comment       0x0000000000000031       0x32 obj/BlueOS_queues.o
 .comment       0x0000000000000031       0x32 obj/BlueOS_status.o
 .comment       0x0000000000000031       0x32 obj/BlueOS_switcher.o
 .comment       0x0000000000000031       0x32 obj/BlueOS_startup.o
 .comment       0x0000000000000031       0x32 obj/BlueOS_clocks.o
 .comment       0x0000000000000031       0x32 obj/BlueOS_config.o
 .comment       0x0000000000000031       0x32 obj/BlueOS_queue_table.o

.ARM.attributes
                0x0000000000000000       0x33
 .ARM.attributes
                0x0000000000000000       0x33 obj/BlueOS_IO.o
 .ARM.attributes
                0x0000000000000033       0x33 obj/BlueOS_console.o
 .ARM.attributes
                0x0000000000000066       0x33 obj/BlueOS_queues.o
 .ARM.attributes
                0x0000000000000099       0x33 obj/BlueOS_status.o
 .ARM.attributes
                0x00000000000000cc       0x33 obj/BlueOS_switcher.o
 .ARM.attributes
                0x00000000000000ff       0x33 obj/BlueOS_startup.o
 .ARM.attributes
                0x0000000000000132       0x33 obj/BlueOS_clocks.o
 .ARM.attributes
                0x0000000000000165       0x33 obj/BlueOS_config.o
 .ARM.attributes
                0x0000000000000198       0x33 obj/BlueOS_queue_table.o
